	.text
	.file	"401.bzip2link.bc"
	.section	.rodata.cst4,"aM",@progbits,4
	.align	4
.LCPI0_0:
	.long	805306368               # float 4.65661287E-10
	.text
	.globl	ran
	.align	16, 0x90
	.type	ran,@function
ran:                                    # @ran
	.cfi_startproc
# BB#0:                                 # %entry
	movq	seedi(%rip), %rcx
	movabsq	$4730756183288445817, %rdx # imm = 0x41A705AF1FE3FB79
	movq	%rcx, %rax
	imulq	%rdx
	movq	%rdx, %rax
	shrq	$63, %rax
	sarq	$15, %rdx
	addq	%rax, %rdx
	imulq	$127773, %rdx, %rax     # imm = 0x1F31D
	subq	%rax, %rcx
	imulq	$16807, %rcx, %rax      # imm = 0x41A7
	imulq	$-2836, %rdx, %rcx      # imm = 0xFFFFFFFFFFFFF4EC
	leaq	(%rax,%rcx), %rdx
	testq	%rdx, %rdx
	leaq	2147483647(%rax,%rcx), %rax
	cmovgq	%rdx, %rax
	movq	%rax, seedi(%rip)
	cvtsi2ssq	%rax, %xmm0
	mulss	.LCPI0_0(%rip), %xmm0
	cvtss2sd	%xmm0, %xmm0
	retq
.Lfunc_end0:
	.size	ran, .Lfunc_end0-ran
	.cfi_endproc

	.globl	spec_init
	.align	16, 0x90
	.type	spec_init,@function
spec_init:                              # @spec_init
	.cfi_startproc
# BB#0:                                 # %entry
	pushq	%r15
.Ltmp0:
	.cfi_def_cfa_offset 16
	pushq	%r14
.Ltmp1:
	.cfi_def_cfa_offset 24
	pushq	%rbx
.Ltmp2:
	.cfi_def_cfa_offset 32
.Ltmp3:
	.cfi_offset %rbx, -32
.Ltmp4:
	.cfi_offset %r14, -24
.Ltmp5:
	.cfi_offset %r15, -16
	xorl	%r14d, %r14d
	cmpl	$4, dbglvl(%rip)
	jl	.LBB1_2
# BB#1:                                 # %if.then
	movl	$.Lstr.34, %edi
	callq	puts
	xorl	%r14d, %r14d
	.align	16, 0x90
.LBB1_2:                                # %for.body
                                        # =>This Loop Header: Depth=1
                                        #     Child Loop BB1_6 Depth 2
	leaq	(%r14,%r14,2), %r15
	movslq	spec_fd(,%r15,8), %rbx
	xorps	%xmm0, %xmm0
	movups	%xmm0, spec_fd(,%r15,8)
	movq	$0, spec_fd+16(,%r15,8)
	movl	%ebx, spec_fd(,%r15,8)
	leaq	1048576(%rbx), %rdi
	callq	malloc
	movq	%rax, spec_fd+16(,%r15,8)
	testq	%rax, %rax
	je	.LBB1_9
# BB#3:                                 # %for.cond19.preheader
                                        #   in Loop: Header=BB1_2 Depth=1
	testl	%ebx, %ebx
	jle	.LBB1_7
# BB#4:                                 # %for.body22.preheader
                                        #   in Loop: Header=BB1_2 Depth=1
	movb	$0, (%rax)
	movl	$1024, %eax             # imm = 0x400
	cmpl	$1024, %ebx             # imm = 0x400
	jle	.LBB1_7
# BB#5:                                 #   in Loop: Header=BB1_2 Depth=1
	leaq	spec_fd+16(,%r15,8), %rcx
	.align	16, 0x90
.LBB1_6:                                # %for.body22.for.body22_crit_edge
                                        #   Parent Loop BB1_2 Depth=1
                                        # =>  This Inner Loop Header: Depth=2
	movq	(%rcx), %rdx
	movb	$0, (%rdx,%rax)
	addq	$1024, %rax             # imm = 0x400
	cmpq	%rbx, %rax
	jl	.LBB1_6
.LBB1_7:                                # %for.end
                                        #   in Loop: Header=BB1_2 Depth=1
	incq	%r14
	cmpq	$3, %r14
	jl	.LBB1_2
# BB#8:                                 # %for.end30
	xorl	%eax, %eax
	popq	%rbx
	popq	%r14
	popq	%r15
	retq
.LBB1_9:                                # %if.then16
	movl	$.Lstr, %edi
	callq	puts
	xorl	%edi, %edi
	callq	exit
.Lfunc_end1:
	.size	spec_init, .Lfunc_end1-spec_init
	.cfi_endproc

	.section	.rodata.cst4,"aM",@progbits,4
	.align	4
.LCPI2_0:
	.long	805306368               # float 4.65661287E-10
	.section	.rodata.cst8,"aM",@progbits,8
	.align	8
.LCPI2_1:
	.quad	4629700416936869888     # double 32
.LCPI2_2:
	.quad	4643211215818981376     # double 256
	.text
	.globl	spec_random_load
	.align	16, 0x90
	.type	spec_random_load,@function
spec_random_load:                       # @spec_random_load
	.cfi_startproc
# BB#0:                                 # %entry
	pushq	%rbp
.Ltmp6:
	.cfi_def_cfa_offset 16
	pushq	%r15
.Ltmp7:
	.cfi_def_cfa_offset 24
	pushq	%r14
.Ltmp8:
	.cfi_def_cfa_offset 32
	pushq	%r12
.Ltmp9:
	.cfi_def_cfa_offset 40
	pushq	%rbx
.Ltmp10:
	.cfi_def_cfa_offset 48
	subq	$4194304, %rsp          # imm = 0x400000
.Ltmp11:
	.cfi_def_cfa_offset 4194352
.Ltmp12:
	.cfi_offset %rbx, -48
.Ltmp13:
	.cfi_offset %r12, -40
.Ltmp14:
	.cfi_offset %r14, -32
.Ltmp15:
	.cfi_offset %r15, -24
.Ltmp16:
	.cfi_offset %rbp, -16
	movl	%edi, %r14d
	xorl	%ebp, %ebp
	cmpl	$5, dbglvl(%rip)
	jl	.LBB2_5
# BB#1:                                 # %if.then
	movl	$.Lstr.36, %edi
	callq	puts
	xorl	%ebp, %ebp
.LBB2_2:                                # %for.cond
	movl	dbglvl(%rip), %eax
	cmpl	$31, %ebp
	jg	.LBB2_8
# BB#3:                                 # %for.body
	cmpl	$6, %eax
	jl	.LBB2_5
# BB#4:                                 # %if.then3
	movl	$.L.str.3, %edi
	xorl	%eax, %eax
	movl	%ebp, %esi
	callq	printf
.LBB2_5:                                # %for.cond6.preheader
	movq	seedi(%rip), %rcx
	movslq	%ebp, %rax
	shlq	$17, %rax
	leaq	(%rsp,%rax), %rsi
	xorl	%edi, %edi
	movabsq	$4730756183288445817, %rbx # imm = 0x41A705AF1FE3FB79
	movss	.LCPI2_0(%rip), %xmm0   # xmm0 = mem[0],zero,zero,zero
	movsd	.LCPI2_2(%rip), %xmm1   # xmm1 = mem[0],zero
	.align	16, 0x90
.LBB2_6:                                # %for.body8
                                        # =>This Inner Loop Header: Depth=1
	movq	%rcx, %rax
	imulq	%rbx
	movq	%rdx, %rax
	shrq	$63, %rax
	sarq	$15, %rdx
	addq	%rax, %rdx
	imulq	$127773, %rdx, %rax     # imm = 0x1F31D
	subq	%rax, %rcx
	imulq	$16807, %rcx, %rax      # imm = 0x41A7
	imulq	$-2836, %rdx, %rcx      # imm = 0xFFFFFFFFFFFFF4EC
	leaq	(%rax,%rcx), %rdx
	testq	%rdx, %rdx
	leaq	2147483647(%rax,%rcx), %rcx
	cmovgq	%rdx, %rcx
	cvtsi2ssq	%rcx, %xmm2
	mulss	%xmm0, %xmm2
	cvtss2sd	%xmm2, %xmm2
	mulsd	%xmm1, %xmm2
	cvttsd2si	%xmm2, %eax
	movb	%al, (%rsi,%rdi)
	incq	%rdi
	cmpq	$131072, %rdi           # imm = 0x20000
	jne	.LBB2_6
# BB#7:                                 # %for.inc13
	movq	%rcx, seedi(%rip)
	incl	%ebp
	jmp	.LBB2_2
.LBB2_8:                                # %for.end15
	cmpl	$5, %eax
	jl	.LBB2_10
# BB#9:                                 # %if.then18
	movl	$.Lstr.35, %edi
	callq	puts
.LBB2_10:                               # %for.cond21.preheader
	movslq	%r14d, %rax
	leaq	(%rax,%rax,2), %r14
	cmpl	$0, spec_fd(,%r14,8)
	jle	.LBB2_13
# BB#11:                                # %for.body26.lr.ph
	leaq	spec_fd(,%r14,8), %r15
	leaq	spec_fd+16(,%r14,8), %rbx
	xorl	%ebp, %ebp
	movabsq	$4730756183288445817, %r12 # imm = 0x41A705AF1FE3FB79
	.align	16, 0x90
.LBB2_12:                               # %for.body26
                                        # =>This Inner Loop Header: Depth=1
	movq	seedi(%rip), %rcx
	movq	%rcx, %rax
	imulq	%r12
	movq	%rdx, %rax
	shrq	$63, %rax
	sarq	$15, %rdx
	addq	%rax, %rdx
	imulq	$127773, %rdx, %rax     # imm = 0x1F31D
	subq	%rax, %rcx
	imulq	$16807, %rcx, %rax      # imm = 0x41A7
	imulq	$-2836, %rdx, %rcx      # imm = 0xFFFFFFFFFFFFF4EC
	leaq	(%rax,%rcx), %rdx
	testq	%rdx, %rdx
	leaq	2147483647(%rax,%rcx), %rax
	cmovgq	%rdx, %rax
	movq	(%rbx), %rdi
	addq	%rbp, %rdi
	movq	%rax, seedi(%rip)
	cvtsi2ssq	%rax, %xmm0
	mulss	.LCPI2_0(%rip), %xmm0
	cvtss2sd	%xmm0, %xmm0
	mulsd	.LCPI2_1(%rip), %xmm0
	cvttsd2si	%xmm0, %eax
	cltq
	shlq	$17, %rax
	leaq	(%rsp,%rax), %rsi
	movl	$131072, %edx           # imm = 0x20000
	callq	memcpy
	addq	$131072, %rbp           # imm = 0x20000
	movslq	(%r15), %rax
	cmpq	%rax, %rbp
	jl	.LBB2_12
.LBB2_13:                               # %for.end35
	movl	$1048576, spec_fd+4(,%r14,8) # imm = 0x100000
	xorl	%eax, %eax
	addq	$4194304, %rsp          # imm = 0x400000
	popq	%rbx
	popq	%r12
	popq	%r14
	popq	%r15
	popq	%rbp
	retq
.Lfunc_end2:
	.size	spec_random_load, .Lfunc_end2-spec_random_load
	.cfi_endproc

	.globl	spec_load
	.align	16, 0x90
	.type	spec_load,@function
spec_load:                              # @spec_load
	.cfi_startproc
# BB#0:                                 # %entry
	pushq	%rbp
.Ltmp17:
	.cfi_def_cfa_offset 16
	pushq	%r15
.Ltmp18:
	.cfi_def_cfa_offset 24
	pushq	%r14
.Ltmp19:
	.cfi_def_cfa_offset 32
	pushq	%r13
.Ltmp20:
	.cfi_def_cfa_offset 40
	pushq	%r12
.Ltmp21:
	.cfi_def_cfa_offset 48
	pushq	%rbx
.Ltmp22:
	.cfi_def_cfa_offset 56
	pushq	%rax
.Ltmp23:
	.cfi_def_cfa_offset 64
.Ltmp24:
	.cfi_offset %rbx, -56
.Ltmp25:
	.cfi_offset %r12, -48
.Ltmp26:
	.cfi_offset %r13, -40
.Ltmp27:
	.cfi_offset %r14, -32
.Ltmp28:
	.cfi_offset %r15, -24
.Ltmp29:
	.cfi_offset %rbp, -16
	movl	%edx, %r12d
	movq	%rsi, %rcx
	movq	%rcx, (%rsp)            # 8-byte Spill
	movl	%edi, %r15d
	xorl	%esi, %esi
	xorl	%eax, %eax
	movq	%rcx, %rdi
	callq	open
	movl	%eax, %r13d
	testl	%r13d, %r13d
	js	.LBB3_1
# BB#3:                                 # %if.end
	movslq	%r15d, %rax
	leaq	(%rax,%rax,2), %r15
	leaq	spec_fd+4(,%r15,8), %rbx
	movq	$0, spec_fd+4(,%r15,8)
	testl	%r12d, %r12d
	jle	.LBB3_9
# BB#4:                                 # %for.body.lr.ph
	leaq	spec_fd+16(,%r15,8), %rbp
	xorl	%r14d, %r14d
	.align	16, 0x90
.LBB3_5:                                # %for.body
                                        # =>This Inner Loop Header: Depth=1
	movslq	%r14d, %rsi
	addq	(%rbp), %rsi
	movl	$131072, %edx           # imm = 0x20000
	movl	%r13d, %edi
	callq	read
	testl	%eax, %eax
	je	.LBB3_9
# BB#6:                                 # %if.end13
                                        #   in Loop: Header=BB3_5 Depth=1
	js	.LBB3_7
# BB#8:                                 # %if.end20
                                        #   in Loop: Header=BB3_5 Depth=1
	addl	%eax, (%rbx)
	addl	%eax, %r14d
	cmpl	%r12d, %r14d
	jl	.LBB3_5
.LBB3_9:                                # %for.end
	movl	%r13d, %edi
	callq	close
	movl	(%rbx), %eax
	cmpl	%r12d, %eax
	jge	.LBB3_14
# BB#10:                                # %while.body.lr.ph
	leaq	spec_fd+16(,%r15,8), %r14
	.align	16, 0x90
.LBB3_11:                               # %while.body
                                        # =>This Inner Loop Header: Depth=1
	movl	%r12d, %ebp
	subl	%eax, %ebp
	cmpl	%eax, %ebp
	cmovgl	%eax, %ebp
	cmpl	$4, dbglvl(%rip)
	jl	.LBB3_13
# BB#12:                                # %if.then46
                                        #   in Loop: Header=BB3_11 Depth=1
	movl	$.L.str.7, %edi
	xorl	%eax, %eax
	movl	%ebp, %esi
	callq	printf
	movl	(%rbx), %eax
.LBB3_13:                               # %if.end48
                                        #   in Loop: Header=BB3_11 Depth=1
	movq	(%r14), %rsi
	movslq	%eax, %rdi
	addq	%rsi, %rdi
	movslq	%ebp, %rdx
	callq	memcpy
	addl	(%rbx), %ebp
	movl	%ebp, (%rbx)
	cmpl	%r12d, %ebp
	movl	%ebp, %eax
	jl	.LBB3_11
.LBB3_14:                               # %while.end
	xorl	%eax, %eax
	addq	$8, %rsp
	popq	%rbx
	popq	%r12
	popq	%r13
	popq	%r14
	popq	%r15
	popq	%rbp
	retq
.LBB3_7:                                # %if.then16
	movq	stderr(%rip), %rbx
	callq	__errno_location
	movl	(%rax), %edi
	callq	strerror
	movq	%rax, %rcx
	movl	$.L.str.6, %esi
.LBB3_2:                                # %if.then
	xorl	%eax, %eax
	movq	%rbx, %rdi
	movq	(%rsp), %rdx            # 8-byte Reload
	callq	fprintf
	xorl	%edi, %edi
	callq	exit
.LBB3_1:                                # %if.then
	movq	stderr(%rip), %rbx
	callq	__errno_location
	movl	(%rax), %edi
	callq	strerror
	movq	%rax, %rcx
	movl	$.L.str.5, %esi
	jmp	.LBB3_2
.Lfunc_end3:
	.size	spec_load, .Lfunc_end3-spec_load
	.cfi_endproc

	.globl	spec_read
	.align	16, 0x90
	.type	spec_read,@function
spec_read:                              # @spec_read
	.cfi_startproc
# BB#0:                                 # %entry
	pushq	%r15
.Ltmp30:
	.cfi_def_cfa_offset 16
	pushq	%r14
.Ltmp31:
	.cfi_def_cfa_offset 24
	pushq	%r12
.Ltmp32:
	.cfi_def_cfa_offset 32
	pushq	%rbx
.Ltmp33:
	.cfi_def_cfa_offset 40
	pushq	%rax
.Ltmp34:
	.cfi_def_cfa_offset 48
.Ltmp35:
	.cfi_offset %rbx, -40
.Ltmp36:
	.cfi_offset %r12, -32
.Ltmp37:
	.cfi_offset %r14, -24
.Ltmp38:
	.cfi_offset %r15, -16
	movl	%edx, %r15d
	movq	%rsi, %r14
	movl	%edi, %ebx
	cmpl	$5, dbglvl(%rip)
	jl	.LBB4_2
# BB#1:                                 # %if.then
	movl	$.L.str.8, %edi
	xorl	%eax, %eax
	movl	%ebx, %esi
	movq	%r14, %rdx
	movl	%r15d, %ecx
	callq	printf
.LBB4_2:                                # %if.end
	cmpl	$4, %ebx
	jge	.LBB4_9
# BB#3:                                 # %if.end4
	movslq	%ebx, %rax
	leaq	(%rax,%rax,2), %rax
	movslq	spec_fd+8(,%rax,8), %rsi
	movl	spec_fd+4(,%rax,8), %ecx
	cmpl	%esi, %ecx
	jle	.LBB4_4
# BB#6:                                 # %if.end13
	leaq	spec_fd+8(,%rax,8), %r12
	movl	%ecx, %ebx
	subl	%esi, %ebx
	leal	(%rsi,%r15), %edx
	cmpl	%ecx, %edx
	cmovll	%r15d, %ebx
	addq	spec_fd+16(,%rax,8), %rsi
	movslq	%ebx, %r15
	movq	%r14, %rdi
	movq	%r15, %rdx
	callq	memcpy
	addl	%r15d, (%r12)
	cmpl	$5, dbglvl(%rip)
	jl	.LBB4_8
# BB#7:                                 # %if.then43
	movl	$.L.str.11, %edi
	xorl	%eax, %eax
	movl	%ebx, %esi
	callq	printf
	jmp	.LBB4_8
.LBB4_4:                                # %if.then8
	movl	$-1, %ebx
	cmpl	$5, dbglvl(%rip)
	jl	.LBB4_8
# BB#5:                                 # %if.then10
	movl	$.Lstr.39, %edi
	callq	puts
.LBB4_8:                                # %cleanup
	movl	%ebx, %eax
	addq	$8, %rsp
	popq	%rbx
	popq	%r12
	popq	%r14
	popq	%r15
	retq
.LBB4_9:                                # %if.then2
	movq	stderr(%rip), %rdi
	movl	$.L.str.9, %esi
	xorl	%eax, %eax
	movl	%ebx, %edx
	callq	fprintf
	xorl	%edi, %edi
	callq	exit
.Lfunc_end4:
	.size	spec_read, .Lfunc_end4-spec_read
	.cfi_endproc

	.globl	spec_fread
	.align	16, 0x90
	.type	spec_fread,@function
spec_fread:                             # @spec_fread
	.cfi_startproc
# BB#0:                                 # %entry
	pushq	%rbp
.Ltmp39:
	.cfi_def_cfa_offset 16
	pushq	%r15
.Ltmp40:
	.cfi_def_cfa_offset 24
	pushq	%r14
.Ltmp41:
	.cfi_def_cfa_offset 32
	pushq	%r12
.Ltmp42:
	.cfi_def_cfa_offset 40
	pushq	%rbx
.Ltmp43:
	.cfi_def_cfa_offset 48
.Ltmp44:
	.cfi_offset %rbx, -48
.Ltmp45:
	.cfi_offset %r12, -40
.Ltmp46:
	.cfi_offset %r14, -32
.Ltmp47:
	.cfi_offset %r15, -24
.Ltmp48:
	.cfi_offset %rbp, -16
	movl	%ecx, %ebp
	movl	%edx, %ebx
	movl	%esi, %r15d
	movq	%rdi, %r14
	cmpl	$5, dbglvl(%rip)
	jl	.LBB5_2
# BB#1:                                 # %if.then
	movl	$.L.str.12, %edi
	xorl	%eax, %eax
	movq	%r14, %rsi
	movl	%r15d, %edx
	movl	%ebx, %ecx
	movl	%ebp, %r8d
	callq	printf
.LBB5_2:                                # %if.end
	cmpl	$4, %ebp
	jge	.LBB5_11
# BB#3:                                 # %if.end4
	movslq	%ebp, %rax
	leaq	(%rax,%rax,2), %rcx
	movslq	spec_fd+8(,%rcx,8), %rsi
	movl	spec_fd+4(,%rcx,8), %eax
	cmpl	%esi, %eax
	jle	.LBB5_4
# BB#6:                                 # %if.end13
	leaq	spec_fd+8(,%rcx,8), %r12
	movl	%ebx, %edx
	imull	%r15d, %edx
	addl	%esi, %edx
	cmpl	%eax, %edx
	jl	.LBB5_8
# BB#7:                                 # %if.then21
	subl	%esi, %eax
	cltd
	idivl	%r15d
	movl	%eax, %ebx
.LBB5_8:                                # %if.end28
	addq	spec_fd+16(,%rcx,8), %rsi
	movslq	%ebx, %rbp
	movq	%r14, %rdi
	movq	%rbp, %rdx
	callq	memcpy
	imull	%r15d, %ebp
	addl	%ebp, (%r12)
	cmpl	$5, dbglvl(%rip)
	jl	.LBB5_10
# BB#9:                                 # %if.then44
	movl	$.L.str.11, %edi
	xorl	%eax, %eax
	movl	%ebp, %esi
	callq	printf
	jmp	.LBB5_10
.LBB5_4:                                # %if.then8
	movl	$-1, %ebx
	cmpl	$5, dbglvl(%rip)
	jl	.LBB5_10
# BB#5:                                 # %if.then10
	movl	$.Lstr.39, %edi
	callq	puts
.LBB5_10:                               # %cleanup
	movl	%ebx, %eax
	popq	%rbx
	popq	%r12
	popq	%r14
	popq	%r15
	popq	%rbp
	retq
.LBB5_11:                               # %if.then2
	movq	stderr(%rip), %rdi
	movl	$.L.str.13, %esi
	xorl	%eax, %eax
	movl	%ebp, %edx
	callq	fprintf
	xorl	%edi, %edi
	callq	exit
.Lfunc_end5:
	.size	spec_fread, .Lfunc_end5-spec_fread
	.cfi_endproc

	.globl	spec_getc
	.align	16, 0x90
	.type	spec_getc,@function
spec_getc:                              # @spec_getc
	.cfi_startproc
# BB#0:                                 # %entry
	pushq	%rbx
.Ltmp49:
	.cfi_def_cfa_offset 16
.Ltmp50:
	.cfi_offset %rbx, -16
	movl	%edi, %ebx
	cmpl	$5, dbglvl(%rip)
	jl	.LBB6_2
# BB#1:                                 # %if.then
	movl	$.L.str.14, %edi
	xorl	%eax, %eax
	movl	%ebx, %esi
	callq	printf
.LBB6_2:                                # %if.end
	cmpl	$4, %ebx
	jge	.LBB6_9
# BB#3:                                 # %if.end4
	movslq	%ebx, %rax
	leaq	(%rax,%rax,2), %rax
	movslq	spec_fd+8(,%rax,8), %rcx
	cmpl	spec_fd+4(,%rax,8), %ecx
	jge	.LBB6_4
# BB#6:                                 # %if.end13
	leaq	spec_fd+8(,%rax,8), %rdx
	leal	1(%rcx), %esi
	movl	%esi, (%rdx)
	movq	spec_fd+16(,%rax,8), %rax
	movzbl	(%rax,%rcx), %ebx
	cmpl	$5, dbglvl(%rip)
	jl	.LBB6_8
# BB#7:                                 # %if.then23
	movl	$.L.str.11, %edi
	xorl	%eax, %eax
	movl	%ebx, %esi
	callq	printf
	jmp	.LBB6_8
.LBB6_4:                                # %if.then8
	movl	$-1, %ebx
	cmpl	$5, dbglvl(%rip)
	jl	.LBB6_8
# BB#5:                                 # %if.then10
	movl	$.Lstr.39, %edi
	callq	puts
.LBB6_8:                                # %cleanup
	movl	%ebx, %eax
	popq	%rbx
	retq
.LBB6_9:                                # %if.then2
	movq	stderr(%rip), %rdi
	movl	$.L.str.9, %esi
	xorl	%eax, %eax
	movl	%ebx, %edx
	callq	fprintf
	xorl	%edi, %edi
	callq	exit
.Lfunc_end6:
	.size	spec_getc, .Lfunc_end6-spec_getc
	.cfi_endproc

	.globl	spec_ungetc
	.align	16, 0x90
	.type	spec_ungetc,@function
spec_ungetc:                            # @spec_ungetc
	.cfi_startproc
# BB#0:                                 # %entry
	pushq	%rbp
.Ltmp51:
	.cfi_def_cfa_offset 16
	pushq	%rbx
.Ltmp52:
	.cfi_def_cfa_offset 24
	pushq	%rax
.Ltmp53:
	.cfi_def_cfa_offset 32
.Ltmp54:
	.cfi_offset %rbx, -24
.Ltmp55:
	.cfi_offset %rbp, -16
	movl	%esi, %ebp
	movl	%edi, %ebx
	cmpl	$5, dbglvl(%rip)
	jl	.LBB7_2
# BB#1:                                 # %if.then
	movl	$.L.str.15, %edi
	xorl	%eax, %eax
	movl	%ebp, %esi
	callq	printf
.LBB7_2:                                # %if.end
	cmpl	$4, %ebp
	jge	.LBB7_3
# BB#4:                                 # %if.end4
	movslq	%ebp, %rax
	leaq	(%rax,%rax,2), %rax
	movslq	spec_fd+8(,%rax,8), %rdx
	testq	%rdx, %rdx
	jle	.LBB7_5
# BB#7:                                 # %if.end11
	leaq	spec_fd+8(,%rax,8), %rcx
	leaq	-1(%rdx), %rsi
	movl	%esi, (%rcx)
	movq	spec_fd+16(,%rax,8), %rax
	movzbl	%bl, %ebx
	movzbl	-1(%rax,%rdx), %eax
	cmpl	%ebx, %eax
	jne	.LBB7_11
# BB#8:                                 # %if.end24
	cmpl	$5, dbglvl(%rip)
	jl	.LBB7_10
# BB#9:                                 # %if.then27
	movl	$.L.str.11, %edi
	xorl	%esi, %esi
	xorl	%eax, %eax
	callq	printf
.LBB7_10:                               # %if.end29
	movl	%ebx, %eax
	addq	$8, %rsp
	popq	%rbx
	popq	%rbp
	retq
.LBB7_3:                                # %if.then2
	movq	stderr(%rip), %rdi
	movl	$.L.str.9, %esi
	xorl	%eax, %eax
	movl	%ebp, %edx
	jmp	.LBB7_6
.LBB7_5:                                # %if.then6
	movq	stderr(%rip), %rdi
	movl	$.L.str.16, %esi
	xorl	%eax, %eax
.LBB7_6:                                # %if.then6
	callq	fprintf
	xorl	%edi, %edi
	callq	exit
.LBB7_11:                               # %if.then22
	movq	stderr(%rip), %rcx
	movl	$.L.str.17, %edi
	movl	$71, %esi
	movl	$1, %edx
	callq	fwrite
	xorl	%edi, %edi
	callq	exit
.Lfunc_end7:
	.size	spec_ungetc, .Lfunc_end7-spec_ungetc
	.cfi_endproc

	.globl	spec_rewind
	.align	16, 0x90
	.type	spec_rewind,@function
spec_rewind:                            # @spec_rewind
	.cfi_startproc
# BB#0:                                 # %entry
	movslq	%edi, %rax
	leaq	(%rax,%rax,2), %rax
	movl	$0, spec_fd+8(,%rax,8)
	xorl	%eax, %eax
	retq
.Lfunc_end8:
	.size	spec_rewind, .Lfunc_end8-spec_rewind
	.cfi_endproc

	.globl	spec_reset
	.align	16, 0x90
	.type	spec_reset,@function
spec_reset:                             # @spec_reset
	.cfi_startproc
# BB#0:                                 # %entry
	pushq	%rbx
.Ltmp56:
	.cfi_def_cfa_offset 16
.Ltmp57:
	.cfi_offset %rbx, -16
	movslq	%edi, %rax
	leaq	(%rax,%rax,2), %rbx
	movq	spec_fd+16(,%rbx,8), %rdi
	movslq	spec_fd+4(,%rbx,8), %rdx
	xorl	%esi, %esi
	callq	memset
	movq	$0, spec_fd+4(,%rbx,8)
	xorl	%eax, %eax
	popq	%rbx
	retq
.Lfunc_end9:
	.size	spec_reset, .Lfunc_end9-spec_reset
	.cfi_endproc

	.globl	spec_write
	.align	16, 0x90
	.type	spec_write,@function
spec_write:                             # @spec_write
	.cfi_startproc
# BB#0:                                 # %entry
	pushq	%rbp
.Ltmp58:
	.cfi_def_cfa_offset 16
	pushq	%r14
.Ltmp59:
	.cfi_def_cfa_offset 24
	pushq	%rbx
.Ltmp60:
	.cfi_def_cfa_offset 32
.Ltmp61:
	.cfi_offset %rbx, -32
.Ltmp62:
	.cfi_offset %r14, -24
.Ltmp63:
	.cfi_offset %rbp, -16
	movl	%edx, %ebx
	movq	%rsi, %r14
	movl	%edi, %ebp
	cmpl	$5, dbglvl(%rip)
	jl	.LBB10_2
# BB#1:                                 # %if.then
	movl	$.L.str.18, %edi
	xorl	%eax, %eax
	movl	%ebp, %esi
	movq	%r14, %rdx
	movl	%ebx, %ecx
	callq	printf
.LBB10_2:                               # %if.end
	cmpl	$4, %ebp
	jge	.LBB10_6
# BB#3:                                 # %if.end4
	movslq	%ebp, %rax
	leaq	(%rax,%rax,2), %rbp
	movslq	spec_fd+8(,%rbp,8), %rdi
	addq	spec_fd+16(,%rbp,8), %rdi
	movslq	%ebx, %rdx
	movq	%r14, %rsi
	callq	memcpy
	addl	%ebx, spec_fd+4(,%rbp,8)
	addl	%ebx, spec_fd+8(,%rbp,8)
	cmpl	$5, dbglvl(%rip)
	jl	.LBB10_5
# BB#4:                                 # %if.then18
	movl	$.L.str.11, %edi
	xorl	%eax, %eax
	movl	%ebx, %esi
	callq	printf
.LBB10_5:                               # %if.end20
	movl	%ebx, %eax
	popq	%rbx
	popq	%r14
	popq	%rbp
	retq
.LBB10_6:                               # %if.then2
	movq	stderr(%rip), %rdi
	movl	$.L.str.19, %esi
	xorl	%eax, %eax
	movl	%ebp, %edx
	callq	fprintf
	xorl	%edi, %edi
	callq	exit
.Lfunc_end10:
	.size	spec_write, .Lfunc_end10-spec_write
	.cfi_endproc

	.globl	spec_fwrite
	.align	16, 0x90
	.type	spec_fwrite,@function
spec_fwrite:                            # @spec_fwrite
	.cfi_startproc
# BB#0:                                 # %entry
	pushq	%rbp
.Ltmp64:
	.cfi_def_cfa_offset 16
	pushq	%r15
.Ltmp65:
	.cfi_def_cfa_offset 24
	pushq	%r14
.Ltmp66:
	.cfi_def_cfa_offset 32
	pushq	%rbx
.Ltmp67:
	.cfi_def_cfa_offset 40
	pushq	%rax
.Ltmp68:
	.cfi_def_cfa_offset 48
.Ltmp69:
	.cfi_offset %rbx, -40
.Ltmp70:
	.cfi_offset %r14, -32
.Ltmp71:
	.cfi_offset %r15, -24
.Ltmp72:
	.cfi_offset %rbp, -16
	movl	%ecx, %ebp
	movl	%edx, %r15d
	movl	%esi, %ebx
	movq	%rdi, %r14
	cmpl	$5, dbglvl(%rip)
	jl	.LBB11_2
# BB#1:                                 # %if.then
	movl	$.L.str.20, %edi
	xorl	%eax, %eax
	movq	%r14, %rsi
	movl	%ebx, %edx
	movl	%r15d, %ecx
	movl	%ebp, %r8d
	callq	printf
.LBB11_2:                               # %if.end
	cmpl	$4, %ebp
	jge	.LBB11_6
# BB#3:                                 # %if.end4
	movslq	%ebp, %rax
	leaq	(%rax,%rax,2), %rbp
	movslq	spec_fd+8(,%rbp,8), %rdi
	addq	spec_fd+16(,%rbp,8), %rdi
	imull	%r15d, %ebx
	movslq	%ebx, %rbx
	movq	%r14, %rsi
	movq	%rbx, %rdx
	callq	memcpy
	addl	%ebx, spec_fd+4(,%rbp,8)
	addl	%ebx, spec_fd+8(,%rbp,8)
	cmpl	$5, dbglvl(%rip)
	jl	.LBB11_5
# BB#4:                                 # %if.then20
	movl	$.L.str.11, %edi
	xorl	%eax, %eax
	movl	%r15d, %esi
	callq	printf
.LBB11_5:                               # %if.end22
	movl	%r15d, %eax
	addq	$8, %rsp
	popq	%rbx
	popq	%r14
	popq	%r15
	popq	%rbp
	retq
.LBB11_6:                               # %if.then2
	movq	stderr(%rip), %rdi
	movl	$.L.str.21, %esi
	xorl	%eax, %eax
	movl	%ebp, %edx
	callq	fprintf
	xorl	%edi, %edi
	callq	exit
.Lfunc_end11:
	.size	spec_fwrite, .Lfunc_end11-spec_fwrite
	.cfi_endproc

	.globl	spec_putc
	.align	16, 0x90
	.type	spec_putc,@function
spec_putc:                              # @spec_putc
	.cfi_startproc
# BB#0:                                 # %entry
	pushq	%rbp
.Ltmp73:
	.cfi_def_cfa_offset 16
	pushq	%rbx
.Ltmp74:
	.cfi_def_cfa_offset 24
	pushq	%rax
.Ltmp75:
	.cfi_def_cfa_offset 32
.Ltmp76:
	.cfi_offset %rbx, -24
.Ltmp77:
	.cfi_offset %rbp, -16
	movl	%esi, %ebx
	movl	%edi, %ebp
	cmpl	$5, dbglvl(%rip)
	jl	.LBB12_2
# BB#1:                                 # %if.then
	movzbl	%bpl, %esi
	movl	$.L.str.22, %edi
	xorl	%eax, %eax
	movl	%ebx, %edx
	callq	printf
.LBB12_2:                               # %if.end
	cmpl	$4, %ebx
	jge	.LBB12_4
# BB#3:                                 # %if.end5
	movslq	%ebx, %rax
	leaq	(%rax,%rax,2), %rax
	movslq	spec_fd+8(,%rax,8), %rcx
	leal	1(%rcx), %edx
	movl	%edx, spec_fd+8(,%rax,8)
	movq	spec_fd+16(,%rax,8), %rdx
	movb	%bpl, (%rdx,%rcx)
	incl	spec_fd+4(,%rax,8)
	movzbl	%bpl, %eax
	addq	$8, %rsp
	popq	%rbx
	popq	%rbp
	retq
.LBB12_4:                               # %if.then3
	movq	stderr(%rip), %rdi
	movl	$.L.str.19, %esi
	xorl	%eax, %eax
	movl	%ebx, %edx
	callq	fprintf
	xorl	%edi, %edi
	callq	exit
.Lfunc_end12:
	.size	spec_putc, .Lfunc_end12-spec_putc
	.cfi_endproc

	.globl	main
	.align	16, 0x90
	.type	main,@function
main:                                   # @main
	.cfi_startproc
# BB#0:                                 # %entry
	pushq	%rbp
.Ltmp78:
	.cfi_def_cfa_offset 16
	pushq	%r15
.Ltmp79:
	.cfi_def_cfa_offset 24
	pushq	%r14
.Ltmp80:
	.cfi_def_cfa_offset 32
	pushq	%r13
.Ltmp81:
	.cfi_def_cfa_offset 40
	pushq	%r12
.Ltmp82:
	.cfi_def_cfa_offset 48
	pushq	%rbx
.Ltmp83:
	.cfi_def_cfa_offset 56
	pushq	%rax
.Ltmp84:
	.cfi_def_cfa_offset 64
.Ltmp85:
	.cfi_offset %rbx, -56
.Ltmp86:
	.cfi_offset %r12, -48
.Ltmp87:
	.cfi_offset %r13, -40
.Ltmp88:
	.cfi_offset %r14, -32
.Ltmp89:
	.cfi_offset %r15, -24
.Ltmp90:
	.cfi_offset %rbp, -16
	movq	%rsi, %r15
	movl	%edi, %ebp
	movq	$10, seedi(%rip)
	movl	$.L.str.23, %r14d
	movl	$64, %r12d
	cmpl	$2, %ebp
	jl	.LBB13_1
# BB#2:                                 # %if.end
	movq	8(%r15), %r14
	cmpl	$3, %ebp
	jl	.LBB13_3
# BB#4:                                 # %if.end4
	movq	16(%r15), %rdi
	xorl	%esi, %esi
	movl	$10, %edx
	callq	strtol
	movq	%rax, %r12
	cmpl	$4, %ebp
	jl	.LBB13_5
# BB#6:                                 # %if.then6
	movq	24(%r15), %rdi
	xorl	%esi, %esi
	movl	$10, %edx
	callq	strtol
	jmp	.LBB13_7
.LBB13_1:
	movl	$64, %eax
	jmp	.LBB13_7
.LBB13_3:
	movl	$64, %eax
	jmp	.LBB13_7
.LBB13_5:
	movl	%r12d, %eax
.LBB13_7:                               # %if.end9
	movl	%r12d, %ebp
	shll	$20, %ebp
	movl	%ebp, spec_fd(%rip)
	shll	$20, %eax
	movl	%eax, spec_fd+24(%rip)
	movl	%ebp, spec_fd+48(%rip)
	callq	spec_init
	cmpl	$3, dbglvl(%rip)
	jl	.LBB13_9
# BB#8:                                 # %if.then15
	movl	$.Lstr.43, %edi
	callq	puts
.LBB13_9:                               # %if.end17
	xorl	%edi, %edi
	movq	%r14, %rsi
	movl	%ebp, %edx
	callq	spec_load
	cmpl	$4, dbglvl(%rip)
	jl	.LBB13_11
# BB#10:                                # %if.then21
	movl	spec_fd+4(%rip), %esi
	movl	$.L.str.25, %edi
	xorl	%eax, %eax
	callq	printf
.LBB13_11:                              # %if.end23
	movl	%r12d, %eax
	shll	$10, %eax
	movslq	%eax, %rdi
	callq	malloc
	movq	%rax, %r14
	testq	%r14, %r14
	je	.LBB13_14
# BB#12:                                # %for.cond.preheader
	testl	%r12d, %r12d
	jle	.LBB13_13
# BB#15:                                # %for.body.lr.ph
	movq	spec_fd+16(%rip), %rsi
	movslq	%ebp, %rbx
	xorl	%ecx, %ecx
	movq	%r14, %rdx
	.align	16, 0x90
.LBB13_16:                              # %for.body
                                        # =>This Inner Loop Header: Depth=1
	movb	(%rsi,%rcx), %al
	movb	%al, (%rdx)
	addq	$1027, %rcx             # imm = 0x403
	incq	%rdx
	cmpq	%rbx, %rcx
	jl	.LBB13_16
	jmp	.LBB13_17
.LBB13_13:                              # %for.cond.preheader.for.end_crit_edge
	movslq	%ebp, %rbx
.LBB13_17:                              # %for.end
	movb	$0, smallMode(%rip)
	movl	$0, verbosity(%rip)
	movl	$9, blockSize100k(%rip)
	movl	$30, workFactor(%rip)
	movl	$5, %r15d
	movabsq	$4410931412992, %r13    # imm = 0x40300000000
	.align	16, 0x90
.LBB13_18:                              # %for.body42
                                        # =>This Loop Header: Depth=1
                                        #     Child Loop BB13_29 Depth 2
	cmpl	$3, dbglvl(%rip)
	jl	.LBB13_20
# BB#19:                                # %if.then46
                                        #   in Loop: Header=BB13_18 Depth=1
	movl	$.L.str.27, %edi
	xorl	%eax, %eax
	movl	%r15d, %esi
	callq	printf
.LBB13_20:                              # %if.end48
                                        #   in Loop: Header=BB13_18 Depth=1
	movl	%r15d, blockSize100k(%rip)
	xorl	%edi, %edi
	movl	$1, %esi
	callq	compressStream
	cmpl	$4, dbglvl(%rip)
	jl	.LBB13_22
# BB#21:                                # %if.then52
                                        #   in Loop: Header=BB13_18 Depth=1
	movl	spec_fd+28(%rip), %esi
	movl	$.L.str.28, %edi
	xorl	%eax, %eax
	callq	printf
.LBB13_22:                              # %if.end54
                                        #   in Loop: Header=BB13_18 Depth=1
	movq	spec_fd+16(%rip), %rdi
	movslq	spec_fd+4(%rip), %rdx
	xorl	%esi, %esi
	callq	memset
	movq	$0, spec_fd+4(%rip)
	movl	$0, spec_fd+32(%rip)
	cmpl	$3, dbglvl(%rip)
	jl	.LBB13_24
# BB#23:                                # %if.then60
                                        #   in Loop: Header=BB13_18 Depth=1
	movl	$.Lstr.41, %edi
	callq	puts
.LBB13_24:                              # %if.end62
                                        #   in Loop: Header=BB13_18 Depth=1
	movl	$0, blockSize100k(%rip)
	movl	$1, %edi
	xorl	%esi, %esi
	callq	uncompressStream
	cmpl	$4, dbglvl(%rip)
	jl	.LBB13_26
# BB#25:                                # %if.then66
                                        #   in Loop: Header=BB13_18 Depth=1
	movl	spec_fd+4(%rip), %esi
	movl	$.L.str.30, %edi
	xorl	%eax, %eax
	callq	printf
.LBB13_26:                              # %for.cond69.preheader
                                        #   in Loop: Header=BB13_18 Depth=1
	testl	%r12d, %r12d
	jle	.LBB13_31
# BB#27:                                # %for.body74.lr.ph
                                        #   in Loop: Header=BB13_18 Depth=1
	movq	spec_fd+16(%rip), %rax
	movq	%r14, %rcx
	xorl	%edx, %edx
	xorl	%esi, %esi
	.align	16, 0x90
.LBB13_29:                              # %for.body74
                                        #   Parent Loop BB13_18 Depth=1
                                        # =>  This Inner Loop Header: Depth=2
	movq	%rsi, %rdi
	sarq	$32, %rdi
	movzbl	(%rax,%rdi), %edi
	movzbl	(%rcx), %ebp
	cmpl	%edi, %ebp
	jne	.LBB13_30
# BB#28:                                # %for.cond69
                                        #   in Loop: Header=BB13_29 Depth=2
	addq	%r13, %rsi
	addq	$1027, %rdx             # imm = 0x403
	incq	%rcx
	cmpq	%rbx, %rdx
	jl	.LBB13_29
.LBB13_31:                              # %for.end89
                                        #   in Loop: Header=BB13_18 Depth=1
	cmpl	$4, dbglvl(%rip)
	jl	.LBB13_33
# BB#32:                                # %if.then93
                                        #   in Loop: Header=BB13_18 Depth=1
	movl	$.Lstr.40, %edi
	callq	puts
.LBB13_33:                              # %if.end95
                                        #   in Loop: Header=BB13_18 Depth=1
	movq	spec_fd+40(%rip), %rdi
	movslq	spec_fd+28(%rip), %rdx
	xorl	%esi, %esi
	callq	memset
	movl	$0, spec_fd+28(%rip)
	movl	$0, spec_fd+32(%rip)
	movl	$0, spec_fd+8(%rip)
	addl	$2, %r15d
	cmpl	$10, %r15d
	jl	.LBB13_18
# BB#34:                                # %for.end99
	movl	$.L.str.33, %edi
	xorl	%eax, %eax
	movl	%r12d, %esi
	callq	printf
	xorl	%eax, %eax
	addq	$8, %rsp
	popq	%rbx
	popq	%r12
	popq	%r13
	popq	%r14
	popq	%r15
	popq	%rbp
	retq
.LBB13_30:                              # %if.then84
	movl	$.L.str.31, %edi
	xorl	%eax, %eax
	movl	%r12d, %esi
	callq	printf
	xorl	%edi, %edi
	callq	exit
.LBB13_14:                              # %if.then28
	movl	$.Lstr.42, %edi
	callq	puts
	xorl	%edi, %edi
	callq	exit
.Lfunc_end13:
	.size	main, .Lfunc_end13-main
	.cfi_endproc

	.globl	spec_compress
	.align	16, 0x90
	.type	spec_compress,@function
spec_compress:                          # @spec_compress
	.cfi_startproc
# BB#0:                                 # %entry
	movl	%edx, blockSize100k(%rip)
	jmp	compressStream          # TAILCALL
.Lfunc_end14:
	.size	spec_compress, .Lfunc_end14-spec_compress
	.cfi_endproc

	.globl	spec_uncompress
	.align	16, 0x90
	.type	spec_uncompress,@function
spec_uncompress:                        # @spec_uncompress
	.cfi_startproc
# BB#0:                                 # %entry
	movl	$0, blockSize100k(%rip)
	jmp	uncompressStream        # TAILCALL
.Lfunc_end15:
	.size	spec_uncompress, .Lfunc_end15-spec_uncompress
	.cfi_endproc

	.globl	spec_initbufs
	.align	16, 0x90
	.type	spec_initbufs,@function
spec_initbufs:                          # @spec_initbufs
	.cfi_startproc
# BB#0:                                 # %entry
	movb	$0, smallMode(%rip)
	movl	$0, verbosity(%rip)
	movl	$9, blockSize100k(%rip)
	movl	$30, workFactor(%rip)
	retq
.Lfunc_end16:
	.size	spec_initbufs, .Lfunc_end16-spec_initbufs
	.cfi_endproc

	.globl	debug_time
	.align	16, 0x90
	.type	debug_time,@function
debug_time:                             # @debug_time
	.cfi_startproc
# BB#0:                                 # %entry
	xorl	%eax, %eax
	retq
.Lfunc_end17:
	.size	debug_time, .Lfunc_end17-debug_time
	.cfi_endproc

	.section	.rodata.cst16,"aM",@progbits,16
	.align	16
.LCPI18_0:
	.long	0                       # 0x0
	.long	1                       # 0x1
	.long	2                       # 0x2
	.long	3                       # 0x3
	.section	.rodata.cst4,"aM",@progbits,4
	.align	4
.LCPI18_1:
	.long	1065353216              # float 1
	.text
	.globl	BZ2_blockSort
	.align	16, 0x90
	.type	BZ2_blockSort,@function
BZ2_blockSort:                          # @BZ2_blockSort
	.cfi_startproc
# BB#0:                                 # %entry
	pushq	%rbp
.Ltmp91:
	.cfi_def_cfa_offset 16
	pushq	%r15
.Ltmp92:
	.cfi_def_cfa_offset 24
	pushq	%r14
.Ltmp93:
	.cfi_def_cfa_offset 32
	pushq	%r13
.Ltmp94:
	.cfi_def_cfa_offset 40
	pushq	%r12
.Ltmp95:
	.cfi_def_cfa_offset 48
	pushq	%rbx
.Ltmp96:
	.cfi_def_cfa_offset 56
	subq	$4808, %rsp             # imm = 0x12C8
.Ltmp97:
	.cfi_def_cfa_offset 4864
.Ltmp98:
	.cfi_offset %rbx, -56
.Ltmp99:
	.cfi_offset %r12, -48
.Ltmp100:
	.cfi_offset %r13, -40
.Ltmp101:
	.cfi_offset %r14, -32
.Ltmp102:
	.cfi_offset %r15, -24
.Ltmp103:
	.cfi_offset %rbp, -16
	movq	%rdi, %rax
	movq	40(%rax), %r15
	movq	%r15, 48(%rsp)          # 8-byte Spill
	movq	56(%rax), %rcx
	movq	%rcx, 32(%rsp)          # 8-byte Spill
	movslq	108(%rax), %rbp
	cmpq	$9999, %rbp             # imm = 0x270F
	movl	656(%rax), %r8d
	movl	%r8d, 68(%rsp)          # 4-byte Spill
	jg	.LBB18_2
# BB#1:                                 # %if.then
	movq	24(%rax), %rdi
	movq	32(%rax), %rsi
	movq	%r15, %rdx
	movl	%ebp, %ecx
	jmp	.LBB18_185
.LBB18_2:                               # %if.else
	movq	64(%rax), %r13
	movq	%rax, (%rsp)            # 8-byte Spill
	movl	88(%rax), %eax
	leal	34(%rbp), %ecx
	leal	35(%rbp), %ebx
	testb	$1, %cl
	cmovel	%ecx, %ebx
	testl	%eax, %eax
	movl	$1, %ecx
	cmovgl	%eax, %ecx
	cmpl	$100, %ecx
	movl	$100, %eax
	cmovlel	%ecx, %eax
	decl	%eax
	cltq
	imulq	$1431655766, %rax, %rcx # imm = 0x55555556
	movq	%rcx, %rax
	shrq	$63, %rax
	shrq	$32, %rcx
	addl	%eax, %ecx
	imull	%ebp, %ecx
	movq	%rcx, 8(%rsp)           # 8-byte Spill
	movl	%ecx, 268(%rsp)
	cmpl	$4, %r8d
	movl	%r8d, %r14d
	jge	.LBB18_3
.LBB18_4:                               # %for.body.preheader.i
	movslq	%ebx, %rbx
	xorl	%esi, %esi
	movl	$262148, %edx           # imm = 0x40004
	movq	%r15, %rdi
	callq	memset
	movzbl	(%r13), %eax
	shll	$8, %eax
	leal	-1(%rbp), %ecx
	cmpl	$3, %ecx
	movq	%r13, %r11
	jl	.LBB18_5
# BB#22:                                # %for.body6.preheader.i
	movl	%ecx, 20(%rsp)          # 4-byte Spill
	movl	%r14d, 68(%rsp)         # 4-byte Spill
	movq	%rbp, %r13
	leal	-4(%r13), %ecx
	movl	%ecx, 248(%rsp)         # 4-byte Spill
	leal	-1(%r13), %r10d
	movslq	%r10d, %rcx
	leaq	(%r11,%rcx), %r9
	movq	%r11, %r14
	movq	%r14, 128(%rsp)         # 8-byte Spill
	leaq	(%rbx,%rcx,2), %r11
	addq	%r14, %r11
	leal	-4(%r13), %ecx
	movslq	%ecx, %rcx
	leaq	(%r14,%rcx), %r12
	leaq	(%rbx,%rcx,2), %r8
	addq	%r14, %r8
	leal	-3(%r13), %edx
	movslq	%edx, %rdx
	movq	%rbx, %rcx
	movq	%rcx, 240(%rsp)         # 8-byte Spill
	leaq	(%r14,%rdx), %rbx
	leaq	(%rcx,%rdx,2), %rsi
	addq	%r14, %rsi
	leal	-2(%r13), %edx
	movslq	%edx, %rdi
	leaq	(%r14,%rdi), %rdx
	leaq	(%rcx,%rdi,2), %rdi
	addq	%r14, %rdi
	xorl	%ebp, %ebp
	.align	16, 0x90
.LBB18_23:                              # %for.body6.i
                                        # =>This Inner Loop Header: Depth=1
	movw	$0, (%r11,%rbp,2)
	sarl	$8, %eax
	movzbl	(%r9,%rbp), %ecx
	shll	$8, %ecx
	orl	%eax, %ecx
	movslq	%ecx, %rax
	incl	(%r15,%rax,4)
	movw	$0, (%rdi,%rbp,2)
	sarl	$8, %eax
	movzbl	(%rdx,%rbp), %ecx
	shll	$8, %ecx
	orl	%eax, %ecx
	movslq	%ecx, %rax
	incl	(%r15,%rax,4)
	movw	$0, (%rsi,%rbp,2)
	sarl	$8, %eax
	movzbl	(%rbx,%rbp), %ecx
	shll	$8, %ecx
	orl	%eax, %ecx
	movslq	%ecx, %rcx
	incl	(%r15,%rcx,4)
	movw	$0, (%r8,%rbp,2)
	sarl	$8, %ecx
	movzbl	(%r12,%rbp), %eax
	shll	$8, %eax
	orl	%ecx, %eax
	movslq	%eax, %rcx
	incl	(%r15,%rcx,4)
	addq	$-4, %rbp
	leal	(%r10,%rbp), %ecx
	cmpl	$2, %ecx
	jg	.LBB18_23
# BB#6:                                 # %for.cond61.preheader.loopexit.i
	movl	248(%rsp), %edx         # 4-byte Reload
	andl	$-4, %edx
	leal	-5(%r13), %ecx
	subl	%edx, %ecx
	movl	68(%rsp), %r12d         # 4-byte Reload
	movq	128(%rsp), %r11         # 8-byte Reload
	movq	240(%rsp), %rbx         # 8-byte Reload
	jmp	.LBB18_7
.LBB18_5:
	movq	%rbp, %r13
	movl	%ecx, 20(%rsp)          # 4-byte Spill
	movl	%r14d, %r12d
.LBB18_7:                               # %for.cond61.preheader.i
	leaq	(%r11,%rbx), %rbp
	testl	%ecx, %ecx
	js	.LBB18_10
# BB#8:                                 # %for.body64.preheader.i
	movslq	%ecx, %rcx
	incq	%rcx
	.align	16, 0x90
.LBB18_9:                               # %for.body64.i
                                        # =>This Inner Loop Header: Depth=1
	movw	$0, -2(%rbp,%rcx,2)
	sarl	$8, %eax
	movzbl	-1(%r11,%rcx), %edx
	shll	$8, %edx
	orl	%edx, %eax
	movslq	%eax, %rdx
	incl	(%r15,%rdx,4)
	decq	%rcx
	jg	.LBB18_9
.LBB18_10:                              # %for.body83.preheader.i
	leaq	(%r11,%r13), %rax
	leaq	33(%r11,%r13), %rdx
	leaq	(%rbx,%r13,2), %rsi
	leaq	(%r11,%rsi), %rcx
	leaq	66(%r11,%rsi), %rdi
	leaq	33(%r11), %rsi
	cmpq	%rdi, %rax
	setbe	%r9b
	cmpq	%rdx, %rcx
	setbe	%r10b
	cmpq	%rsi, %rax
	setbe	%bl
	cmpq	%rdx, %r11
	setbe	%r14b
	cmpq	%rsi, %rcx
	setbe	%sil
	cmpq	%rdi, %r11
	setbe	%r8b
	xorl	%edx, %edx
	testb	%r10b, %r9b
	jne	.LBB18_15
# BB#11:                                # %for.body83.preheader.i
	andb	%r14b, %bl
	jne	.LBB18_15
# BB#12:                                # %for.body83.preheader.i
	andb	%r8b, %sil
	jne	.LBB18_15
# BB#13:                                # %vector.body.preheader
	xorl	%esi, %esi
	xorps	%xmm0, %xmm0
	movl	$32, %edx
	.align	16, 0x90
.LBB18_14:                              # %vector.body
                                        # =>This Inner Loop Header: Depth=1
	movq	(%r11,%rsi), %rdi
	movq	%rdi, (%rax,%rsi)
	movups	%xmm0, (%rcx,%rsi,2)
	addq	$8, %rsi
	cmpq	$32, %rsi
	jne	.LBB18_14
	.align	16, 0x90
.LBB18_15:                              # %for.body83.i
                                        # =>This Inner Loop Header: Depth=1
	movb	(%r11,%rdx), %bl
	movb	%bl, (%rax,%rdx)
	movw	$0, (%rcx,%rdx,2)
	incq	%rdx
	cmpq	$34, %rdx
	jne	.LBB18_15
# BB#16:                                # %for.end93.i
	cmpl	$4, %r12d
	jge	.LBB18_17
.LBB18_18:                              # %for.body102.preheader.i
	movl	(%r15), %eax
	movl	$1, %ecx
	.align	16, 0x90
.LBB18_19:                              # %for.body102.i
                                        # =>This Inner Loop Header: Depth=1
	addl	(%r15,%rcx,4), %eax
	movl	%eax, (%r15,%rcx,4)
	incq	%rcx
	cmpq	$65537, %rcx            # imm = 0x10001
	jne	.LBB18_19
# BB#20:                                # %for.end111.i
	movl	%r12d, 68(%rsp)         # 4-byte Spill
	movq	%rbp, 248(%rsp)         # 8-byte Spill
	movzbl	(%r11), %eax
	shll	$8, %eax
	movl	20(%rsp), %ecx          # 4-byte Reload
	cmpl	$3, %ecx
	jl	.LBB18_21
# BB#56:                                # %for.body120.preheader.i
	leal	-4(%r13), %r8d
	leal	-1(%r13), %edx
	movslq	%edx, %r9
	addq	%r11, %r9
	movslq	%r8d, %r10
	addq	%r11, %r10
	movq	%r11, %rdi
	movq	%rdi, 128(%rsp)         # 8-byte Spill
	leal	-3(%r13), %r11d
	movslq	%r11d, %r14
	addq	%rdi, %r14
	leal	-2(%r13), %ecx
	movq	%r13, 256(%rsp)         # 8-byte Spill
	movslq	%ecx, %rsi
	addq	%rdi, %rsi
	xorl	%edi, %edi
	movq	32(%rsp), %r13          # 8-byte Reload
	.align	16, 0x90
.LBB18_57:                              # %for.body120.i
                                        # =>This Inner Loop Header: Depth=1
	movzbl	(%r9,%rdi), %ebp
	shrdw	$8, %bp, %ax
	movzwl	%ax, %eax
	movl	(%r15,%rax,4), %ebx
	decl	%ebx
	movl	%ebx, (%r15,%rax,4)
	movslq	%ebx, %rax
	leal	(%rdx,%rdi), %ebx
	movl	%ebx, (%r13,%rax,4)
	movzbl	(%rsi,%rdi), %eax
	movl	%eax, %ebx
	shll	$8, %ebx
	orl	%ebp, %ebx
	movzwl	%bx, %ebx
	movl	(%r15,%rbx,4), %ebp
	decl	%ebp
	movl	%ebp, (%r15,%rbx,4)
	movslq	%ebp, %rbx
	leal	(%rcx,%rdi), %ebp
	movl	%ebp, (%r13,%rbx,4)
	movzbl	(%r14,%rdi), %ebx
	movl	%ebx, %ebp
	shll	$8, %ebp
	orl	%eax, %ebp
	movzwl	%bp, %eax
	movl	(%r15,%rax,4), %ebp
	decl	%ebp
	movl	%ebp, (%r15,%rax,4)
	movslq	%ebp, %rax
	leal	(%r11,%rdi), %ebp
	movl	%ebp, (%r13,%rax,4)
	movzbl	(%r10,%rdi), %eax
	shll	$8, %eax
	orl	%ebx, %eax
	movzwl	%ax, %ebx
	movl	(%r15,%rbx,4), %ebp
	decl	%ebp
	movl	%ebp, (%r15,%rbx,4)
	movslq	%ebp, %rbx
	leal	(%r8,%rdi), %ebp
	movl	%ebp, (%r13,%rbx,4)
	addq	$-4, %rdi
	leal	(%rdx,%rdi), %ebx
	cmpl	$2, %ebx
	jg	.LBB18_57
# BB#24:                                # %for.cond190.preheader.loopexit.i
	andl	$-4, %r8d
	movq	256(%rsp), %rcx         # 8-byte Reload
	leal	-5(%rcx), %ecx
	subl	%r8d, %ecx
	movq	%r13, %r14
	movq	128(%rsp), %r11         # 8-byte Reload
	jmp	.LBB18_25
.LBB18_21:
	movq	%r13, 256(%rsp)         # 8-byte Spill
	movq	32(%rsp), %r14          # 8-byte Reload
.LBB18_25:                              # %for.cond190.preheader.i
	testl	%ecx, %ecx
	js	.LBB18_28
# BB#26:                                # %for.body193.preheader.i
	movslq	%ecx, %rdx
	incq	%rdx
	.align	16, 0x90
.LBB18_27:                              # %for.body193.i
                                        # =>This Inner Loop Header: Depth=1
	movzbl	-1(%r11,%rdx), %esi
	shrdw	$8, %si, %ax
	movzwl	%ax, %esi
	movl	(%r15,%rsi,4), %edi
	decl	%edi
	movl	%edi, (%r15,%rsi,4)
	movslq	%edi, %rsi
	movl	%ecx, (%r14,%rsi,4)
	decl	%ecx
	decq	%rdx
	jg	.LBB18_27
.LBB18_28:                              # %for.body215.preheader.i
	movq	%r11, 128(%rsp)         # 8-byte Spill
	xorps	%xmm0, %xmm0
	movaps	%xmm0, 2560(%rsp)
	movaps	%xmm0, 2544(%rsp)
	movaps	%xmm0, 2528(%rsp)
	movaps	%xmm0, 2512(%rsp)
	movaps	%xmm0, 2496(%rsp)
	movaps	%xmm0, 2480(%rsp)
	movaps	%xmm0, 2464(%rsp)
	movaps	%xmm0, 2448(%rsp)
	movaps	%xmm0, 2432(%rsp)
	movaps	%xmm0, 2416(%rsp)
	movaps	%xmm0, 2400(%rsp)
	movaps	%xmm0, 2384(%rsp)
	movaps	%xmm0, 2368(%rsp)
	movaps	%xmm0, 2352(%rsp)
	movaps	%xmm0, 2336(%rsp)
	movaps	%xmm0, 2320(%rsp)
	xorl	%eax, %eax
	movdqa	.LCPI18_0(%rip), %xmm0  # xmm0 = [0,1,2,3]
	movq	256(%rsp), %r13         # 8-byte Reload
	.align	16, 0x90
.LBB18_29:                              # %vector.body258
                                        # =>This Inner Loop Header: Depth=1
	movd	%eax, %xmm1
	pshufd	$0, %xmm1, %xmm1        # xmm1 = xmm1[0,0,0,0]
	paddd	%xmm0, %xmm1
	movdqa	%xmm1, 2576(%rsp,%rax,4)
	addq	$4, %rax
	cmpq	$256, %rax              # imm = 0x100
	jne	.LBB18_29
# BB#30:
	movl	$364, %r8d              # imm = 0x16C
	.align	16, 0x90
.LBB18_31:                              # %do.body226.i
                                        # =>This Loop Header: Depth=1
                                        #     Child Loop BB18_33 Depth 2
                                        #       Child Loop BB18_34 Depth 3
	movslq	%r8d, %rax
	imulq	$1431655766, %rax, %rcx # imm = 0x55555556
	movq	%rcx, %rdx
	shrq	$63, %rdx
	shrq	$32, %rcx
	addl	%edx, %ecx
	cmpl	$767, %eax              # imm = 0x2FF
	jg	.LBB18_38
# BB#32:                                # %for.body230.preheader.i
                                        #   in Loop: Header=BB18_31 Depth=1
	movslq	%ecx, %r11
	xorl	%r10d, %r10d
	.align	16, 0x90
.LBB18_33:                              # %for.body230.i
                                        #   Parent Loop BB18_31 Depth=1
                                        # =>  This Loop Header: Depth=2
                                        #       Child Loop BB18_34 Depth 3
	movl	2576(%rsp,%r11,4), %r9d
	movl	%r9d, %eax
	shll	$8, %eax
	leal	256(%rax), %edi
	movslq	%edi, %rdi
	movl	(%r15,%rdi,4), %ebp
	cltq
	subl	(%r15,%rax,4), %ebp
	movl	%r10d, %ebx
	.align	16, 0x90
.LBB18_34:                              # %while.cond.i
                                        #   Parent Loop BB18_31 Depth=1
                                        #     Parent Loop BB18_33 Depth=2
                                        # =>    This Inner Loop Header: Depth=3
	leal	(%rcx,%rbx), %eax
	movslq	%ebx, %rdi
	movl	2576(%rsp,%rdi,4), %edi
	movl	%edi, %esi
	shll	$8, %esi
	leal	256(%rsi), %edx
	movslq	%edx, %rdx
	movl	(%r15,%rdx,4), %edx
	movslq	%esi, %rsi
	subl	(%r15,%rsi,4), %edx
	cmpl	%ebp, %edx
	jbe	.LBB18_37
# BB#35:                                # %while.body.i
                                        #   in Loop: Header=BB18_34 Depth=3
	cltq
	movl	%edi, 2576(%rsp,%rax,4)
	subl	%ecx, %ebx
	jge	.LBB18_34
# BB#36:                                # %zero.isplit
                                        #   in Loop: Header=BB18_33 Depth=2
	addl	%ecx, %ebx
	movl	%ebx, %eax
.LBB18_37:                              # %zero.i
                                        #   in Loop: Header=BB18_33 Depth=2
	cltq
	movl	%r9d, 2576(%rsp,%rax,4)
	incq	%r11
	incl	%r10d
	cmpq	$256, %r11              # imm = 0x100
	jl	.LBB18_33
.LBB18_38:                              # %do.cond273.i
                                        #   in Loop: Header=BB18_31 Depth=1
	addl	$-3, %r8d
	cmpl	$2, %r8d
	movl	%ecx, %r8d
	ja	.LBB18_31
# BB#39:                                # %for.cond277.preheader.i
	leaq	4(%r15), %rax
	movq	%rax, 24(%rsp)          # 8-byte Spill
	movl	$-2097153, %r12d        # imm = 0xFFFFFFFFFFDFFFFF
	movq	8(%rsp), %rax           # 8-byte Reload
	movl	%eax, 204(%rsp)         # 4-byte Spill
	xorl	%edx, %edx
	movl	$0, 124(%rsp)           # 4-byte Folded Spill
	movq	%r14, %r10
	movq	128(%rsp), %r11         # 8-byte Reload
	movl	68(%rsp), %edi          # 4-byte Reload
	.align	16, 0x90
.LBB18_40:                              # %for.body280.i
                                        # =>This Loop Header: Depth=1
                                        #     Child Loop BB18_41 Depth 2
                                        #       Child Loop BB18_47 Depth 3
                                        #         Child Loop BB18_48 Depth 4
                                        #           Child Loop BB18_92 Depth 5
                                        #             Child Loop BB18_94 Depth 6
                                        #               Child Loop BB18_95 Depth 7
                                        #             Child Loop BB18_103 Depth 6
                                        #         Child Loop BB18_121 Depth 4
                                        #         Child Loop BB18_124 Depth 4
                                        #         Child Loop BB18_133 Depth 4
                                        #         Child Loop BB18_136 Depth 4
                                        #         Child Loop BB18_53 Depth 4
                                        #         Child Loop BB18_59 Depth 4
                                        #           Child Loop BB18_60 Depth 5
                                        #             Child Loop BB18_62 Depth 6
                                        #             Child Loop BB18_68 Depth 6
                                        #             Child Loop BB18_74 Depth 6
                                        #     Child Loop BB18_144 Depth 2
                                        #     Child Loop BB18_148 Depth 2
                                        #     Child Loop BB18_152 Depth 2
                                        #     Child Loop BB18_161 Depth 2
                                        #     Child Loop BB18_164 Depth 2
                                        #     Child Loop BB18_167 Depth 2
	movq	%rdx, 88(%rsp)          # 8-byte Spill
	movl	2576(%rsp,%rdx,4), %ecx
	movq	%rdx, %r14
	movq	%rcx, 80(%rsp)          # 8-byte Spill
	movslq	%ecx, %r9
	movq	%r9, 56(%rsp)           # 8-byte Spill
	movl	%r9d, %eax
	shll	$8, %eax
	movl	%eax, 44(%rsp)          # 4-byte Spill
	movslq	%eax, %rbx
	movq	%rbx, 72(%rsp)          # 8-byte Spill
	xorl	%edx, %edx
	jmp	.LBB18_41
.LBB18_45:                              # %if.then308.i
                                        #   in Loop: Header=BB18_41 Depth=2
	movq	stderr(%rip), %rdi
	movl	$1, %r9d
	subl	%ebp, %r9d
	addl	140(%rsp), %r9d         # 4-byte Folded Reload
	movl	$.L.str.7.4, %esi
	xorl	%eax, %eax
	movq	80(%rsp), %rdx          # 8-byte Reload
	movq	112(%rsp), %rcx         # 8-byte Reload
	movl	124(%rsp), %r8d         # 4-byte Reload
	movq	%r10, %rbx
	movl	%ebp, %r14d
	movq	%r11, %rbp
	callq	fprintf
	movq	%rbp, %r11
	movl	%r14d, %ebp
	movq	%rbx, %r10
	jmp	.LBB18_46
	.align	16, 0x90
.LBB18_41:                              # %for.body286.i
                                        #   Parent Loop BB18_40 Depth=1
                                        # =>  This Loop Header: Depth=2
                                        #       Child Loop BB18_47 Depth 3
                                        #         Child Loop BB18_48 Depth 4
                                        #           Child Loop BB18_92 Depth 5
                                        #             Child Loop BB18_94 Depth 6
                                        #               Child Loop BB18_95 Depth 7
                                        #             Child Loop BB18_103 Depth 6
                                        #         Child Loop BB18_121 Depth 4
                                        #         Child Loop BB18_124 Depth 4
                                        #         Child Loop BB18_133 Depth 4
                                        #         Child Loop BB18_136 Depth 4
                                        #         Child Loop BB18_53 Depth 4
                                        #         Child Loop BB18_59 Depth 4
                                        #           Child Loop BB18_60 Depth 5
                                        #             Child Loop BB18_62 Depth 6
                                        #             Child Loop BB18_68 Depth 6
                                        #             Child Loop BB18_74 Depth 6
	cmpq	%rcx, %rdx
	je	.LBB18_140
# BB#42:                                # %if.then289.i
                                        #   in Loop: Header=BB18_41 Depth=2
	leaq	(%rdx,%rbx), %rsi
	movl	(%r15,%rsi,4), %eax
	testl	$2097152, %eax          # imm = 0x200000
	jne	.LBB18_139
# BB#43:                                # %if.then294.i
                                        #   in Loop: Header=BB18_41 Depth=2
	movl	%eax, %ebp
	andl	$-2097153, %ebp         # imm = 0xFFFFFFFFFFDFFFFF
	movl	4(%r15,%rsi,4), %r8d
	andl	%r12d, %r8d
	decl	%r8d
	movl	%r8d, 140(%rsp)         # 4-byte Spill
	cmpl	%ebp, %r8d
	jle	.LBB18_139
# BB#44:                                # %if.then305.i
                                        #   in Loop: Header=BB18_41 Depth=2
	movq	%rsi, 104(%rsp)         # 8-byte Spill
	movq	%rdx, 112(%rsp)         # 8-byte Spill
	cmpl	$4, %edi
	jge	.LBB18_45
.LBB18_46:                              # %if.end312.i
                                        #   in Loop: Header=BB18_41 Depth=2
	movl	%ebp, 100(%rsp)         # 4-byte Spill
	movl	%ebp, 4400(%rsp)
	movl	140(%rsp), %eax         # 4-byte Reload
	movl	%eax, 4000(%rsp)
	movl	$2, 3600(%rsp)
	movl	$1, %ecx
	movl	204(%rsp), %eax         # 4-byte Reload
	.align	16, 0x90
.LBB18_47:                              # %while.body.lr.ph.i.i
                                        #   Parent Loop BB18_40 Depth=1
                                        #     Parent Loop BB18_41 Depth=2
                                        # =>    This Loop Header: Depth=3
                                        #         Child Loop BB18_48 Depth 4
                                        #           Child Loop BB18_92 Depth 5
                                        #             Child Loop BB18_94 Depth 6
                                        #               Child Loop BB18_95 Depth 7
                                        #             Child Loop BB18_103 Depth 6
                                        #         Child Loop BB18_121 Depth 4
                                        #         Child Loop BB18_124 Depth 4
                                        #         Child Loop BB18_133 Depth 4
                                        #         Child Loop BB18_136 Depth 4
                                        #         Child Loop BB18_53 Depth 4
                                        #         Child Loop BB18_59 Depth 4
                                        #           Child Loop BB18_60 Depth 5
                                        #             Child Loop BB18_62 Depth 6
                                        #             Child Loop BB18_68 Depth 6
                                        #             Child Loop BB18_74 Depth 6
	movq	%rcx, 216(%rsp)         # 8-byte Spill
	movl	%eax, 204(%rsp)         # 4-byte Spill
	leal	-1(%rcx), %eax
	movl	%eax, 180(%rsp)         # 4-byte Spill
	movslq	%ecx, %rax
	movq	%rax, 192(%rsp)         # 8-byte Spill
	leaq	-1(%rax), %rbx
	movq	%rbx, 208(%rsp)         # 8-byte Spill
	movl	4396(%rsp,%rax,4), %r13d
	movslq	%r13d, %rdx
	movq	%rdx, 232(%rsp)         # 8-byte Spill
	movl	3996(%rsp,%rax,4), %eax
	movq	%rax, 240(%rsp)         # 8-byte Spill
	movl	%eax, %r15d
	subl	%edx, %r15d
	movslq	%eax, %rdx
	movq	%rdx, 224(%rsp)         # 8-byte Spill
	leal	(%rax,%r13), %eax
	sarl	%eax
	movslq	%eax, %r14
	jmp	.LBB18_48
	.align	16, 0x90
.LBB18_111:                             # %if.then120.i.i
                                        #   in Loop: Header=BB18_48 Depth=4
	incl	%r9d
	movq	208(%rsp), %rbx         # 8-byte Reload
	movl	%r9d, 3600(%rsp,%rbx,4)
	movq	216(%rsp), %rcx         # 8-byte Reload
.LBB18_48:                              # %while.body.i.i
                                        #   Parent Loop BB18_40 Depth=1
                                        #     Parent Loop BB18_41 Depth=2
                                        #       Parent Loop BB18_47 Depth=3
                                        # =>      This Loop Header: Depth=4
                                        #           Child Loop BB18_92 Depth 5
                                        #             Child Loop BB18_94 Depth 6
                                        #               Child Loop BB18_95 Depth 7
                                        #             Child Loop BB18_103 Depth 6
	cmpl	$100, %ecx
	jl	.LBB18_50
# BB#49:                                # %if.then.i.i
                                        #   in Loop: Header=BB18_48 Depth=4
	movl	$1001, %edi             # imm = 0x3E9
	movq	%r10, %r12
	movq	%r11, %rbp
	callq	BZ2_bz__AssertH__fail
	movq	%rbp, %r11
	movq	%r12, %r10
.LBB18_50:                              # %if.end.i.i
                                        #   in Loop: Header=BB18_48 Depth=4
	cmpl	$20, %r15d
	movl	3600(%rsp,%rbx,4), %r9d
	jl	.LBB18_52
# BB#51:                                # %if.end.i.i
                                        #   in Loop: Header=BB18_48 Depth=4
	cmpl	$15, %r9d
	jge	.LBB18_52
# BB#84:                                # %if.end18.i.i
                                        #   in Loop: Header=BB18_48 Depth=4
	movq	232(%rsp), %rax         # 8-byte Reload
	movl	(%r10,%rax,4), %eax
	addl	%r9d, %eax
	movzbl	(%r11,%rax), %edi
	movq	224(%rsp), %rax         # 8-byte Reload
	movl	(%r10,%rax,4), %eax
	addl	%r9d, %eax
	movzbl	(%r11,%rax), %edx
	movl	(%r10,%r14,4), %eax
	addl	%r9d, %eax
	movzbl	(%r11,%rax), %eax
	cmpl	%edx, %edi
	ja	.LBB18_85
# BB#86:                                # %if.end18.i.i
                                        #   in Loop: Header=BB18_48 Depth=4
	movb	%dl, %cl
	jmp	.LBB18_87
	.align	16, 0x90
.LBB18_85:                              #   in Loop: Header=BB18_48 Depth=4
	movb	%dil, %cl
	movb	%dl, %dil
.LBB18_87:                              # %if.end18.i.i
                                        #   in Loop: Header=BB18_48 Depth=4
	movzbl	%cl, %edx
	movzbl	%dil, %esi
	cmpl	%eax, %esi
	ja	.LBB18_89
# BB#88:                                # %if.end18.i.i
                                        #   in Loop: Header=BB18_48 Depth=4
	movb	%al, %dil
.LBB18_89:                              # %if.end18.i.i
                                        #   in Loop: Header=BB18_48 Depth=4
	cmpl	%eax, %edx
	ja	.LBB18_91
# BB#90:                                # %if.end18.i.i
                                        #   in Loop: Header=BB18_48 Depth=4
	movb	%cl, %dil
.LBB18_91:                              # %if.end18.i.i
                                        #   in Loop: Header=BB18_48 Depth=4
	movq	240(%rsp), %rax         # 8-byte Reload
	movl	%eax, %r8d
	movl	%r13d, %r12d
	movl	%eax, %esi
	movl	%r13d, %eax
	jmp	.LBB18_92
	.align	16, 0x90
.LBB18_193:                             # %if.end105.i.i
                                        #   in Loop: Header=BB18_92 Depth=5
	movl	(%r10,%rcx,4), %edx
	movl	%esi, (%r10,%rcx,4)
	movl	%edx, (%r10,%rbx,4)
	incl	%eax
	decl	%ebx
	movl	%ebx, %esi
.LBB18_92:                              # %while.body37.outer.i.i
                                        #   Parent Loop BB18_40 Depth=1
                                        #     Parent Loop BB18_41 Depth=2
                                        #       Parent Loop BB18_47 Depth=3
                                        #         Parent Loop BB18_48 Depth=4
                                        # =>        This Loop Header: Depth=5
                                        #             Child Loop BB18_94 Depth 6
                                        #               Child Loop BB18_95 Depth 7
                                        #             Child Loop BB18_103 Depth 6
	cmpl	%esi, %eax
	jg	.LBB18_100
# BB#93:                                # %if.end41.lr.ph.preheader.i.i
                                        #   in Loop: Header=BB18_92 Depth=5
	movslq	%esi, %rbx
	movslq	%r12d, %r12
.LBB18_94:                              # %if.end41.lr.ph.i.i
                                        #   Parent Loop BB18_40 Depth=1
                                        #     Parent Loop BB18_41 Depth=2
                                        #       Parent Loop BB18_47 Depth=3
                                        #         Parent Loop BB18_48 Depth=4
                                        #           Parent Loop BB18_92 Depth=5
                                        # =>          This Loop Header: Depth=6
                                        #               Child Loop BB18_95 Depth 7
	movslq	%eax, %rcx
	.align	16, 0x90
.LBB18_95:                              # %if.end41.i.i
                                        #   Parent Loop BB18_40 Depth=1
                                        #     Parent Loop BB18_41 Depth=2
                                        #       Parent Loop BB18_47 Depth=3
                                        #         Parent Loop BB18_48 Depth=4
                                        #           Parent Loop BB18_92 Depth=5
                                        #             Parent Loop BB18_94 Depth=6
                                        # =>            This Inner Loop Header: Depth=7
	movl	(%r10,%rcx,4), %eax
	leal	(%rax,%r9), %edx
	movzbl	(%r11,%rdx), %ebp
	movzbl	%dil, %edx
	cmpl	%edx, %ebp
	je	.LBB18_96
# BB#98:                                # %if.end62.i.i
                                        #   in Loop: Header=BB18_95 Depth=7
	movzbl	%bpl, %eax
	cmpl	%edx, %eax
	ja	.LBB18_99
# BB#102:                               # %if.end66.i.i
                                        #   in Loop: Header=BB18_95 Depth=7
	cmpq	%rbx, %rcx
	leaq	1(%rcx), %rcx
	jl	.LBB18_95
	jmp	.LBB18_99
	.align	16, 0x90
.LBB18_96:                              # %if.then51.i.i
                                        #   in Loop: Header=BB18_94 Depth=6
	movl	(%r10,%r12,4), %edx
	movl	%edx, (%r10,%rcx,4)
	movl	%eax, (%r10,%r12,4)
	incq	%r12
	leal	1(%rcx), %eax
	cmpl	%esi, %ecx
	jl	.LBB18_94
# BB#97:                                # %while.body69.preheader.i.i.loopexit
                                        #   in Loop: Header=BB18_92 Depth=5
	incl	%ecx
	.align	16, 0x90
.LBB18_99:                              # %while.body69.preheader.i.i
                                        #   in Loop: Header=BB18_92 Depth=5
	movl	%ecx, %eax
.LBB18_100:                             # %while.body69.preheader.i.i
                                        #   in Loop: Header=BB18_92 Depth=5
	cmpl	%esi, %eax
	jg	.LBB18_110
# BB#101:                               # %if.end73.lr.ph.preheader.i.i
                                        #   in Loop: Header=BB18_92 Depth=5
	movslq	%eax, %rcx
	movslq	%r8d, %r8
	movslq	%esi, %rbx
	jmp	.LBB18_103
.LBB18_105:                             # %if.end73.lr.ph.i.i
                                        #   in Loop: Header=BB18_103 Depth=6
	movslq	%esi, %rbx
	.align	16, 0x90
.LBB18_103:                             # %if.end73.i.i
                                        #   Parent Loop BB18_40 Depth=1
                                        #     Parent Loop BB18_41 Depth=2
                                        #       Parent Loop BB18_47 Depth=3
                                        #         Parent Loop BB18_48 Depth=4
                                        #           Parent Loop BB18_92 Depth=5
                                        # =>          This Inner Loop Header: Depth=6
	movl	(%r10,%rbx,4), %esi
	leal	(%rsi,%r9), %edx
	movzbl	(%r11,%rdx), %edx
	movzbl	%dil, %ebp
	cmpl	%ebp, %edx
	je	.LBB18_104
# BB#106:                               # %if.end95.i.i
                                        #   in Loop: Header=BB18_103 Depth=6
	movzbl	%dl, %edx
	cmpl	%ebp, %edx
	jb	.LBB18_193
# BB#107:                               # %if.end99.i.i
                                        #   in Loop: Header=BB18_103 Depth=6
	cmpq	%rbx, %rcx
	leaq	-1(%rbx), %rbx
	jl	.LBB18_103
	jmp	.LBB18_109
.LBB18_104:                             # %if.then83.i.i
                                        #   in Loop: Header=BB18_103 Depth=6
	movl	(%r10,%r8,4), %edx
	movl	%edx, (%r10,%rbx,4)
	movl	%esi, (%r10,%r8,4)
	decq	%r8
	leal	-1(%rbx), %esi
	cmpl	%ebx, %eax
	jl	.LBB18_105
# BB#108:                               # %while.end117.i.i.loopexit
                                        #   in Loop: Header=BB18_48 Depth=4
	decl	%ebx
	.align	16, 0x90
.LBB18_109:                             # %while.end117.i.i
                                        #   in Loop: Header=BB18_48 Depth=4
	movl	%ebx, %esi
.LBB18_110:                             # %while.end117.i.i
                                        #   in Loop: Header=BB18_48 Depth=4
	cmpl	%r12d, %r8d
	jl	.LBB18_111
# BB#112:                               # %if.end129.i.i
                                        #   in Loop: Header=BB18_47 Depth=3
	movq	%r9, 224(%rsp)          # 8-byte Spill
	movl	%r12d, %ecx
	subl	%r13d, %ecx
	movl	%eax, %edi
	subl	%r12d, %edi
	cmpl	%edi, %ecx
	cmovlel	%ecx, %edi
	testl	%edi, %edi
	movq	232(%rsp), %r14         # 8-byte Reload
	jle	.LBB18_125
# BB#113:                               # %while.body140.preheader.i.i
                                        #   in Loop: Header=BB18_47 Depth=3
	movq	%r10, %r15
	leal	-1(%r13), %r11d
	subl	%r12d, %r11d
	leal	-1(%r12), %ebp
	subl	%eax, %ebp
	cmpl	%ebp, %r11d
	movl	%ebp, %ecx
	cmovgel	%r11d, %ecx
	leal	1(%rax,%rcx), %ecx
	movslq	%ecx, %rbx
	cmpl	%r11d, %ebp
	movl	%r11d, %ecx
	cmovgel	%ebp, %ecx
	cmpl	$-3, %ecx
	movl	$-2, %r10d
	cmovgl	%ecx, %r10d
	subl	%ecx, %r10d
	incq	%r10
	cmpq	$4, %r10
	jae	.LBB18_115
# BB#114:                               #   in Loop: Header=BB18_47 Depth=3
	movq	%r15, %r10
	jmp	.LBB18_123
	.align	16, 0x90
.LBB18_52:                              # %if.then14.i.i
                                        #   in Loop: Header=BB18_47 Depth=3
	leal	1(%r15), %eax
	cmpl	$2, %eax
	movabsq	$-4294967296, %rax      # imm = 0xFFFFFFFF00000000
	movq	%rax, %rdx
	movl	$0, %eax
	movabsq	$4294967296, %rcx       # imm = 0x100000000
	jl	.LBB18_80
	.align	16, 0x90
.LBB18_53:                              # %while.cond.i.i.i
                                        #   Parent Loop BB18_40 Depth=1
                                        #     Parent Loop BB18_41 Depth=2
                                        #       Parent Loop BB18_47 Depth=3
                                        # =>      This Inner Loop Header: Depth=4
	addq	%rcx, %rdx
	cmpl	%r15d, incs(,%rax,4)
	leaq	1(%rax), %rax
	jle	.LBB18_53
# BB#54:                                # %for.cond.preheader.i.i.i
                                        #   in Loop: Header=BB18_47 Depth=3
	decl	%eax
	testl	%eax, %eax
	jle	.LBB18_80
# BB#55:                                # %for.body.preheader.i.i.i
                                        #   in Loop: Header=BB18_47 Depth=3
	sarq	$32, %rdx
	movq	%r13, 152(%rsp)         # 8-byte Spill
	leal	1(%r13), %eax
	movl	%eax, 148(%rsp)         # 4-byte Spill
	leal	2(%r13), %eax
	movl	%eax, 144(%rsp)         # 4-byte Spill
.LBB18_59:                              # %for.body.i.i.i
                                        #   Parent Loop BB18_40 Depth=1
                                        #     Parent Loop BB18_41 Depth=2
                                        #       Parent Loop BB18_47 Depth=3
                                        # =>      This Loop Header: Depth=4
                                        #           Child Loop BB18_60 Depth 5
                                        #             Child Loop BB18_62 Depth 6
                                        #             Child Loop BB18_68 Depth 6
                                        #             Child Loop BB18_74 Depth 6
	movq	%rdx, 160(%rsp)         # 8-byte Spill
	leaq	-1(%rdx), %rax
	movq	%rax, 168(%rsp)         # 8-byte Spill
	movl	incs-4(,%rdx,4), %r12d
	movq	152(%rsp), %rax         # 8-byte Reload
	leal	(%r12,%rax), %ecx
	movl	%ecx, 240(%rsp)         # 4-byte Spill
	movslq	%ecx, %rcx
	movl	144(%rsp), %edx         # 4-byte Reload
	movl	%edx, 192(%rsp)         # 4-byte Spill
	movl	148(%rsp), %edx         # 4-byte Reload
	movl	%edx, 204(%rsp)         # 4-byte Spill
	movl	%eax, 208(%rsp)         # 4-byte Spill
	.align	16, 0x90
.LBB18_60:                              # %while.body7.i.i.i
                                        #   Parent Loop BB18_40 Depth=1
                                        #     Parent Loop BB18_41 Depth=2
                                        #       Parent Loop BB18_47 Depth=3
                                        #         Parent Loop BB18_59 Depth=4
                                        # =>        This Loop Header: Depth=5
                                        #             Child Loop BB18_62 Depth 6
                                        #             Child Loop BB18_68 Depth 6
                                        #             Child Loop BB18_74 Depth 6
	cmpq	224(%rsp), %rcx         # 8-byte Folded Reload
	jg	.LBB18_58
# BB#61:                                # %if.end10.i.i.i
                                        #   in Loop: Header=BB18_60 Depth=5
	movl	(%r10,%rcx,4), %eax
	movq	%rax, 184(%rsp)         # 8-byte Spill
	movq	%rcx, 216(%rsp)         # 8-byte Spill
	leal	(%rax,%r9), %eax
	movl	%eax, 232(%rsp)         # 4-byte Spill
	movl	208(%rsp), %eax         # 4-byte Reload
	.align	16, 0x90
.LBB18_62:                              # %while.cond13.i.i.i
                                        #   Parent Loop BB18_40 Depth=1
                                        #     Parent Loop BB18_41 Depth=2
                                        #       Parent Loop BB18_47 Depth=3
                                        #         Parent Loop BB18_59 Depth=4
                                        #           Parent Loop BB18_60 Depth=5
                                        # =>          This Inner Loop Header: Depth=6
	leal	(%r12,%rax), %ebp
	movslq	%eax, %r15
	movl	(%r10,%r15,4), %edi
	addl	%r9d, %edi
	movq	%r9, %r14
	movl	232(%rsp), %esi         # 4-byte Reload
	movq	%r11, %rdx
	movq	%r11, %r13
	movq	248(%rsp), %rcx         # 8-byte Reload
	movq	256(%rsp), %r8          # 8-byte Reload
	leaq	268(%rsp), %r9
	movq	%r10, %rbx
	callq	mainGtU
	testb	%al, %al
	je	.LBB18_65
# BB#63:                                # %while.body19.i.i.i
                                        #   in Loop: Header=BB18_62 Depth=6
	movl	(%rbx,%r15,4), %eax
	movslq	%ebp, %rcx
	movl	%eax, (%rbx,%rcx,4)
	movl	%r15d, %eax
	subl	%r12d, %eax
	cmpl	240(%rsp), %r15d        # 4-byte Folded Reload
	movq	%rbx, %r10
	movq	%r13, %r11
	movq	%r14, %r9
	jge	.LBB18_62
# BB#64:                                # %while.end31.i.i.isplit
                                        #   in Loop: Header=BB18_60 Depth=5
	addl	%r12d, %eax
	movl	%eax, %ebp
	jmp	.LBB18_66
	.align	16, 0x90
.LBB18_65:                              # %while.cond13.i.i.i.while.end31.i.i.i_crit_edge
                                        #   in Loop: Header=BB18_60 Depth=5
	movq	%rbx, %r10
	movq	%r13, %r11
	movq	%r14, %r9
.LBB18_66:                              # %while.end31.i.i.i
                                        #   in Loop: Header=BB18_60 Depth=5
	movq	216(%rsp), %rcx         # 8-byte Reload
	movslq	%ebp, %rax
	movq	184(%rsp), %rdx         # 8-byte Reload
	movl	%edx, (%r10,%rax,4)
	cmpq	224(%rsp), %rcx         # 8-byte Folded Reload
	jge	.LBB18_58
# BB#67:                                # %if.end37.i.i.i
                                        #   in Loop: Header=BB18_60 Depth=5
	movl	4(%r10,%rcx,4), %eax
	movq	%rax, 184(%rsp)         # 8-byte Spill
	leal	(%rax,%r9), %eax
	movl	%eax, 232(%rsp)         # 4-byte Spill
	movl	204(%rsp), %eax         # 4-byte Reload
	.align	16, 0x90
.LBB18_68:                              # %while.cond40.i.i.i
                                        #   Parent Loop BB18_40 Depth=1
                                        #     Parent Loop BB18_41 Depth=2
                                        #       Parent Loop BB18_47 Depth=3
                                        #         Parent Loop BB18_59 Depth=4
                                        #           Parent Loop BB18_60 Depth=5
                                        # =>          This Inner Loop Header: Depth=6
	leal	(%r12,%rax), %r14d
	movslq	%eax, %rbx
	movl	(%r10,%rbx,4), %edi
	addl	%r9d, %edi
	movq	%r9, %r15
	movl	232(%rsp), %esi         # 4-byte Reload
	movq	%r11, %rdx
	movq	%r11, %r13
	movq	248(%rsp), %rcx         # 8-byte Reload
	movq	256(%rsp), %r8          # 8-byte Reload
	leaq	268(%rsp), %r9
	movq	%r10, %rbp
	callq	mainGtU
	testb	%al, %al
	je	.LBB18_71
# BB#69:                                # %while.body48.i.i.i
                                        #   in Loop: Header=BB18_68 Depth=6
	movl	(%rbp,%rbx,4), %eax
	movslq	%r14d, %rcx
	movl	%eax, (%rbp,%rcx,4)
	movl	%ebx, %eax
	subl	%r12d, %eax
	cmpl	240(%rsp), %ebx         # 4-byte Folded Reload
	movq	%rbp, %r10
	movq	%r13, %r11
	movq	%r15, %r9
	jge	.LBB18_68
# BB#70:                                # %while.end60.i.i.isplit
                                        #   in Loop: Header=BB18_60 Depth=5
	addl	%r12d, %eax
	movl	%eax, %r14d
	jmp	.LBB18_72
	.align	16, 0x90
.LBB18_71:                              # %while.cond40.i.i.i.while.end60.i.i.i_crit_edge
                                        #   in Loop: Header=BB18_60 Depth=5
	movq	%rbp, %r10
	movq	%r13, %r11
	movq	%r15, %r9
.LBB18_72:                              # %while.end60.i.i.i
                                        #   in Loop: Header=BB18_60 Depth=5
	movq	216(%rsp), %rcx         # 8-byte Reload
	movq	184(%rsp), %rdx         # 8-byte Reload
	movslq	%r14d, %rax
	movl	%edx, (%r10,%rax,4)
	leaq	2(%rcx), %rax
	cmpq	224(%rsp), %rax         # 8-byte Folded Reload
	jg	.LBB18_58
# BB#73:                                # %if.end66.i.i.i
                                        #   in Loop: Header=BB18_60 Depth=5
	movl	8(%r10,%rcx,4), %eax
	movq	%rax, 184(%rsp)         # 8-byte Spill
	leal	(%rax,%r9), %eax
	movl	%eax, 232(%rsp)         # 4-byte Spill
	movl	192(%rsp), %eax         # 4-byte Reload
	.align	16, 0x90
.LBB18_74:                              # %while.cond69.i.i.i
                                        #   Parent Loop BB18_40 Depth=1
                                        #     Parent Loop BB18_41 Depth=2
                                        #       Parent Loop BB18_47 Depth=3
                                        #         Parent Loop BB18_59 Depth=4
                                        #           Parent Loop BB18_60 Depth=5
                                        # =>          This Inner Loop Header: Depth=6
	leal	(%r12,%rax), %r14d
	movslq	%eax, %rbx
	movl	(%r10,%rbx,4), %edi
	addl	%r9d, %edi
	movq	%r9, %r15
	movl	232(%rsp), %esi         # 4-byte Reload
	movq	%r11, %rdx
	movq	%r11, %r13
	movq	248(%rsp), %rcx         # 8-byte Reload
	movq	256(%rsp), %r8          # 8-byte Reload
	leaq	268(%rsp), %r9
	movq	%r10, %rbp
	callq	mainGtU
	testb	%al, %al
	je	.LBB18_77
# BB#75:                                # %while.body77.i.i.i
                                        #   in Loop: Header=BB18_74 Depth=6
	movl	(%rbp,%rbx,4), %eax
	movslq	%r14d, %rcx
	movl	%eax, (%rbp,%rcx,4)
	movl	%ebx, %eax
	subl	%r12d, %eax
	cmpl	240(%rsp), %ebx         # 4-byte Folded Reload
	movq	%rbp, %r10
	movq	%r13, %r11
	movq	%r15, %r9
	jge	.LBB18_74
# BB#76:                                # %while.end89.i.i.isplit
                                        #   in Loop: Header=BB18_60 Depth=5
	addl	%r12d, %eax
	movl	%eax, %r14d
	jmp	.LBB18_78
	.align	16, 0x90
.LBB18_77:                              # %while.cond69.i.i.i.while.end89.i.i.i_crit_edge
                                        #   in Loop: Header=BB18_60 Depth=5
	movq	%rbp, %r10
	movq	%r13, %r11
	movq	%r15, %r9
.LBB18_78:                              # %while.end89.i.i.i
                                        #   in Loop: Header=BB18_60 Depth=5
	movq	216(%rsp), %rcx         # 8-byte Reload
	movq	184(%rsp), %rdx         # 8-byte Reload
	movslq	%r14d, %rax
	movl	%edx, (%r10,%rax,4)
	movl	268(%rsp), %eax
	addq	$3, %rcx
	addl	$3, 208(%rsp)           # 4-byte Folded Spill
	addl	$3, 204(%rsp)           # 4-byte Folded Spill
	addl	$3, 192(%rsp)           # 4-byte Folded Spill
	testl	%eax, %eax
	jns	.LBB18_60
	jmp	.LBB18_82
	.align	16, 0x90
.LBB18_58:                              # %for.cond.loopexit.i.i.i
                                        #   in Loop: Header=BB18_59 Depth=4
	cmpq	$2, 160(%rsp)           # 8-byte Folded Reload
	movq	168(%rsp), %rdx         # 8-byte Reload
	jge	.LBB18_59
# BB#79:                                # %mainSimpleSort.exit.i.i.loopexit
                                        #   in Loop: Header=BB18_47 Depth=3
	movl	268(%rsp), %eax
	movl	%eax, 204(%rsp)         # 4-byte Spill
	.align	16, 0x90
.LBB18_80:                              # %mainSimpleSort.exit.i.i
                                        #   in Loop: Header=BB18_47 Depth=3
	movl	204(%rsp), %eax         # 4-byte Reload
	testl	%eax, %eax
	jns	.LBB18_81
	jmp	.LBB18_82
.LBB18_115:                             # %min.iters.checked326
                                        #   in Loop: Header=BB18_47 Depth=3
	movq	%r10, %r9
	movabsq	$8589934588, %rcx       # imm = 0x1FFFFFFFC
	andq	%rcx, %r9
	je	.LBB18_116
# BB#117:                               # %vector.memcheck346
                                        #   in Loop: Header=BB18_47 Depth=3
	movq	%rbx, 184(%rsp)         # 8-byte Spill
	leaq	(%r15,%r14,4), %rbx
	cmpl	%r11d, %ebp
	movl	%r11d, %edx
	cmovgel	%ebp, %edx
	cmpl	$-3, %edx
	movl	$-2, %ecx
	cmovgl	%edx, %ecx
	subl	%edx, %ecx
	leal	1(%rax,%rdx), %edx
	movslq	%edx, %r14
	leaq	(%r14,%rcx), %rdx
	leaq	(%r15,%rdx,4), %rdx
	cmpq	%rdx, %rbx
	ja	.LBB18_120
# BB#118:                               # %vector.memcheck346
                                        #   in Loop: Header=BB18_47 Depth=3
	addq	232(%rsp), %rcx         # 8-byte Folded Reload
	leaq	(%r15,%rcx,4), %rcx
	leaq	(%r15,%r14,4), %rdx
	cmpq	%rcx, %rdx
	ja	.LBB18_120
# BB#119:                               #   in Loop: Header=BB18_47 Depth=3
	movq	%r15, %r10
	movq	232(%rsp), %r14         # 8-byte Reload
	movq	184(%rsp), %rbx         # 8-byte Reload
	jmp	.LBB18_123
.LBB18_116:                             #   in Loop: Header=BB18_47 Depth=3
	movq	%r15, %r10
	jmp	.LBB18_123
.LBB18_120:                             # %vector.body319.preheader
                                        #   in Loop: Header=BB18_47 Depth=3
	movq	232(%rsp), %r14         # 8-byte Reload
	addq	%r9, %r14
	addq	%r9, 184(%rsp)          # 8-byte Folded Spill
	subl	%r9d, %edi
	cmpl	%r11d, %ebp
	cmovgel	%ebp, %r11d
	cmpl	$-3, %r11d
	movl	$-2, %ecx
	cmovgl	%r11d, %ecx
	subl	%r11d, %ecx
	incq	%rcx
	movabsq	$8589934588, %rdx       # imm = 0x1FFFFFFFC
	andq	%rdx, %rcx
	leal	1(%rax,%r11), %edx
	movslq	%edx, %rdx
	leaq	(%r15,%rdx,4), %rbp
	.align	16, 0x90
.LBB18_121:                             # %vector.body319
                                        #   Parent Loop BB18_40 Depth=1
                                        #     Parent Loop BB18_41 Depth=2
                                        #       Parent Loop BB18_47 Depth=3
                                        # =>      This Inner Loop Header: Depth=4
	movdqu	(%rbx), %xmm0
	movdqu	(%rbp), %xmm1
	movdqu	%xmm1, (%rbx)
	movdqu	%xmm0, (%rbp)
	addq	$16, %rbp
	addq	$16, %rbx
	addq	$-4, %rcx
	jne	.LBB18_121
# BB#122:                               # %middle.block320
                                        #   in Loop: Header=BB18_47 Depth=3
	cmpq	%r9, %r10
	movq	%r15, %r10
	movq	184(%rsp), %rbx         # 8-byte Reload
	je	.LBB18_125
	.align	16, 0x90
.LBB18_123:                             # %while.body140.i.i.preheader
                                        #   in Loop: Header=BB18_47 Depth=3
	leaq	(%r10,%r14,4), %rcx
	leaq	(%r10,%rbx,4), %rbp
	incl	%edi
	.align	16, 0x90
.LBB18_124:                             # %while.body140.i.i
                                        #   Parent Loop BB18_40 Depth=1
                                        #     Parent Loop BB18_41 Depth=2
                                        #       Parent Loop BB18_47 Depth=3
                                        # =>      This Inner Loop Header: Depth=4
	movl	(%rcx), %edx
	movl	(%rbp), %ebx
	movl	%ebx, (%rcx)
	movl	%edx, (%rbp)
	addq	$4, %rcx
	addq	$4, %rbp
	decl	%edi
	cmpl	$1, %edi
	jg	.LBB18_124
.LBB18_125:                             # %while.end153.i.i
                                        #   in Loop: Header=BB18_47 Depth=3
	movq	240(%rsp), %rcx         # 8-byte Reload
	movl	%ecx, %ebp
	subl	%r8d, %ebp
	movl	%r8d, %r11d
	subl	%esi, %r11d
	cmpl	%r11d, %ebp
	cmovgl	%r11d, %ebp
	testl	%ebp, %ebp
	jle	.LBB18_137
# BB#126:                               # %while.body172.preheader.i.i
                                        #   in Loop: Header=BB18_47 Depth=3
	movq	240(%rsp), %rdx         # 8-byte Reload
	movl	%edx, %r9d
	subl	%ebp, %r9d
	movslq	%eax, %r14
	decl	%esi
	subl	%r8d, %esi
	leal	-1(%r8), %ecx
	subl	%edx, %ecx
	cmpl	%ecx, %esi
	movl	%ecx, %edx
	cmovgel	%esi, %edx
	cmpl	$-3, %edx
	movl	$-2, %ebx
	cmovgl	%edx, %ebx
	subl	%edx, %ebx
	incq	%rbx
	cmpq	$4, %rbx
	jb	.LBB18_135
# BB#127:                               # %min.iters.checked278
                                        #   in Loop: Header=BB18_47 Depth=3
	movq	%r10, %r15
	movq	%rbx, %r10
	movabsq	$8589934588, %rdi       # imm = 0x1FFFFFFFC
	andq	%rdi, %r10
	je	.LBB18_128
# BB#129:                               # %vector.memcheck295
                                        #   in Loop: Header=BB18_47 Depth=3
	leaq	(%r15,%r14,4), %rdx
	movq	%rdx, 232(%rsp)         # 8-byte Spill
	cmpl	%ecx, %esi
	cmovgel	%esi, %ecx
	cmpl	$-3, %ecx
	movl	$-2, %edi
	cmovgl	%ecx, %edi
	subl	%ecx, %edi
	movq	240(%rsp), %rdx         # 8-byte Reload
	leal	2(%rdx,%rcx), %ecx
	movslq	%ecx, %rcx
	leaq	(%rcx,%rdi), %rdx
	leaq	(%r15,%rdx,4), %rdx
	cmpq	%rdx, 232(%rsp)         # 8-byte Folded Reload
	ja	.LBB18_132
# BB#130:                               # %vector.memcheck295
                                        #   in Loop: Header=BB18_47 Depth=3
	addq	%r14, %rdi
	leaq	(%r15,%rdi,4), %rdx
	leaq	(%r15,%rcx,4), %rcx
	cmpq	%rdx, %rcx
	ja	.LBB18_132
# BB#131:                               #   in Loop: Header=BB18_47 Depth=3
	movq	%r15, %r10
	jmp	.LBB18_135
.LBB18_128:                             #   in Loop: Header=BB18_47 Depth=3
	movq	%r15, %r10
	jmp	.LBB18_135
.LBB18_132:                             # %vector.body273.preheader
                                        #   in Loop: Header=BB18_47 Depth=3
	addq	%r10, %r14
	addl	%r10d, %r9d
	subl	%r10d, %ebp
	movq	240(%rsp), %rdi         # 8-byte Reload
	movl	%edi, %edx
	notl	%edx
	addl	%r8d, %edx
	cmpl	%edx, %esi
	cmovgel	%esi, %edx
	cmpl	$-3, %edx
	movl	$-2, %ecx
	cmovgl	%edx, %ecx
	subl	%edx, %ecx
	incq	%rcx
	movabsq	$8589934588, %rsi       # imm = 0x1FFFFFFFC
	andq	%rsi, %rcx
	leal	2(%rdi,%rdx), %edx
	movslq	%eax, %rsi
	leaq	(%r15,%rsi,4), %rsi
	.align	16, 0x90
.LBB18_133:                             # %vector.body273
                                        #   Parent Loop BB18_40 Depth=1
                                        #     Parent Loop BB18_41 Depth=2
                                        #       Parent Loop BB18_47 Depth=3
                                        # =>      This Inner Loop Header: Depth=4
	movdqu	(%rsi), %xmm0
	movslq	%edx, %rdx
	movdqu	(%r15,%rdx,4), %xmm1
	movdqu	%xmm1, (%rsi)
	movdqu	%xmm0, (%r15,%rdx,4)
	addl	$4, %edx
	addq	$16, %rsi
	addq	$-4, %rcx
	jne	.LBB18_133
# BB#134:                               # %middle.block274
                                        #   in Loop: Header=BB18_47 Depth=3
	cmpq	%r10, %rbx
	movq	%r15, %r10
	je	.LBB18_137
	.align	16, 0x90
.LBB18_135:                             # %while.body172.i.i.preheader
                                        #   in Loop: Header=BB18_47 Depth=3
	leaq	(%r10,%r14,4), %rcx
	incl	%r9d
	movslq	%r9d, %rdx
	leaq	(%r10,%rdx,4), %rdx
	incl	%ebp
	.align	16, 0x90
.LBB18_136:                             # %while.body172.i.i
                                        #   Parent Loop BB18_40 Depth=1
                                        #     Parent Loop BB18_41 Depth=2
                                        #       Parent Loop BB18_47 Depth=3
                                        # =>      This Inner Loop Header: Depth=4
	movl	(%rcx), %esi
	movl	(%rdx), %edi
	movl	%edi, (%rcx)
	movl	%esi, (%rdx)
	addq	$4, %rcx
	addq	$4, %rdx
	decl	%ebp
	cmpl	$1, %ebp
	jg	.LBB18_136
.LBB18_137:                             # %while.end185.i.i
                                        #   in Loop: Header=BB18_47 Depth=3
	movl	%r13d, %ecx
	subl	%r12d, %ecx
	leal	(%rcx,%rax), %esi
	leal	-1(%rcx,%rax), %r9d
	movq	240(%rsp), %rax         # 8-byte Reload
	movl	%eax, %ebx
	subl	%r11d, %ebx
	leal	1(%rbx), %edi
	movq	224(%rsp), %r14         # 8-byte Reload
	leal	1(%r14), %r8d
	movl	%r9d, %edx
	subl	%r13d, %edx
	movl	%eax, %ebp
	subl	%edi, %ebp
	cmpl	%ebp, %edx
	movl	%edi, %edx
	cmovll	%r13d, %edx
	cmovll	%edi, %r13d
	movl	%eax, %ecx
	cmovll	%r9d, %ecx
	cmovll	%eax, %r9d
	movl	%ecx, %ebp
	subl	%edx, %ebp
	movl	%ebx, %eax
	subl	%esi, %eax
	cmpl	%eax, %ebp
	movl	%edx, %eax
	cmovll	%esi, %eax
	movq	%r10, %r11
	movl	%ebx, %r10d
	cmovll	%ecx, %r10d
	cmovll	%ebx, %ecx
	movl	%r14d, %ebx
	cmovll	%r8d, %ebx
	cmovll	%r14d, %r8d
	cmovgel	%esi, %edx
	movl	%r9d, %esi
	subl	%r13d, %esi
	movl	%ecx, %edi
	subl	%eax, %edi
	cmpl	%edi, %esi
	movl	%eax, %r15d
	cmovll	%r13d, %r15d
	cmovgel	%r13d, %eax
	movl	%ecx, %edi
	cmovll	%r9d, %edi
	cmovgel	%r9d, %ecx
	movl	%ebx, %ebp
	cmovll	%r14d, %ebp
	cmovgel	%r14d, %ebx
	movq	208(%rsp), %rsi         # 8-byte Reload
	movl	%eax, 4400(%rsp,%rsi,4)
	movl	%ecx, 4000(%rsp,%rsi,4)
	movl	%ebx, 3600(%rsp,%rsi,4)
	movq	192(%rsp), %rax         # 8-byte Reload
	movl	%r15d, 4400(%rsp,%rax,4)
	movl	%edi, 4000(%rsp,%rax,4)
	movl	%ebp, 3600(%rsp,%rax,4)
	movl	%edx, 4404(%rsp,%rax,4)
	movl	%r10d, 4004(%rsp,%rax,4)
	movq	%r11, %r10
	movl	%r8d, 3604(%rsp,%rax,4)
	movq	216(%rsp), %rax         # 8-byte Reload
	addl	$2, %eax
	movl	%eax, 180(%rsp)         # 4-byte Spill
	movq	128(%rsp), %r11         # 8-byte Reload
	movl	204(%rsp), %eax         # 4-byte Reload
.LBB18_81:                              # %while.cond.outer.backedge.i.i
                                        #   in Loop: Header=BB18_47 Depth=3
	movl	180(%rsp), %ecx         # 4-byte Reload
	testl	%ecx, %ecx
	jg	.LBB18_47
.LBB18_82:                              # %mainQSort3.exit.i
                                        #   in Loop: Header=BB18_41 Depth=2
	movl	%eax, 204(%rsp)         # 4-byte Spill
	testl	%eax, %eax
	js	.LBB18_83
# BB#138:                               # %mainQSort3.exit.if.end322_crit_edge.i
                                        #   in Loop: Header=BB18_41 Depth=2
	movl	124(%rsp), %eax         # 4-byte Reload
	incl	%eax
	subl	100(%rsp), %eax         # 4-byte Folded Reload
	addl	140(%rsp), %eax         # 4-byte Folded Reload
	movl	%eax, 124(%rsp)         # 4-byte Spill
	movq	48(%rsp), %r15          # 8-byte Reload
	movq	104(%rsp), %rsi         # 8-byte Reload
	movl	(%r15,%rsi,4), %eax
	movl	68(%rsp), %edi          # 4-byte Reload
	movq	256(%rsp), %r13         # 8-byte Reload
	movl	$-2097153, %r12d        # imm = 0xFFFFFFFFFFDFFFFF
	movq	88(%rsp), %r14          # 8-byte Reload
	movq	72(%rsp), %rbx          # 8-byte Reload
	movq	56(%rsp), %r9           # 8-byte Reload
	movq	80(%rsp), %rcx          # 8-byte Reload
	movq	112(%rsp), %rdx         # 8-byte Reload
.LBB18_139:                             # %if.end322.i
                                        #   in Loop: Header=BB18_41 Depth=2
	orl	$2097152, %eax          # imm = 0x200000
	movl	%eax, (%r15,%rsi,4)
.LBB18_140:                             # %for.inc327.i
                                        #   in Loop: Header=BB18_41 Depth=2
	incq	%rdx
	cmpq	$256, %rdx              # imm = 0x100
	jl	.LBB18_41
# BB#141:                               # %for.end329.i
                                        #   in Loop: Header=BB18_40 Depth=1
	movq	%rcx, 80(%rsp)          # 8-byte Spill
	movq	%r14, 88(%rsp)          # 8-byte Spill
	cmpb	$0, 2320(%rsp,%r9)
	je	.LBB18_143
# BB#142:                               # %if.then333.i
                                        #   in Loop: Header=BB18_40 Depth=1
	movl	$1006, %edi             # imm = 0x3EE
	movq	%r11, %rbp
	movq	%rbx, 72(%rsp)          # 8-byte Spill
	movq	%r9, %rbx
	callq	BZ2_bz__AssertH__fail
	movq	%rbx, %r9
	movq	72(%rsp), %rbx          # 8-byte Reload
	movq	%rbp, %r11
	movq	32(%rsp), %r10          # 8-byte Reload
.LBB18_143:                             # %for.body338.i.preheader
                                        #   in Loop: Header=BB18_40 Depth=1
	movq	24(%rsp), %rax          # 8-byte Reload
	leaq	(%rax,%r9,4), %rax
	xorl	%ecx, %ecx
	.align	16, 0x90
.LBB18_144:                             # %for.body338.i
                                        #   Parent Loop BB18_40 Depth=1
                                        # =>  This Inner Loop Header: Depth=2
	movl	-4(%rax), %edx
	andl	%r12d, %edx
	movl	%edx, 1296(%rsp,%rcx,4)
	movl	(%rax), %edx
	andl	%r12d, %edx
	decl	%edx
	movl	%edx, 272(%rsp,%rcx,4)
	incq	%rcx
	addq	$1024, %rax             # imm = 0x400
	cmpq	$256, %rcx              # imm = 0x100
	jne	.LBB18_144
# BB#145:                               # %for.end357.i
                                        #   in Loop: Header=BB18_40 Depth=1
	movl	(%r15,%rbx,4), %ecx
	andl	%r12d, %ecx
	movl	1296(%rsp,%r9,4), %eax
	cmpl	%eax, %ecx
	jge	.LBB18_146
# BB#147:                               # %for.body367.preheader.i
                                        #   in Loop: Header=BB18_40 Depth=1
	movslq	%ecx, %rcx
	movq	88(%rsp), %r8           # 8-byte Reload
	.align	16, 0x90
.LBB18_148:                             # %for.body367.i
                                        #   Parent Loop BB18_40 Depth=1
                                        # =>  This Inner Loop Header: Depth=2
	movl	(%r10,%rcx,4), %edx
	leal	-1(%rdx), %esi
	sarl	$31, %esi
	andl	%r13d, %esi
	leal	-1(%rsi,%rdx), %edx
	movslq	%edx, %rsi
	movzbl	(%r11,%rsi), %esi
	cmpb	$0, 2320(%rsp,%rsi)
	jne	.LBB18_150
# BB#149:                               # %if.then381.i
                                        #   in Loop: Header=BB18_148 Depth=2
	movslq	1296(%rsp,%rsi,4), %rax
	leal	1(%rax), %edi
	movl	%edi, 1296(%rsp,%rsi,4)
	movl	%edx, (%r10,%rax,4)
	movl	1296(%rsp,%r9,4), %eax
.LBB18_150:                             # %for.inc388.i
                                        #   in Loop: Header=BB18_148 Depth=2
	incq	%rcx
	movslq	%eax, %rdx
	cmpq	%rdx, %rcx
	jl	.LBB18_148
	jmp	.LBB18_151
	.align	16, 0x90
.LBB18_146:                             #   in Loop: Header=BB18_40 Depth=1
	movq	88(%rsp), %r8           # 8-byte Reload
.LBB18_151:                             # %for.end390.i
                                        #   in Loop: Header=BB18_40 Depth=1
	movl	44(%rsp), %ecx          # 4-byte Reload
	addl	$256, %ecx              # imm = 0x100
	movslq	%ecx, %r14
	movl	(%r15,%r14,4), %edx
	andl	%r12d, %edx
	decl	%edx
	movl	272(%rsp,%r9,4), %ecx
	jmp	.LBB18_152
	.align	16, 0x90
.LBB18_154:                             # %for.cond397.backedge.i
                                        #   in Loop: Header=BB18_152 Depth=2
	decl	%edx
.LBB18_152:                             # %for.end390.i
                                        #   Parent Loop BB18_40 Depth=1
                                        # =>  This Inner Loop Header: Depth=2
	cmpl	%ecx, %edx
	jle	.LBB18_156
# BB#153:                               # %for.body402.i
                                        #   in Loop: Header=BB18_152 Depth=2
	movslq	%edx, %rsi
	movl	(%r10,%rsi,4), %esi
	leal	-1(%rsi), %edi
	sarl	$31, %edi
	andl	%r13d, %edi
	leal	-1(%rdi,%rsi), %esi
	movslq	%esi, %rdi
	movzbl	(%r11,%rdi), %edi
	cmpb	$0, 2320(%rsp,%rdi)
	jne	.LBB18_154
# BB#155:                               # %if.then416.i
                                        #   in Loop: Header=BB18_152 Depth=2
	movslq	272(%rsp,%rdi,4), %rcx
	leal	-1(%rcx), %ebp
	movl	%ebp, 272(%rsp,%rdi,4)
	movl	%esi, (%r10,%rcx,4)
	movl	272(%rsp,%r9,4), %ecx
	decl	%edx
	jmp	.LBB18_152
	.align	16, 0x90
.LBB18_156:                             # %for.end425.i
                                        #   in Loop: Header=BB18_40 Depth=1
	leal	-1(%rax), %edx
	cmpl	%ecx, %edx
	movq	%r8, %rdx
	je	.LBB18_160
# BB#157:                               # %lor.lhs.false.i
                                        #   in Loop: Header=BB18_40 Depth=1
	testl	%eax, %eax
	jne	.LBB18_159
# BB#158:                               # %lor.lhs.false.i
                                        #   in Loop: Header=BB18_40 Depth=1
	cmpl	20(%rsp), %ecx          # 4-byte Folded Reload
	je	.LBB18_160
.LBB18_159:                             # %if.then442.i
                                        #   in Loop: Header=BB18_40 Depth=1
	movl	$1007, %edi             # imm = 0x3EF
	movq	%r11, %rbp
	movq	%rdx, %r12
	movq	%r14, 240(%rsp)         # 8-byte Spill
	movq	%r9, %r14
	callq	BZ2_bz__AssertH__fail
	movq	%r14, %r9
	movq	240(%rsp), %r14         # 8-byte Reload
	movq	%r12, %rdx
	movq	%rbp, %r11
	movq	32(%rsp), %r10          # 8-byte Reload
	movl	$-2097153, %r12d        # imm = 0xFFFFFFFFFFDFFFFF
.LBB18_160:                             # %for.body447.i.preheader
                                        #   in Loop: Header=BB18_40 Depth=1
	movq	80(%rsp), %rax          # 8-byte Reload
	cltq
	leaq	(%r15,%rax,4), %rax
	xorl	%ecx, %ecx
	.align	16, 0x90
.LBB18_161:                             # %for.body447.i
                                        #   Parent Loop BB18_40 Depth=1
                                        # =>  This Inner Loop Header: Depth=2
	orb	$32, 2(%rax,%rcx)
	addq	$1024, %rcx             # imm = 0x400
	cmpq	$262144, %rcx           # imm = 0x40000
	jne	.LBB18_161
# BB#162:                               # %for.end455.i
                                        #   in Loop: Header=BB18_40 Depth=1
	movb	$1, 2320(%rsp,%r9)
	cmpq	$254, %rdx
	movl	68(%rsp), %edi          # 4-byte Reload
	jg	.LBB18_172
# BB#163:                               # %if.then460.i
                                        #   in Loop: Header=BB18_40 Depth=1
	movq	%rdx, %r8
	movl	%edi, %r9d
	movl	(%r15,%rbx,4), %eax
	andl	%r12d, %eax
	movl	(%r15,%r14,4), %esi
	andl	%r12d, %esi
	movl	%esi, %edx
	subl	%eax, %edx
	movl	$-1, %ecx
	.align	16, 0x90
.LBB18_164:                             # %while.cond471.i
                                        #   Parent Loop BB18_40 Depth=1
                                        # =>  This Inner Loop Header: Depth=2
	incl	%ecx
	movl	%edx, %eax
	sarl	%cl, %eax
	cmpl	$65534, %eax            # imm = 0xFFFE
	jg	.LBB18_164
# BB#165:                               # %while.end477.i
                                        #   in Loop: Header=BB18_40 Depth=1
	leal	-1(%rdx), %r14d
	testl	%edx, %edx
	movq	248(%rsp), %rax         # 8-byte Reload
	jle	.LBB18_170
# BB#166:                               # %for.body482.preheader.i
                                        #   in Loop: Header=BB18_40 Depth=1
	movslq	%edx, %rdx
	incq	%rdx
	decl	%esi
	movslq	%esi, %rsi
	leaq	(%r10,%rsi,4), %rsi
	movl	%r14d, %edi
	.align	16, 0x90
.LBB18_167:                             # %for.body482.i
                                        #   Parent Loop BB18_40 Depth=1
                                        # =>  This Inner Loop Header: Depth=2
	movslq	(%rsi), %rbp
	movl	%edi, %ebx
	sarl	%cl, %ebx
	cmpq	$33, %rbp
	movw	%bx, (%rax,%rbp,2)
	jg	.LBB18_169
# BB#168:                               # %if.then492.i
                                        #   in Loop: Header=BB18_167 Depth=2
	leal	(%r13,%rbp), %ebp
	movslq	%ebp, %rbp
	movw	%bx, (%rax,%rbp,2)
.LBB18_169:                             # %if.end496.i
                                        #   in Loop: Header=BB18_167 Depth=2
	decl	%edi
	decq	%rdx
	addq	$-4, %rsi
	cmpq	$1, %rdx
	jg	.LBB18_167
.LBB18_170:                             # %for.end499.i
                                        #   in Loop: Header=BB18_40 Depth=1
	sarl	%cl, %r14d
	cmpl	$65536, %r14d           # imm = 0x10000
	movl	%r9d, %edi
	movq	%r8, %rdx
	jl	.LBB18_172
# BB#171:                               # %if.then504.i
                                        #   in Loop: Header=BB18_40 Depth=1
	movl	$1002, %edi             # imm = 0x3EA
	movq	%r10, %rbx
	movq	%r11, %rbp
	movq	%rdx, 88(%rsp)          # 8-byte Spill
	callq	BZ2_bz__AssertH__fail
	movl	68(%rsp), %edi          # 4-byte Reload
	movq	88(%rsp), %rdx          # 8-byte Reload
	movq	%rbp, %r11
	movq	%rbx, %r10
.LBB18_172:                             # %for.inc507.i
                                        #   in Loop: Header=BB18_40 Depth=1
	incq	%rdx
	cmpq	$256, %rdx              # imm = 0x100
	jl	.LBB18_40
# BB#173:                               # %for.end509.i
	cmpl	$4, %edi
	jge	.LBB18_174
.LBB18_175:                             # %mainSort.exit
	movq	(%rsp), %rax            # 8-byte Reload
	jmp	.LBB18_176
.LBB18_83:
	movq	(%rsp), %rax            # 8-byte Reload
	movq	48(%rsp), %r15          # 8-byte Reload
	movl	68(%rsp), %edi          # 4-byte Reload
	movq	256(%rsp), %r13         # 8-byte Reload
.LBB18_176:                             # %mainSort.exit
	cmpl	$3, %edi
	jge	.LBB18_177
.LBB18_181:                             # %if.end21
	movq	%r10, 32(%rsp)          # 8-byte Spill
	cmpl	$0, 204(%rsp)           # 4-byte Folded Reload
	jns	.LBB18_186
# BB#182:                               # %if.then24
	cmpl	$2, %edi
	movl	%edi, %ebp
	jge	.LBB18_183
.LBB18_184:                             # %if.end29
	movq	24(%rax), %rdi
	movq	32(%rax), %rsi
	movq	%r15, %rdx
	movl	%r13d, %ecx
	movl	%ebp, %r8d
.LBB18_185:                             # %if.end33
	movq	%rax, %rbx
	callq	fallbackSort
	movq	%rbx, %rax
.LBB18_186:                             # %if.end33
	movl	$-1, 48(%rax)
	movq	%rax, %rcx
	movslq	108(%rcx), %rax
	movq	%rcx, %rdx
	testq	%rax, %rax
	movq	32(%rsp), %r13          # 8-byte Reload
	jle	.LBB18_191
# BB#187:                               # %for.body.preheader
	xorl	%ecx, %ecx
	.align	16, 0x90
.LBB18_188:                             # %for.body
                                        # =>This Inner Loop Header: Depth=1
	cmpl	$0, (%r13,%rcx,4)
	je	.LBB18_190
# BB#189:                               # %for.inc
                                        #   in Loop: Header=BB18_188 Depth=1
	incq	%rcx
	cmpq	%rax, %rcx
	jl	.LBB18_188
	jmp	.LBB18_191
.LBB18_190:                             # %for.end
	movl	%ecx, 48(%rdx)
	cmpl	$-1, %ecx
	jne	.LBB18_192
.LBB18_191:                             # %if.then48
	movl	$1003, %edi             # imm = 0x3EB
	callq	BZ2_bz__AssertH__fail
.LBB18_192:                             # %if.end49
	addq	$4808, %rsp             # imm = 0x12C8
	popq	%rbx
	popq	%r12
	popq	%r13
	popq	%r14
	popq	%r15
	popq	%rbp
	retq
.LBB18_3:                               # %if.then.i
	movq	stderr(%rip), %rcx
	movl	$.L.str.6.3, %edi
	movl	$33, %esi
	movl	$1, %edx
	callq	fwrite
	jmp	.LBB18_4
.LBB18_17:                              # %if.then96.i
	movq	stderr(%rip), %rcx
	movl	$.L.str.2, %edi
	movl	$27, %esi
	movl	$1, %edx
	movq	%r11, %rbx
	callq	fwrite
	movq	%rbx, %r11
	jmp	.LBB18_18
.LBB18_177:                             # %if.then13
	movl	%edi, %r14d
	movq	stderr(%rip), %rdi
	movq	8(%rsp), %rcx           # 8-byte Reload
	subl	204(%rsp), %ecx         # 4-byte Folded Reload
	cvtsi2ssl	%ecx, %xmm0
	movq	%rcx, %rdx
	movq	%r10, %rbp
	movq	%rax, %rbx
	testl	%r13d, %r13d
	je	.LBB18_178
# BB#179:                               # %if.then13
	cvtsi2ssl	%r13d, %xmm1
	jmp	.LBB18_180
.LBB18_178:
	movss	.LCPI18_1(%rip), %xmm1  # xmm1 = mem[0],zero,zero,zero
.LBB18_180:                             # %if.then13
	divss	%xmm1, %xmm0
	cvtss2sd	%xmm0, %xmm0
	movl	$.L.str, %esi
	movb	$1, %al
	movl	%r13d, %ecx
	callq	fprintf
	movq	%rbx, %rax
	movq	%rbp, %r10
	movl	%r14d, %edi
	jmp	.LBB18_181
.LBB18_183:                             # %if.then27
	movq	stderr(%rip), %rcx
	movl	$.L.str.1, %edi
	movl	$53, %esi
	movl	$1, %edx
	movq	%rax, %rbx
	callq	fwrite
	movq	%rbx, %rax
	jmp	.LBB18_184
.LBB18_174:                             # %if.then512.i
	movl	%edi, %ebp
	movq	stderr(%rip), %rdi
	movl	%r13d, %r8d
	movl	124(%rsp), %ecx         # 4-byte Reload
	subl	%ecx, %r8d
	movl	$.L.str.8.5, %esi
	xorl	%eax, %eax
	movl	%r13d, %edx
	movq	%r10, %rbx
	callq	fprintf
	movl	%ebp, %edi
	movq	%rbx, %r10
	jmp	.LBB18_175
.Lfunc_end18:
	.size	BZ2_blockSort, .Lfunc_end18-BZ2_blockSort
	.cfi_endproc

	.align	16, 0x90
	.type	fallbackSort,@function
fallbackSort:                           # @fallbackSort
	.cfi_startproc
# BB#0:                                 # %entry
	pushq	%rbp
.Ltmp104:
	.cfi_def_cfa_offset 16
	pushq	%r15
.Ltmp105:
	.cfi_def_cfa_offset 24
	pushq	%r14
.Ltmp106:
	.cfi_def_cfa_offset 32
	pushq	%r13
.Ltmp107:
	.cfi_def_cfa_offset 40
	pushq	%r12
.Ltmp108:
	.cfi_def_cfa_offset 48
	pushq	%rbx
.Ltmp109:
	.cfi_def_cfa_offset 56
	subq	$3032, %rsp             # imm = 0xBD8
.Ltmp110:
	.cfi_def_cfa_offset 3088
.Ltmp111:
	.cfi_offset %rbx, -56
.Ltmp112:
	.cfi_offset %r12, -48
.Ltmp113:
	.cfi_offset %r13, -40
.Ltmp114:
	.cfi_offset %r14, -32
.Ltmp115:
	.cfi_offset %r15, -24
.Ltmp116:
	.cfi_offset %rbp, -16
	movl	%r8d, 100(%rsp)         # 4-byte Spill
	movl	%ecx, %ebp
	movq	%rdx, %r12
	movq	%rsi, %rbx
	movq	%rdi, %r15
	cmpl	$3, %r8d
	movl	%ebp, %r13d
	jg	.LBB19_133
.LBB19_1:                               # %for.body.preheader
	leaq	1184(%rsp), %rdi
	xorl	%r14d, %r14d
	xorl	%esi, %esi
	movl	$1028, %edx             # imm = 0x404
	callq	memset
	testl	%ebp, %ebp
	jle	.LBB19_5
# BB#2:
	movq	%rbx, %rax
	movl	%ebp, %ecx
	.align	16, 0x90
.LBB19_3:                               # %for.body4
                                        # =>This Inner Loop Header: Depth=1
	movzbl	(%rax), %edx
	incl	1184(%rsp,%rdx,4)
	incq	%rax
	decl	%ecx
	jne	.LBB19_3
# BB#4:                                 # %for.body15.preheader.loopexit
	movl	1184(%rsp), %r14d
.LBB19_5:                               # %for.body15.preheader
	leaq	160(%rsp), %rdi
	leaq	1184(%rsp), %rsi
	movl	$1024, %edx             # imm = 0x400
	callq	memcpy
	xorl	%eax, %eax
	.align	16, 0x90
.LBB19_6:                               # %for.body25
                                        # =>This Inner Loop Header: Depth=1
	addl	1188(%rsp,%rax,4), %r14d
	movl	%r14d, 1188(%rsp,%rax,4)
	incq	%rax
	cmpq	$256, %rax              # imm = 0x100
	jne	.LBB19_6
# BB#7:                                 # %for.cond33.preheader
	movq	%rbp, %r8
	movq	%r8, 64(%rsp)           # 8-byte Spill
	testl	%r8d, %r8d
	movq	%rbx, %r9
	movq	%r12, %rbx
	movq	%rbx, 56(%rsp)          # 8-byte Spill
	jle	.LBB19_10
# BB#8:                                 # %for.body35.preheader
	xorl	%eax, %eax
	.align	16, 0x90
.LBB19_9:                               # %for.body35
                                        # =>This Inner Loop Header: Depth=1
	movzbl	(%r9,%rax), %ecx
	movslq	1184(%rsp,%rcx,4), %rdx
	leaq	-1(%rdx), %rsi
	movl	%esi, 1184(%rsp,%rcx,4)
	movl	%eax, -4(%r15,%rdx,4)
	incq	%rax
	cmpl	%eax, %r13d
	jne	.LBB19_9
.LBB19_10:                              # %for.end47
	movq	%r13, 88(%rsp)          # 8-byte Spill
	xorl	%r14d, %r14d
	cmpl	$-63, %r8d
	movl	$0, %ebp
	jl	.LBB19_12
# BB#11:                                # %for.body52.preheader
	movl	%r8d, %eax
	sarl	$31, %eax
	shrl	$27, %eax
	addl	%r8d, %eax
	sarl	$5, %eax
	xorl	%ebp, %ebp
	incl	%eax
	cmovsl	%ebp, %eax
	movl	%eax, %eax
	leaq	4(,%rax,4), %rdx
	xorl	%esi, %esi
	movq	%rbx, %rdi
	movq	%r8, %r13
	movq	%r9, %r12
	callq	memset
	movq	%r12, %r9
	movq	%r13, %r8
	.align	16, 0x90
.LBB19_12:                              # %for.body61
                                        # =>This Inner Loop Header: Depth=1
	movl	1184(%rsp,%rbp,4), %ecx
	movl	$1, %eax
	shll	%cl, %eax
	sarl	$5, %ecx
	movslq	%ecx, %rcx
	orl	%eax, (%rbx,%rcx,4)
	incq	%rbp
	cmpq	$256, %rbp              # imm = 0x100
	jne	.LBB19_12
	.align	16, 0x90
.LBB19_13:                              # %for.body74
                                        # =>This Inner Loop Header: Depth=1
	leal	(%r8,%r14), %ecx
	movl	$1, %eax
	shll	%cl, %eax
	sarl	$5, %ecx
	movslq	%ecx, %rcx
	orl	%eax, (%rbx,%rcx,4)
	leal	1(%r8,%r14), %ecx
	movl	$-2, %eax
	roll	%cl, %eax
	sarl	$5, %ecx
	movslq	%ecx, %rcx
	andl	%eax, (%rbx,%rcx,4)
	addl	$2, %r14d
	cmpl	$64, %r14d
	jne	.LBB19_13
# BB#14:                                # %while.body.preheader
	movl	$1, %ebp
	movl	100(%rsp), %r13d        # 4-byte Reload
	jmp	.LBB19_15
.LBB19_16:                              # %if.then101
                                        #   in Loop: Header=BB19_15 Depth=1
	movq	stderr(%rip), %rdi
	movl	$.L.str.3.1, %esi
	xorl	%eax, %eax
	movl	%ebp, %edx
	movq	%r8, %r14
	movq	%r9, %r12
	callq	fprintf
	movq	%r12, %r9
	movq	%r14, %r8
	jmp	.LBB19_17
.LBB19_120:                             # %if.then258
                                        #   in Loop: Header=BB19_15 Depth=1
	movq	stderr(%rip), %rdi
	movl	$.L.str.4, %esi
	xorl	%eax, %eax
	movq	128(%rsp), %rdx         # 8-byte Reload
	movq	%r8, %r14
	movq	%r9, %rbp
	callq	fprintf
	movq	%rbp, %r9
	movq	%r14, %r8
	jmp	.LBB19_121
	.align	16, 0x90
.LBB19_15:                              # %while.body
                                        # =>This Loop Header: Depth=1
                                        #     Child Loop BB19_18 Depth 2
                                        #     Child Loop BB19_20 Depth 2
                                        #       Child Loop BB19_21 Depth 3
                                        #         Child Loop BB19_25 Depth 4
                                        #         Child Loop BB19_26 Depth 4
                                        #         Child Loop BB19_29 Depth 4
                                        #         Child Loop BB19_33 Depth 4
                                        #         Child Loop BB19_34 Depth 4
                                        #       Child Loop BB19_38 Depth 3
                                        #         Child Loop BB19_39 Depth 4
                                        #           Child Loop BB19_54 Depth 5
                                        #             Child Loop BB19_57 Depth 6
                                        #           Child Loop BB19_46 Depth 5
                                        #             Child Loop BB19_48 Depth 6
                                        #         Child Loop BB19_66 Depth 4
                                        #           Child Loop BB19_68 Depth 5
                                        #             Child Loop BB19_69 Depth 6
                                        #           Child Loop BB19_77 Depth 5
                                        #         Child Loop BB19_99 Depth 4
                                        #         Child Loop BB19_102 Depth 4
                                        #         Child Loop BB19_111 Depth 4
                                        #         Child Loop BB19_114 Depth 4
                                        #       Child Loop BB19_88 Depth 3
	cmpl	$4, %r13d
	jge	.LBB19_16
.LBB19_17:                              # %for.cond104.preheader
                                        #   in Loop: Header=BB19_15 Depth=1
	movl	$-1, %eax
	movq	%rax, 120(%rsp)         # 8-byte Spill
	xorl	%eax, %eax
	movq	%rax, 128(%rsp)         # 8-byte Spill
	testl	%r8d, %r8d
	movl	$0, %eax
	movl	$0, %ecx
	movq	88(%rsp), %rdi          # 8-byte Reload
	jle	.LBB19_19
	.align	16, 0x90
.LBB19_18:                              # %for.body107
                                        #   Parent Loop BB19_15 Depth=1
                                        # =>  This Inner Loop Header: Depth=2
	movl	%eax, %edx
	sarl	$5, %edx
	movslq	%edx, %rdx
	movl	(%rbx,%rdx,4), %edx
	btl	%eax, %edx
	cmovbl	%eax, %ecx
	movl	(%r15,%rax,4), %edx
	subl	%ebp, %edx
	movl	%edx, %esi
	sarl	$31, %esi
	andl	%edi, %esi
	addl	%edx, %esi
	movslq	%esi, %rdx
	movl	%ecx, (%r9,%rdx,4)
	incq	%rax
	cmpl	%eax, %edi
	jne	.LBB19_18
.LBB19_19:                              #   in Loop: Header=BB19_15 Depth=1
	movl	%ebp, 116(%rsp)         # 4-byte Spill
.LBB19_20:                              # %while.body130.outer
                                        #   Parent Loop BB19_15 Depth=1
                                        # =>  This Loop Header: Depth=2
                                        #       Child Loop BB19_21 Depth 3
                                        #         Child Loop BB19_25 Depth 4
                                        #         Child Loop BB19_26 Depth 4
                                        #         Child Loop BB19_29 Depth 4
                                        #         Child Loop BB19_33 Depth 4
                                        #         Child Loop BB19_34 Depth 4
                                        #       Child Loop BB19_38 Depth 3
                                        #         Child Loop BB19_39 Depth 4
                                        #           Child Loop BB19_54 Depth 5
                                        #             Child Loop BB19_57 Depth 6
                                        #           Child Loop BB19_46 Depth 5
                                        #             Child Loop BB19_48 Depth 6
                                        #         Child Loop BB19_66 Depth 4
                                        #           Child Loop BB19_68 Depth 5
                                        #             Child Loop BB19_69 Depth 6
                                        #           Child Loop BB19_77 Depth 5
                                        #         Child Loop BB19_99 Depth 4
                                        #         Child Loop BB19_102 Depth 4
                                        #         Child Loop BB19_111 Depth 4
                                        #         Child Loop BB19_114 Depth 4
                                        #       Child Loop BB19_88 Depth 3
	movq	120(%rsp), %rcx         # 8-byte Reload
	.align	16, 0x90
.LBB19_21:                              # %while.cond132
                                        #   Parent Loop BB19_15 Depth=1
                                        #     Parent Loop BB19_20 Depth=2
                                        # =>    This Loop Header: Depth=3
                                        #         Child Loop BB19_25 Depth 4
                                        #         Child Loop BB19_26 Depth 4
                                        #         Child Loop BB19_29 Depth 4
                                        #         Child Loop BB19_33 Depth 4
                                        #         Child Loop BB19_34 Depth 4
	movl	%ecx, %eax
	leal	1(%rax), %r13d
	movl	%r13d, %ecx
	sarl	$5, %ecx
	movslq	%ecx, %rsi
	movl	%r13d, %ecx
	andl	$31, %ecx
	movl	$1, %edx
	shll	%cl, %edx
	andl	(%rbx,%rsi,4), %edx
	setne	%cl
	movl	%r13d, %esi
	andl	$31, %esi
	je	.LBB19_23
# BB#22:                                # %while.cond132
                                        #   in Loop: Header=BB19_21 Depth=3
	testb	%cl, %cl
	movl	%r13d, %ecx
	jne	.LBB19_21
.LBB19_23:                              # %while.end
                                        #   in Loop: Header=BB19_21 Depth=3
	testl	%edx, %edx
	je	.LBB19_27
# BB#24:                                # %while.cond152.preheader
                                        #   in Loop: Header=BB19_21 Depth=3
	leal	-31(%rax), %ecx
	.align	16, 0x90
.LBB19_25:                              # %while.cond152
                                        #   Parent Loop BB19_15 Depth=1
                                        #     Parent Loop BB19_20 Depth=2
                                        #       Parent Loop BB19_21 Depth=3
                                        # =>      This Inner Loop Header: Depth=4
	movl	%eax, %r13d
	addl	$32, %ecx
	movl	%ecx, %eax
	sarl	$5, %eax
	movslq	%eax, %rdx
	leal	32(%r13), %eax
	cmpl	$-1, (%rbx,%rdx,4)
	je	.LBB19_25
	.align	16, 0x90
.LBB19_26:                              # %while.cond161
                                        #   Parent Loop BB19_15 Depth=1
                                        #     Parent Loop BB19_20 Depth=2
                                        #       Parent Loop BB19_21 Depth=3
                                        # =>      This Inner Loop Header: Depth=4
	incl	%r13d
	movl	%r13d, %eax
	sarl	$5, %eax
	cltq
	movl	(%rbx,%rax,4), %eax
	btl	%r13d, %eax
	jb	.LBB19_26
.LBB19_27:                              # %if.end172
                                        #   in Loop: Header=BB19_21 Depth=3
	cmpl	%r8d, %r13d
	jg	.LBB19_119
# BB#28:                                # %while.cond178.preheader
                                        #   in Loop: Header=BB19_21 Depth=3
	leal	-32(%r13), %ecx
	leal	-1(%r13), %edi
	movl	%r13d, %r14d
	.align	16, 0x90
.LBB19_29:                              # %while.cond178
                                        #   Parent Loop BB19_15 Depth=1
                                        #     Parent Loop BB19_20 Depth=2
                                        #       Parent Loop BB19_21 Depth=3
                                        # =>      This Inner Loop Header: Depth=4
	movl	%r14d, %ebp
	movl	%ecx, %eax
	movl	%edi, %edx
	movl	%ebp, %ecx
	sarl	$5, %ecx
	movslq	%ecx, %rdi
	movl	%ebp, %ecx
	andl	$31, %ecx
	movl	$1, %esi
	shll	%cl, %esi
	andl	(%rbx,%rdi,4), %esi
	leal	1(%rbp), %r14d
	andl	$31, %ebp
	je	.LBB19_31
# BB#30:                                # %while.cond178
                                        #   in Loop: Header=BB19_29 Depth=4
	leal	1(%rax), %ecx
	leal	1(%rdx), %edi
	testl	%esi, %esi
	je	.LBB19_29
.LBB19_31:                              # %while.end192
                                        #   in Loop: Header=BB19_21 Depth=3
	testl	%esi, %esi
	je	.LBB19_33
# BB#32:                                #   in Loop: Header=BB19_21 Depth=3
	decl	%r14d
	jmp	.LBB19_35
	.align	16, 0x90
.LBB19_33:                              # %while.cond201
                                        #   Parent Loop BB19_15 Depth=1
                                        #     Parent Loop BB19_20 Depth=2
                                        #       Parent Loop BB19_21 Depth=3
                                        # =>      This Inner Loop Header: Depth=4
	movl	%edx, %r14d
	addl	$32, %eax
	movl	%eax, %ecx
	sarl	$5, %ecx
	movslq	%ecx, %rcx
	leal	32(%r14), %edx
	cmpl	$0, (%rbx,%rcx,4)
	je	.LBB19_33
	.align	16, 0x90
.LBB19_34:                              # %while.cond210
                                        #   Parent Loop BB19_15 Depth=1
                                        #     Parent Loop BB19_20 Depth=2
                                        #       Parent Loop BB19_21 Depth=3
                                        # =>      This Inner Loop Header: Depth=4
	incl	%r14d
	movl	%r14d, %eax
	sarl	$5, %eax
	cltq
	movl	(%rbx,%rax,4), %eax
	btl	%r14d, %eax
	jae	.LBB19_34
.LBB19_35:                              # %if.end221
                                        #   in Loop: Header=BB19_21 Depth=3
	cmpl	%r8d, %r14d
	jg	.LBB19_119
# BB#36:                                # %if.end226
                                        #   in Loop: Header=BB19_21 Depth=3
	leal	-1(%r14), %ecx
	cmpl	%r13d, %r14d
	jle	.LBB19_21
# BB#37:                                # %if.then229
                                        #   in Loop: Header=BB19_20 Depth=2
	leal	-1(%r13), %esi
	movl	%esi, 84(%rsp)          # 4-byte Spill
	movl	$1, %r12d
	movl	$1, %eax
	subl	%r13d, %eax
	movq	%rcx, %rdx
	movq	%rdx, 120(%rsp)         # 8-byte Spill
	movq	128(%rsp), %rcx         # 8-byte Reload
	addl	%eax, %ecx
	leal	1(%rdx,%rcx), %ecx
	movq	%rcx, 128(%rsp)         # 8-byte Spill
	movl	%esi, 2624(%rsp)
	movl	%edx, 2224(%rsp)
	xorl	%eax, %eax
	movq	%rax, 104(%rsp)         # 8-byte Spill
	jmp	.LBB19_38
.LBB19_110:                             # %vector.body.preheader
                                        #   in Loop: Header=BB19_38 Depth=3
	addq	%rdx, %rbp
	movq	%rbp, 48(%rsp)          # 8-byte Spill
	addl	%edx, 40(%rsp)          # 4-byte Folded Spill
	subl	%edx, %edi
	movq	144(%rsp), %rbp         # 8-byte Reload
	movl	112(%rsp), %ebx         # 4-byte Reload
	cmpl	%ebp, %ebx
	cmovgel	%ebx, %ebp
	cmpl	$-3, %ebp
	movl	$-2, %ecx
	cmovgl	%ebp, %ecx
	subl	%ebp, %ecx
	incq	%rcx
	movabsq	$8589934588, %rsi       # imm = 0x1FFFFFFFC
	andq	%rsi, %rcx
	leal	2(%rax,%rbp), %ebp
	movq	72(%rsp), %rsi          # 8-byte Reload
	movslq	%esi, %rsi
	leaq	(%r15,%rsi,4), %rsi
	movq	152(%rsp), %r10         # 8-byte Reload
	.align	16, 0x90
.LBB19_111:                             # %vector.body
                                        #   Parent Loop BB19_15 Depth=1
                                        #     Parent Loop BB19_20 Depth=2
                                        #       Parent Loop BB19_38 Depth=3
                                        # =>      This Inner Loop Header: Depth=4
	movups	(%rsi), %xmm0
	movslq	%ebp, %rbp
	movups	(%r15,%rbp,4), %xmm1
	movups	%xmm1, (%rsi)
	movups	%xmm0, (%r15,%rbp,4)
	addl	$4, %ebp
	addq	$16, %rsi
	addq	$-4, %rcx
	jne	.LBB19_111
# BB#112:                               # %middle.block
                                        #   in Loop: Header=BB19_38 Depth=3
	cmpq	%rdx, %r12
	movq	48(%rsp), %rbp          # 8-byte Reload
	movl	32(%rsp), %ebx          # 4-byte Reload
	je	.LBB19_115
	jmp	.LBB19_113
	.align	16, 0x90
.LBB19_38:                              # %while.body.lr.ph.i
                                        #   Parent Loop BB19_15 Depth=1
                                        #     Parent Loop BB19_20 Depth=2
                                        # =>    This Loop Header: Depth=3
                                        #         Child Loop BB19_39 Depth 4
                                        #           Child Loop BB19_54 Depth 5
                                        #             Child Loop BB19_57 Depth 6
                                        #           Child Loop BB19_46 Depth 5
                                        #             Child Loop BB19_48 Depth 6
                                        #         Child Loop BB19_66 Depth 4
                                        #           Child Loop BB19_68 Depth 5
                                        #             Child Loop BB19_69 Depth 6
                                        #           Child Loop BB19_77 Depth 5
                                        #         Child Loop BB19_99 Depth 4
                                        #         Child Loop BB19_102 Depth 4
                                        #         Child Loop BB19_111 Depth 4
                                        #         Child Loop BB19_114 Depth 4
	movslq	%r12d, %r12
	.align	16, 0x90
.LBB19_39:                              # %while.body.i
                                        #   Parent Loop BB19_15 Depth=1
                                        #     Parent Loop BB19_20 Depth=2
                                        #       Parent Loop BB19_38 Depth=3
                                        # =>      This Loop Header: Depth=4
                                        #           Child Loop BB19_54 Depth 5
                                        #             Child Loop BB19_57 Depth 6
                                        #           Child Loop BB19_46 Depth 5
                                        #             Child Loop BB19_48 Depth 6
	movq	%r12, %r11
	cmpq	$100, %r11
	jl	.LBB19_41
# BB#40:                                # %if.then.i
                                        #   in Loop: Header=BB19_39 Depth=4
	movl	$1004, %edi             # imm = 0x3EC
	movq	%r11, %rbp
	movq	%r9, %rbx
	callq	BZ2_bz__AssertH__fail
	movq	%rbx, %r9
	movq	%rbp, %r11
.LBB19_41:                              # %if.end.i
                                        #   in Loop: Header=BB19_39 Depth=4
	leaq	-1(%r11), %r12
	movslq	%r12d, %r8
	movl	2624(%rsp,%r8,4), %r10d
	movslq	%r10d, %rbx
	movl	2224(%rsp,%r8,4), %eax
	movslq	%eax, %rdx
	movl	%edx, %ecx
	subl	%ebx, %ecx
	cmpl	$9, %ecx
	jg	.LBB19_60
# BB#42:                                # %if.then9.i
                                        #   in Loop: Header=BB19_39 Depth=4
	cmpl	%r10d, %eax
	je	.LBB19_43
# BB#44:                                # %if.end.i.i
                                        #   in Loop: Header=BB19_39 Depth=4
	movq	%r12, 144(%rsp)         # 8-byte Spill
	movq	%rax, %r12
	movq	%r9, %r8
	movq	%r10, 152(%rsp)         # 8-byte Spill
	movq	%r11, 136(%rsp)         # 8-byte Spill
	cmpl	$3, %ecx
	jle	.LBB19_45
# BB#52:                                # %if.then3.i.i
                                        #   in Loop: Header=BB19_39 Depth=4
	leal	-4(%r12), %eax
	movq	152(%rsp), %rcx         # 8-byte Reload
	cmpl	%ecx, %eax
	jl	.LBB19_45
# BB#53:                                # %for.body.preheader.i.i
                                        #   in Loop: Header=BB19_39 Depth=4
	movslq	%eax, %rcx
	movl	%r12d, %esi
	.align	16, 0x90
.LBB19_54:                              # %for.body.i.i
                                        #   Parent Loop BB19_15 Depth=1
                                        #     Parent Loop BB19_20 Depth=2
                                        #       Parent Loop BB19_38 Depth=3
                                        #         Parent Loop BB19_39 Depth=4
                                        # =>        This Loop Header: Depth=5
                                        #             Child Loop BB19_57 Depth 6
	movslq	(%r15,%rcx,4), %rdi
	leaq	4(%rcx), %rax
	cmpq	%rdx, %rax
	jle	.LBB19_56
# BB#55:                                #   in Loop: Header=BB19_54 Depth=5
	movl	%ecx, %ebp
	jmp	.LBB19_59
	.align	16, 0x90
.LBB19_56:                              #   in Loop: Header=BB19_54 Depth=5
	movslq	%esi, %rax
	leaq	(%r15,%rax,4), %rax
	movl	(%r8,%rdi,4), %r9d
	movl	%ecx, %ebp
	.align	16, 0x90
.LBB19_57:                              # %land.rhs.i.i
                                        #   Parent Loop BB19_15 Depth=1
                                        #     Parent Loop BB19_20 Depth=2
                                        #       Parent Loop BB19_38 Depth=3
                                        #         Parent Loop BB19_39 Depth=4
                                        #           Parent Loop BB19_54 Depth=5
                                        # =>          This Inner Loop Header: Depth=6
	movl	(%rax), %r10d
	cmpl	(%r8,%r10,4), %r9d
	jbe	.LBB19_59
# BB#58:                                # %for.body15.i.i
                                        #   in Loop: Header=BB19_57 Depth=6
	movslq	%ebp, %r11
	movl	%r10d, (%r15,%r11,4)
	leal	4(%r11), %ebp
	addq	$16, %rax
	addl	$8, %r11d
	cmpl	%r12d, %r11d
	jle	.LBB19_57
.LBB19_59:                              # %for.end.i.i
                                        #   in Loop: Header=BB19_54 Depth=5
	movslq	%ebp, %rax
	movl	%edi, (%r15,%rax,4)
	decl	%esi
	cmpq	%rbx, %rcx
	leaq	-1(%rcx), %rcx
	jg	.LBB19_54
.LBB19_45:                              # %for.cond29.preheader.i.i
                                        #   in Loop: Header=BB19_39 Depth=4
	movq	152(%rsp), %rax         # 8-byte Reload
	cmpl	%eax, %r12d
	movq	%rdx, %rcx
	movq	136(%rsp), %r11         # 8-byte Reload
	movq	%r8, %r9
	movq	%r12, %r8
	movq	144(%rsp), %r12         # 8-byte Reload
	jle	.LBB19_43
	.align	16, 0x90
.LBB19_46:                              # %for.body31.i.i
                                        #   Parent Loop BB19_15 Depth=1
                                        #     Parent Loop BB19_20 Depth=2
                                        #       Parent Loop BB19_38 Depth=3
                                        #         Parent Loop BB19_39 Depth=4
                                        # =>        This Loop Header: Depth=5
                                        #             Child Loop BB19_48 Depth 6
	movq	%rcx, %rdi
	leaq	-1(%rdi), %rcx
	movslq	-4(%r15,%rdi,4), %rsi
	cmpl	%r8d, %edi
	jg	.LBB19_51
# BB#47:                                #   in Loop: Header=BB19_46 Depth=5
	movl	(%r9,%rsi,4), %eax
	.align	16, 0x90
.LBB19_48:                              # %land.rhs39.i.i
                                        #   Parent Loop BB19_15 Depth=1
                                        #     Parent Loop BB19_20 Depth=2
                                        #       Parent Loop BB19_38 Depth=3
                                        #         Parent Loop BB19_39 Depth=4
                                        #           Parent Loop BB19_46 Depth=5
                                        # =>          This Inner Loop Header: Depth=6
	movl	(%r15,%rdi,4), %ebp
	cmpl	(%r9,%rbp,4), %eax
	jbe	.LBB19_51
# BB#49:                                # %for.body46.i.i
                                        #   in Loop: Header=BB19_48 Depth=6
	movl	%ebp, -4(%r15,%rdi,4)
	leaq	1(%rdi), %rbp
	cmpq	%rdx, %rdi
	movq	%rbp, %rdi
	jl	.LBB19_48
# BB#50:                                # %for.end53.i.i.loopexitsplit
                                        #   in Loop: Header=BB19_46 Depth=5
	movl	%ebp, %edi
.LBB19_51:                              # %for.end53.i.i
                                        #   in Loop: Header=BB19_46 Depth=5
	movslq	%edi, %rax
	movl	%esi, -4(%r15,%rax,4)
	cmpq	%rbx, %rcx
	jg	.LBB19_46
.LBB19_43:                              # %while.cond.backedge.i
                                        #   in Loop: Header=BB19_39 Depth=4
	cmpq	$1, %r11
	jg	.LBB19_39
	jmp	.LBB19_86
	.align	16, 0x90
.LBB19_60:                              # %if.end10.i
                                        #   in Loop: Header=BB19_38 Depth=3
	movq	104(%rsp), %rdi         # 8-byte Reload
	imull	$7621, %edi, %edi       # imm = 0x1DC5
	incl	%edi
	andl	$32767, %edi            # imm = 0x7FFF
	movq	%rdi, 104(%rsp)         # 8-byte Spill
	movq	%rdi, %rcx
	movl	$2863311531, %esi       # imm = 0xAAAAAAAB
	imulq	%rsi, %rcx
	shrq	$33, %rcx
	leal	(%rcx,%rcx,2), %esi
	movl	%edi, %ecx
	subl	%esi, %ecx
	cmpl	$1, %ecx
	je	.LBB19_63
# BB#61:                                # %if.end10.i
                                        #   in Loop: Header=BB19_38 Depth=3
	testl	%ecx, %ecx
	jne	.LBB19_64
# BB#62:                                # %if.then13.i
                                        #   in Loop: Header=BB19_38 Depth=3
	movq	%r12, 144(%rsp)         # 8-byte Spill
	movl	(%r15,%rbx,4), %ecx
	movq	%rbx, 152(%rsp)         # 8-byte Spill
	jmp	.LBB19_65
.LBB19_63:                              # %if.then19.i
                                        #   in Loop: Header=BB19_38 Depth=3
	movq	%r12, 144(%rsp)         # 8-byte Spill
	movq	%rbx, 152(%rsp)         # 8-byte Spill
	leal	(%rax,%r10), %ecx
	sarl	%ecx
	movslq	%ecx, %rcx
	movl	(%r15,%rcx,4), %ecx
	jmp	.LBB19_65
.LBB19_64:                              # %if.else25.i
                                        #   in Loop: Header=BB19_38 Depth=3
	movq	%r12, 144(%rsp)         # 8-byte Spill
	movq	%rbx, 152(%rsp)         # 8-byte Spill
	movl	(%r15,%rdx,4), %ecx
.LBB19_65:                              # %if.end31.i
                                        #   in Loop: Header=BB19_38 Depth=3
	leaq	(%r9,%rcx,4), %rcx
	movl	(%rcx), %edx
	movl	%eax, %r12d
	movl	%r10d, %ecx
	movq	%rcx, 136(%rsp)         # 8-byte Spill
	movl	%eax, %edi
	movl	%r10d, %ebx
	jmp	.LBB19_66
	.align	16, 0x90
.LBB19_134:                             # %if.end92.i
                                        #   in Loop: Header=BB19_66 Depth=4
	movl	(%r15,%rcx,4), %ebp
	movl	%edi, (%r15,%rcx,4)
	movl	%ebp, (%r15,%rsi,4)
	incl	%ebx
	decl	%esi
	movl	%esi, %edi
.LBB19_66:                              # %while.body35.outer.i
                                        #   Parent Loop BB19_15 Depth=1
                                        #     Parent Loop BB19_20 Depth=2
                                        #       Parent Loop BB19_38 Depth=3
                                        # =>      This Loop Header: Depth=4
                                        #           Child Loop BB19_68 Depth 5
                                        #             Child Loop BB19_69 Depth 6
                                        #           Child Loop BB19_77 Depth 5
	cmpl	%edi, %ebx
	jg	.LBB19_72
# BB#67:                                # %if.end38.lr.ph.preheader.i
                                        #   in Loop: Header=BB19_66 Depth=4
	movslq	%edi, %rcx
	movq	136(%rsp), %rsi         # 8-byte Reload
	movslq	%esi, %rsi
	movq	%rsi, 136(%rsp)         # 8-byte Spill
	movq	%rbx, %rbp
.LBB19_68:                              # %if.end38.lr.ph.i
                                        #   Parent Loop BB19_15 Depth=1
                                        #     Parent Loop BB19_20 Depth=2
                                        #       Parent Loop BB19_38 Depth=3
                                        #         Parent Loop BB19_66 Depth=4
                                        # =>        This Loop Header: Depth=5
                                        #             Child Loop BB19_69 Depth 6
	movl	%edi, 112(%rsp)         # 4-byte Spill
	movslq	%ebp, %rsi
	.align	16, 0x90
.LBB19_69:                              # %if.end38.i
                                        #   Parent Loop BB19_15 Depth=1
                                        #     Parent Loop BB19_20 Depth=2
                                        #       Parent Loop BB19_38 Depth=3
                                        #         Parent Loop BB19_66 Depth=4
                                        #           Parent Loop BB19_68 Depth=5
                                        # =>          This Inner Loop Header: Depth=6
	movl	(%r15,%rsi,4), %edi
	cmpl	%edx, (%r9,%rdi,4)
	je	.LBB19_70
# BB#74:                                # %if.end56.i
                                        #   in Loop: Header=BB19_69 Depth=6
	jg	.LBB19_76
# BB#75:                                # %if.end59.i
                                        #   in Loop: Header=BB19_69 Depth=6
	cmpq	%rcx, %rsi
	leaq	1(%rsi), %rsi
	jl	.LBB19_69
	jmp	.LBB19_76
	.align	16, 0x90
.LBB19_70:                              # %if.then45.i
                                        #   in Loop: Header=BB19_68 Depth=5
	movq	136(%rsp), %rbx         # 8-byte Reload
	movl	(%r15,%rbx,4), %ebp
	movl	%ebp, (%r15,%rsi,4)
	movl	%edi, (%r15,%rbx,4)
	incq	%rbx
	movq	%rbx, 136(%rsp)         # 8-byte Spill
	leal	1(%rsi), %ebp
	movl	112(%rsp), %edi         # 4-byte Reload
	cmpl	%edi, %esi
	jl	.LBB19_68
# BB#71:                                # %while.body62.preheader.i.loopexit
                                        #   in Loop: Header=BB19_66 Depth=4
	incl	%esi
	movl	%esi, %ebx
	jmp	.LBB19_72
	.align	16, 0x90
.LBB19_76:                              # %if.end56.i.while.body62.preheader.loopexit.i_crit_edge
                                        #   in Loop: Header=BB19_66 Depth=4
	movl	112(%rsp), %edi         # 4-byte Reload
	movq	%rsi, %rbx
.LBB19_72:                              # %while.body62.preheader.i
                                        #   in Loop: Header=BB19_66 Depth=4
	cmpl	%edi, %ebx
	jg	.LBB19_84
# BB#73:                                # %if.end65.lr.ph.preheader.i
                                        #   in Loop: Header=BB19_66 Depth=4
	movslq	%ebx, %rcx
	movslq	%r12d, %r12
	movslq	%edi, %rsi
	jmp	.LBB19_77
.LBB19_79:                              # %if.end65.lr.ph.i
                                        #   in Loop: Header=BB19_77 Depth=5
	movslq	%edi, %rsi
	.align	16, 0x90
.LBB19_77:                              # %if.end65.i
                                        #   Parent Loop BB19_15 Depth=1
                                        #     Parent Loop BB19_20 Depth=2
                                        #       Parent Loop BB19_38 Depth=3
                                        #         Parent Loop BB19_66 Depth=4
                                        # =>        This Inner Loop Header: Depth=5
	movl	(%r15,%rsi,4), %edi
	cmpl	%edx, (%r9,%rdi,4)
	je	.LBB19_78
# BB#80:                                # %if.end84.i
                                        #   in Loop: Header=BB19_77 Depth=5
	jl	.LBB19_134
# BB#81:                                # %if.end87.i
                                        #   in Loop: Header=BB19_77 Depth=5
	cmpq	%rsi, %rcx
	leaq	-1(%rsi), %rsi
	jl	.LBB19_77
	jmp	.LBB19_83
.LBB19_78:                              # %if.then72.i
                                        #   in Loop: Header=BB19_77 Depth=5
	movl	(%r15,%r12,4), %ebp
	movl	%ebp, (%r15,%rsi,4)
	movl	%edi, (%r15,%r12,4)
	decq	%r12
	leal	-1(%rsi), %edi
	cmpl	%esi, %ebx
	jl	.LBB19_79
# BB#82:                                # %while.end104.i.loopexit
                                        #   in Loop: Header=BB19_38 Depth=3
	decl	%esi
	.align	16, 0x90
.LBB19_83:                              # %while.end104.i
                                        #   in Loop: Header=BB19_38 Depth=3
	movl	%esi, %edi
.LBB19_84:                              # %while.end104.i
                                        #   in Loop: Header=BB19_38 Depth=3
	movq	136(%rsp), %rdx         # 8-byte Reload
	cmpl	%edx, %r12d
	jl	.LBB19_85
# BB#91:                                # %if.end107.i
                                        #   in Loop: Header=BB19_38 Depth=3
	movl	%edi, 112(%rsp)         # 4-byte Spill
	movq	%r12, 144(%rsp)         # 8-byte Spill
	movl	%edx, %ecx
	subl	%r10d, %ecx
	movl	%ebx, %esi
	subl	%edx, %esi
	cmpl	%esi, %ecx
	cmovlel	%ecx, %esi
	testl	%esi, %esi
	movq	%rdx, %rcx
	jle	.LBB19_103
# BB#92:                                # %while.body116.preheader.i
                                        #   in Loop: Header=BB19_38 Depth=3
	leal	-1(%rcx), %edi
	subl	%ebx, %edi
	leal	-1(%r10), %ebp
	subl	%ecx, %ebp
	cmpl	%ebp, %edi
	movl	%ebp, %ecx
	cmovgel	%edi, %ecx
	leal	1(%rbx,%rcx), %edx
	movslq	%edx, %r12
	cmpl	$-3, %ecx
	movl	$-2, %edx
	cmovgl	%ecx, %edx
	subl	%ecx, %edx
	incq	%rdx
	cmpq	$4, %rdx
	jb	.LBB19_101
# BB#93:                                # %min.iters.checked683
                                        #   in Loop: Header=BB19_38 Depth=3
	movq	%r12, 48(%rsp)          # 8-byte Spill
	movl	%edi, %r12d
	movq	%rdx, %rdi
	movabsq	$8589934588, %rcx       # imm = 0x1FFFFFFFC
	andq	%rcx, %rdi
	je	.LBB19_94
# BB#95:                                # %vector.memcheck703
                                        #   in Loop: Header=BB19_38 Depth=3
	movq	%rdi, 24(%rsp)          # 8-byte Spill
	movq	%rdx, 32(%rsp)          # 8-byte Spill
	movq	%rax, 40(%rsp)          # 8-byte Spill
	movq	152(%rsp), %rax         # 8-byte Reload
	leaq	(%r15,%rax,4), %rdx
	movl	%r12d, 12(%rsp)         # 4-byte Spill
	cmpl	%ebp, %r12d
	movl	%ebp, %edi
	movq	%rbp, 16(%rsp)          # 8-byte Spill
	cmovgel	%r12d, %edi
	cmpl	$-3, %edi
	movl	$-2, %ecx
	cmovgl	%edi, %ecx
	subl	%edi, %ecx
	leal	1(%rbx,%rdi), %edi
	movslq	%edi, %rdi
	leaq	(%rdi,%rcx), %rbp
	leaq	(%r15,%rbp,4), %rbp
	cmpq	%rbp, %rdx
	ja	.LBB19_98
# BB#96:                                # %vector.memcheck703
                                        #   in Loop: Header=BB19_38 Depth=3
	addq	%rax, %rcx
	leaq	(%r15,%rcx,4), %rcx
	leaq	(%r15,%rdi,4), %rdi
	cmpq	%rcx, %rdi
	ja	.LBB19_98
# BB#97:                                #   in Loop: Header=BB19_38 Depth=3
	movq	40(%rsp), %rax          # 8-byte Reload
	movq	48(%rsp), %r12          # 8-byte Reload
	jmp	.LBB19_101
.LBB19_94:                              #   in Loop: Header=BB19_38 Depth=3
	movq	48(%rsp), %r12          # 8-byte Reload
	jmp	.LBB19_101
.LBB19_98:                              # %vector.body676.preheader
                                        #   in Loop: Header=BB19_38 Depth=3
	movq	24(%rsp), %rbp          # 8-byte Reload
	addq	%rbp, %rax
	movq	%rax, 152(%rsp)         # 8-byte Spill
	movq	48(%rsp), %r12          # 8-byte Reload
	addq	%rbp, %r12
	subl	%ebp, %esi
	movq	16(%rsp), %rax          # 8-byte Reload
	movl	12(%rsp), %ecx          # 4-byte Reload
	cmpl	%eax, %ecx
	cmovgel	%ecx, %eax
	cmpl	$-3, %eax
	movl	$-2, %ecx
	cmovgl	%eax, %ecx
	subl	%eax, %ecx
	incq	%rcx
	movabsq	$8589934588, %rdi       # imm = 0x1FFFFFFFC
	andq	%rdi, %rcx
	leal	1(%rbx,%rax), %edi
	movslq	%edi, %rdi
	leaq	(%r15,%rdi,4), %rdi
	.align	16, 0x90
.LBB19_99:                              # %vector.body676
                                        #   Parent Loop BB19_15 Depth=1
                                        #     Parent Loop BB19_20 Depth=2
                                        #       Parent Loop BB19_38 Depth=3
                                        # =>      This Inner Loop Header: Depth=4
	movups	(%rdx), %xmm0
	movups	(%rdi), %xmm1
	movups	%xmm1, (%rdx)
	movups	%xmm0, (%rdi)
	addq	$16, %rdi
	addq	$16, %rdx
	addq	$-4, %rcx
	jne	.LBB19_99
# BB#100:                               # %middle.block677
                                        #   in Loop: Header=BB19_38 Depth=3
	cmpq	%rbp, 32(%rsp)          # 8-byte Folded Reload
	movq	40(%rsp), %rax          # 8-byte Reload
	je	.LBB19_103
.LBB19_101:                             # %while.body116.i.preheader
                                        #   in Loop: Header=BB19_38 Depth=3
	movq	152(%rsp), %rcx         # 8-byte Reload
	leaq	(%r15,%rcx,4), %rcx
	leaq	(%r15,%r12,4), %rdx
	incl	%esi
	.align	16, 0x90
.LBB19_102:                             # %while.body116.i
                                        #   Parent Loop BB19_15 Depth=1
                                        #     Parent Loop BB19_20 Depth=2
                                        #       Parent Loop BB19_38 Depth=3
                                        # =>      This Inner Loop Header: Depth=4
	movl	(%rcx), %edi
	movl	(%rdx), %ebp
	movl	%ebp, (%rcx)
	movl	%edi, (%rdx)
	addq	$4, %rcx
	addq	$4, %rdx
	decl	%esi
	cmpl	$1, %esi
	jg	.LBB19_102
.LBB19_103:                             # %while.end129.i
                                        #   in Loop: Header=BB19_38 Depth=3
	movq	%rbx, 72(%rsp)          # 8-byte Spill
	movl	%eax, %edi
	movq	144(%rsp), %rsi         # 8-byte Reload
	subl	%esi, %edi
	movl	%esi, %ebx
	movl	112(%rsp), %ebp         # 4-byte Reload
	subl	%ebp, %ebx
	cmpl	%ebx, %edi
	cmovgl	%ebx, %edi
	testl	%edi, %edi
	jle	.LBB19_115
# BB#104:                               # %while.body146.preheader.i
                                        #   in Loop: Header=BB19_38 Depth=3
	movl	%ebx, 32(%rsp)          # 4-byte Spill
	movl	%eax, %ecx
	subl	%edi, %ecx
	movl	%ecx, 40(%rsp)          # 4-byte Spill
	movq	72(%rsp), %rcx          # 8-byte Reload
	movslq	%ecx, %rcx
	movq	%rcx, 48(%rsp)          # 8-byte Spill
	decl	%ebp
	subl	%esi, %ebp
	decl	%esi
	subl	%eax, %esi
	cmpl	%esi, %ebp
	movl	%esi, %ecx
	cmovgel	%ebp, %ecx
	cmpl	$-3, %ecx
	movl	$-2, %r12d
	cmovgl	%ecx, %r12d
	subl	%ecx, %r12d
	incq	%r12
	cmpq	$4, %r12
	jb	.LBB19_105
# BB#106:                               # %min.iters.checked
                                        #   in Loop: Header=BB19_38 Depth=3
	movq	%r12, %rdx
	movabsq	$8589934588, %rcx       # imm = 0x1FFFFFFFC
	andq	%rcx, %rdx
	je	.LBB19_105
# BB#107:                               # %vector.memcheck
                                        #   in Loop: Header=BB19_38 Depth=3
	movq	%r10, 152(%rsp)         # 8-byte Spill
	movq	48(%rsp), %rbx          # 8-byte Reload
	leaq	(%r15,%rbx,4), %r10
	cmpl	%esi, %ebp
	movq	%rsi, 144(%rsp)         # 8-byte Spill
	cmovgel	%ebp, %esi
	movl	%ebp, 112(%rsp)         # 4-byte Spill
	cmpl	$-3, %esi
	movl	$-2, %ecx
	cmovgl	%esi, %ecx
	subl	%esi, %ecx
	leal	2(%rax,%rsi), %esi
	movslq	%esi, %rsi
	leaq	(%rsi,%rcx), %rbp
	leaq	(%r15,%rbp,4), %rbp
	cmpq	%rbp, %r10
	movq	%rbx, %rbp
	ja	.LBB19_110
# BB#108:                               # %vector.memcheck
                                        #   in Loop: Header=BB19_38 Depth=3
	addq	%rbp, %rcx
	leaq	(%r15,%rcx,4), %rcx
	leaq	(%r15,%rsi,4), %rsi
	cmpq	%rcx, %rsi
	ja	.LBB19_110
# BB#109:                               #   in Loop: Header=BB19_38 Depth=3
	movq	152(%rsp), %r10         # 8-byte Reload
	movl	32(%rsp), %ebx          # 4-byte Reload
	jmp	.LBB19_113
.LBB19_105:                             #   in Loop: Header=BB19_38 Depth=3
	movq	48(%rsp), %rbp          # 8-byte Reload
	movl	32(%rsp), %ebx          # 4-byte Reload
.LBB19_113:                             # %while.body146.i.preheader
                                        #   in Loop: Header=BB19_38 Depth=3
	leaq	(%r15,%rbp,4), %rcx
	movl	40(%rsp), %edx          # 4-byte Reload
	incl	%edx
	movslq	%edx, %rdx
	leaq	(%r15,%rdx,4), %rdx
	incl	%edi
	.align	16, 0x90
.LBB19_114:                             # %while.body146.i
                                        #   Parent Loop BB19_15 Depth=1
                                        #     Parent Loop BB19_20 Depth=2
                                        #       Parent Loop BB19_38 Depth=3
                                        # =>      This Inner Loop Header: Depth=4
	movl	(%rcx), %esi
	movl	(%rdx), %ebp
	movl	%ebp, (%rcx)
	movl	%esi, (%rdx)
	addq	$4, %rcx
	addq	$4, %rdx
	decl	%edi
	cmpl	$1, %edi
	jg	.LBB19_114
.LBB19_115:                             # %while.end159.i
                                        #   in Loop: Header=BB19_38 Depth=3
	leal	-1(%r10), %ecx
	movq	136(%rsp), %rdx         # 8-byte Reload
	subl	%edx, %ecx
	movq	72(%rsp), %rdx          # 8-byte Reload
	addl	%edx, %ecx
	movl	%eax, %edx
	subl	%ebx, %edx
	incl	%edx
	movl	%ecx, %esi
	subl	%r10d, %esi
	movl	%eax, %edi
	subl	%edx, %edi
	cmpl	%edi, %esi
	jle	.LBB19_118
# BB#116:                               # %if.then169.i
                                        #   in Loop: Header=BB19_38 Depth=3
	movl	%ecx, 2224(%rsp,%r8,4)
	movslq	%r11d, %rcx
	movl	%edx, 2624(%rsp,%rcx,4)
	movl	%eax, 2224(%rsp,%rcx,4)
	jmp	.LBB19_117
.LBB19_118:                             # %if.else180.i
                                        #   in Loop: Header=BB19_38 Depth=3
	movl	%edx, 2624(%rsp,%r8,4)
	movslq	%r11d, %rdx
	movl	%r10d, 2624(%rsp,%rdx,4)
	movl	%ecx, 2224(%rsp,%rdx,4)
.LBB19_117:                             # %while.cond.outer.backedge.i
                                        #   in Loop: Header=BB19_38 Depth=3
	leal	1(%r11), %eax
	movq	%rax, 144(%rsp)         # 8-byte Spill
.LBB19_85:                              # %while.cond.outer.backedge.i
                                        #   in Loop: Header=BB19_38 Depth=3
	movq	144(%rsp), %r12         # 8-byte Reload
	testl	%r12d, %r12d
	jg	.LBB19_38
	.align	16, 0x90
.LBB19_86:                              # %fallbackQSort3.exit
                                        #   in Loop: Header=BB19_20 Depth=2
	cmpl	%r14d, %r13d
	movq	64(%rsp), %r8           # 8-byte Reload
	movq	56(%rsp), %rbx          # 8-byte Reload
	jg	.LBB19_20
# BB#87:                                # %for.body236.preheader
                                        #   in Loop: Header=BB19_20 Depth=2
	movslq	84(%rsp), %rcx          # 4-byte Folded Reload
	movl	$-1, %eax
	.align	16, 0x90
.LBB19_88:                              # %for.body236
                                        #   Parent Loop BB19_15 Depth=1
                                        #     Parent Loop BB19_20 Depth=2
                                        # =>    This Inner Loop Header: Depth=3
	movl	(%r15,%rcx,4), %edx
	movl	(%r9,%rdx,4), %edx
	cmpl	%edx, %eax
	je	.LBB19_90
# BB#89:                                # %if.then243
                                        #   in Loop: Header=BB19_88 Depth=3
	movl	$1, %eax
	shll	%cl, %eax
	movl	%ecx, %esi
	sarl	$5, %esi
	movslq	%esi, %rsi
	orl	%eax, (%rbx,%rsi,4)
	movl	%edx, %eax
.LBB19_90:                              # %for.inc251
                                        #   in Loop: Header=BB19_88 Depth=3
	incq	%rcx
	cmpl	%r14d, %ecx
	jl	.LBB19_88
	jmp	.LBB19_20
	.align	16, 0x90
.LBB19_119:                             # %while.end255
                                        #   in Loop: Header=BB19_15 Depth=1
	movl	100(%rsp), %r13d        # 4-byte Reload
	cmpl	$4, %r13d
	jge	.LBB19_120
.LBB19_121:                             # %if.end260
                                        #   in Loop: Header=BB19_15 Depth=1
	movl	116(%rsp), %ebp         # 4-byte Reload
	addl	%ebp, %ebp
	cmpl	%r8d, %ebp
	jg	.LBB19_123
# BB#122:                               # %if.end260
                                        #   in Loop: Header=BB19_15 Depth=1
	movq	128(%rsp), %rax         # 8-byte Reload
	testl	%eax, %eax
	jne	.LBB19_15
.LBB19_123:                             # %while.end268
	cmpl	$4, %r13d
	jge	.LBB19_124
.LBB19_125:                             # %for.cond274.preheader
	xorl	%eax, %eax
	testl	%r8d, %r8d
	jle	.LBB19_132
# BB#126:
	xorl	%ecx, %ecx
	.align	16, 0x90
.LBB19_127:                             # %while.cond278.preheader
                                        # =>This Loop Header: Depth=1
                                        #     Child Loop BB19_128 Depth 2
	movslq	%ecx, %rcx
	decq	%rcx
	.align	16, 0x90
.LBB19_128:                             # %while.cond278
                                        #   Parent Loop BB19_127 Depth=1
                                        # =>  This Inner Loop Header: Depth=2
	movq	%rcx, %rdx
	movl	164(%rsp,%rdx,4), %esi
	leaq	1(%rdx), %rcx
	testl	%esi, %esi
	je	.LBB19_128
# BB#129:                               # %while.end285
                                        #   in Loop: Header=BB19_127 Depth=1
	decl	%esi
	movl	%esi, 164(%rsp,%rdx,4)
	movl	(%r15,%rax,4), %edx
	leal	256(%rcx), %esi
	movb	%sil, (%r9,%rdx)
	incq	%rax
	cmpl	%r8d, %eax
	jne	.LBB19_127
# BB#130:                               # %for.end295
	cmpl	$256, %ecx              # imm = 0x100
	jl	.LBB19_132
# BB#131:                               # %if.then298
	movl	$1005, %edi             # imm = 0x3ED
	callq	BZ2_bz__AssertH__fail
.LBB19_132:                             # %if.end299
	addq	$3032, %rsp             # imm = 0xBD8
	popq	%rbx
	popq	%r12
	popq	%r13
	popq	%r14
	popq	%r15
	popq	%rbp
	retq
.LBB19_133:                             # %if.then
	movq	stderr(%rip), %rcx
	movl	$.L.str.2, %edi
	movl	$27, %esi
	movl	$1, %edx
	callq	fwrite
	jmp	.LBB19_1
.LBB19_124:                             # %if.then271
	movq	stderr(%rip), %rcx
	movl	$.L.str.5.2, %edi
	movl	$33, %esi
	movl	$1, %edx
	movq	%r8, %rbp
	movq	%r9, %rbx
	callq	fwrite
	movq	%rbx, %r9
	movq	%rbp, %r8
	jmp	.LBB19_125
.Lfunc_end19:
	.size	fallbackSort, .Lfunc_end19-fallbackSort
	.cfi_endproc

	.align	16, 0x90
	.type	mainGtU,@function
mainGtU:                                # @mainGtU
	.cfi_startproc
# BB#0:                                 # %entry
	pushq	%rbp
.Ltmp117:
	.cfi_def_cfa_offset 16
	pushq	%rbx
.Ltmp118:
	.cfi_def_cfa_offset 24
.Ltmp119:
	.cfi_offset %rbx, -24
.Ltmp120:
	.cfi_offset %rbp, -16
	movl	%edi, %eax
	movzbl	(%rdx,%rax), %eax
	movl	%esi, %ebp
	movzbl	(%rdx,%rbp), %ebx
	cmpl	%ebx, %eax
	jne	.LBB20_1
# BB#3:                                 # %if.end
	leal	1(%rdi), %eax
	leal	1(%rsi), %ebp
	movzbl	(%rdx,%rax), %eax
	movzbl	(%rdx,%rbp), %ebx
	cmpl	%ebx, %eax
	jne	.LBB20_1
# BB#4:                                 # %if.end25
	leal	2(%rdi), %eax
	leal	2(%rsi), %ebp
	movzbl	(%rdx,%rax), %eax
	movzbl	(%rdx,%rbp), %ebx
	cmpl	%ebx, %eax
	jne	.LBB20_1
# BB#5:                                 # %if.end42
	leal	3(%rdi), %eax
	leal	3(%rsi), %ebp
	movzbl	(%rdx,%rax), %eax
	movzbl	(%rdx,%rbp), %ebx
	cmpl	%ebx, %eax
	jne	.LBB20_1
# BB#6:                                 # %if.end59
	leal	4(%rdi), %eax
	leal	4(%rsi), %ebp
	movzbl	(%rdx,%rax), %eax
	movzbl	(%rdx,%rbp), %ebx
	cmpl	%ebx, %eax
	jne	.LBB20_1
# BB#7:                                 # %if.end76
	leal	5(%rdi), %eax
	leal	5(%rsi), %ebp
	movzbl	(%rdx,%rax), %eax
	movzbl	(%rdx,%rbp), %ebx
	cmpl	%ebx, %eax
	jne	.LBB20_1
# BB#8:                                 # %if.end93
	leal	6(%rdi), %eax
	leal	6(%rsi), %ebp
	movzbl	(%rdx,%rax), %eax
	movzbl	(%rdx,%rbp), %ebx
	cmpl	%ebx, %eax
	jne	.LBB20_1
# BB#9:                                 # %if.end110
	leal	7(%rdi), %eax
	leal	7(%rsi), %ebp
	movzbl	(%rdx,%rax), %eax
	movzbl	(%rdx,%rbp), %ebx
	cmpl	%ebx, %eax
	jne	.LBB20_1
# BB#10:                                # %if.end127
	leal	8(%rdi), %eax
	leal	8(%rsi), %ebp
	movzbl	(%rdx,%rax), %eax
	movzbl	(%rdx,%rbp), %ebx
	cmpl	%ebx, %eax
	jne	.LBB20_1
# BB#11:                                # %if.end144
	leal	9(%rdi), %eax
	leal	9(%rsi), %ebp
	movzbl	(%rdx,%rax), %eax
	movzbl	(%rdx,%rbp), %ebx
	cmpl	%ebx, %eax
	jne	.LBB20_1
# BB#12:                                # %if.end161
	leal	10(%rdi), %eax
	leal	10(%rsi), %ebp
	movzbl	(%rdx,%rax), %eax
	movzbl	(%rdx,%rbp), %ebx
	cmpl	%ebx, %eax
	jne	.LBB20_1
# BB#13:                                # %if.end178
	leal	11(%rdi), %eax
	leal	11(%rsi), %ebp
	movzbl	(%rdx,%rax), %eax
	movzbl	(%rdx,%rbp), %ebx
	cmpl	%ebx, %eax
	jne	.LBB20_1
# BB#14:                                # %if.end195
	addl	$12, %edi
	addl	$12, %esi
	leal	8(%r8), %r10d
.LBB20_15:                              # %do.body
                                        # =>This Inner Loop Header: Depth=1
	movl	%edi, %edi
	movzbl	(%rdx,%rdi), %eax
	movl	%esi, %esi
	movzbl	(%rdx,%rsi), %ebx
	cmpl	%ebx, %eax
	jne	.LBB20_1
# BB#16:                                # %if.end212
                                        #   in Loop: Header=BB20_15 Depth=1
	movzwl	(%rcx,%rdi,2), %eax
	movzwl	(%rcx,%rsi,2), %ebx
	cmpl	%ebx, %eax
	jne	.LBB20_17
# BB#18:                                # %if.end227
                                        #   in Loop: Header=BB20_15 Depth=1
	leal	1(%rdi), %r11d
	leal	1(%rsi), %eax
	movzbl	(%rdx,%r11), %ebx
	movzbl	(%rdx,%rax), %ebp
	cmpl	%ebp, %ebx
	jne	.LBB20_19
# BB#20:                                # %if.end244
                                        #   in Loop: Header=BB20_15 Depth=1
	movzwl	(%rcx,%r11,2), %ebp
	movzwl	(%rcx,%rax,2), %eax
	cmpl	%eax, %ebp
	jne	.LBB20_21
# BB#22:                                # %if.end259
                                        #   in Loop: Header=BB20_15 Depth=1
	leal	2(%rdi), %r11d
	leal	2(%rsi), %eax
	movzbl	(%rdx,%r11), %ebx
	movzbl	(%rdx,%rax), %ebp
	cmpl	%ebp, %ebx
	jne	.LBB20_19
# BB#23:                                # %if.end276
                                        #   in Loop: Header=BB20_15 Depth=1
	movzwl	(%rcx,%r11,2), %ebp
	movzwl	(%rcx,%rax,2), %eax
	cmpl	%eax, %ebp
	jne	.LBB20_21
# BB#24:                                # %if.end291
                                        #   in Loop: Header=BB20_15 Depth=1
	leal	3(%rdi), %r11d
	leal	3(%rsi), %eax
	movzbl	(%rdx,%r11), %ebx
	movzbl	(%rdx,%rax), %ebp
	cmpl	%ebp, %ebx
	jne	.LBB20_19
# BB#25:                                # %if.end308
                                        #   in Loop: Header=BB20_15 Depth=1
	movzwl	(%rcx,%r11,2), %ebp
	movzwl	(%rcx,%rax,2), %eax
	cmpl	%eax, %ebp
	jne	.LBB20_21
# BB#26:                                # %if.end323
                                        #   in Loop: Header=BB20_15 Depth=1
	leal	4(%rdi), %r11d
	leal	4(%rsi), %eax
	movzbl	(%rdx,%r11), %ebx
	movzbl	(%rdx,%rax), %ebp
	cmpl	%ebp, %ebx
	jne	.LBB20_19
# BB#27:                                # %if.end340
                                        #   in Loop: Header=BB20_15 Depth=1
	movzwl	(%rcx,%r11,2), %ebp
	movzwl	(%rcx,%rax,2), %eax
	cmpl	%eax, %ebp
	jne	.LBB20_21
# BB#28:                                # %if.end355
                                        #   in Loop: Header=BB20_15 Depth=1
	leal	5(%rdi), %r11d
	leal	5(%rsi), %eax
	movzbl	(%rdx,%r11), %ebx
	movzbl	(%rdx,%rax), %ebp
	cmpl	%ebp, %ebx
	jne	.LBB20_19
# BB#29:                                # %if.end372
                                        #   in Loop: Header=BB20_15 Depth=1
	movzwl	(%rcx,%r11,2), %ebp
	movzwl	(%rcx,%rax,2), %eax
	cmpl	%eax, %ebp
	jne	.LBB20_21
# BB#30:                                # %if.end387
                                        #   in Loop: Header=BB20_15 Depth=1
	leal	6(%rdi), %r11d
	leal	6(%rsi), %eax
	movzbl	(%rdx,%r11), %ebx
	movzbl	(%rdx,%rax), %ebp
	cmpl	%ebp, %ebx
	jne	.LBB20_19
# BB#31:                                # %if.end404
                                        #   in Loop: Header=BB20_15 Depth=1
	movzwl	(%rcx,%r11,2), %ebp
	movzwl	(%rcx,%rax,2), %eax
	cmpl	%eax, %ebp
	jne	.LBB20_21
# BB#32:                                # %if.end419
                                        #   in Loop: Header=BB20_15 Depth=1
	leal	7(%rdi), %r11d
	leal	7(%rsi), %eax
	movzbl	(%rdx,%r11), %ebx
	movzbl	(%rdx,%rax), %ebp
	cmpl	%ebp, %ebx
	jne	.LBB20_19
# BB#33:                                # %if.end436
                                        #   in Loop: Header=BB20_15 Depth=1
	movzwl	(%rcx,%r11,2), %ebp
	movzwl	(%rcx,%rax,2), %eax
	cmpl	%eax, %ebp
	jne	.LBB20_21
# BB#34:                                # %if.end451
                                        #   in Loop: Header=BB20_15 Depth=1
	addl	$8, %edi
	addl	$8, %esi
	xorl	%eax, %eax
	cmpl	%r8d, %edi
	movl	%r8d, %ebp
	cmovbl	%eax, %ebp
	subl	%ebp, %edi
	cmpl	%r8d, %esi
	movl	%r8d, %ebp
	cmovbl	%eax, %ebp
	subl	%ebp, %esi
	decl	(%r9)
	addl	$-8, %r10d
	jns	.LBB20_15
	jmp	.LBB20_35
.LBB20_1:                               # %if.then
	movzbl	%al, %eax
	movzbl	%bl, %ecx
.LBB20_2:                               # %cleanup
	cmpl	%eax, %ecx
	setb	%al
.LBB20_35:                              # %cleanup
	movzbl	%al, %eax
	popq	%rbx
	popq	%rbp
	retq
.LBB20_19:                              # %if.then238
	movzbl	%bl, %eax
	movzbl	%bpl, %ecx
	jmp	.LBB20_2
.LBB20_21:                              # %if.then253
	movzwl	%bp, %ecx
	movzwl	%ax, %eax
	cmpl	%ecx, %eax
	setb	%al
	jmp	.LBB20_35
.LBB20_17:                              # %if.then221
	movzwl	%ax, %eax
	movzwl	%bx, %ecx
	jmp	.LBB20_2
.Lfunc_end20:
	.size	mainGtU, .Lfunc_end20-mainGtU
	.cfi_endproc

	.section	.rodata.cst8,"aM",@progbits,8
	.align	8
.LCPI21_0:
	.quad	4607182418800017408     # double 1
.LCPI21_1:
	.quad	4643211215818981376     # double 256
.LCPI21_2:
	.quad	4620693217682128896     # double 8
.LCPI21_3:
	.quad	4636737291354636288     # double 100
	.text
	.globl	compressStream
	.align	16, 0x90
	.type	compressStream,@function
compressStream:                         # @compressStream
	.cfi_startproc
# BB#0:                                 # %entry
	pushq	%rbp
.Ltmp121:
	.cfi_def_cfa_offset 16
	pushq	%r14
.Ltmp122:
	.cfi_def_cfa_offset 24
	pushq	%rbx
.Ltmp123:
	.cfi_def_cfa_offset 32
	subq	$5184, %rsp             # imm = 0x1440
.Ltmp124:
	.cfi_def_cfa_offset 5216
.Ltmp125:
	.cfi_offset %rbx, -32
.Ltmp126:
	.cfi_offset %r14, -24
.Ltmp127:
	.cfi_offset %rbp, -16
	movl	%esi, %r14d
	movl	%edi, %ebp
	movl	blockSize100k(%rip), %edx
	movl	verbosity(%rip), %ecx
	movl	workFactor(%rip), %r8d
	leaq	108(%rsp), %rdi
	callq	BZ2_bzWriteOpen
	movq	%rax, %rbx
	cmpl	$0, 108(%rsp)
	jne	.LBB21_7
# BB#1:                                 # %if.end
	cmpl	$2, verbosity(%rip)
	jl	.LBB21_3
# BB#2:                                 # %if.then2
	movq	stderr(%rip), %rsi
	movl	$10, %edi
	callq	fputc
	.align	16, 0x90
.LBB21_3:                               # %while.body
                                        # =>This Inner Loop Header: Depth=1
	movl	%ebp, %edi
	callq	spec_getc
	cmpl	$-1, %eax
	je	.LBB21_11
# BB#4:                                 # %if.end7
                                        #   in Loop: Header=BB21_3 Depth=1
	movzbl	%al, %edi
	movl	%ebp, %esi
	callq	spec_ungetc
	leaq	128(%rsp), %rdi
	movl	$1, %esi
	movl	$5000, %edx             # imm = 0x1388
	movl	%ebp, %ecx
	callq	spec_fread
	testl	%eax, %eax
	jle	.LBB21_6
# BB#5:                                 # %if.then10
                                        #   in Loop: Header=BB21_3 Depth=1
	leaq	108(%rsp), %rdi
	leaq	128(%rsp), %rdx
	movq	%rbx, %rsi
	movl	%eax, %ecx
	callq	BZ2_bzWrite
.LBB21_6:                               # %if.end12
                                        #   in Loop: Header=BB21_3 Depth=1
	cmpl	$0, 108(%rsp)
	je	.LBB21_3
.LBB21_7:                               # %errhandler
	leaq	112(%rsp), %rax
	movq	%rax, (%rsp)
	leaq	104(%rsp), %rdi
	leaq	124(%rsp), %rcx
	leaq	120(%rsp), %r8
	leaq	116(%rsp), %r9
	movl	$1, %edx
	movq	%rbx, %rsi
	callq	BZ2_bzWriteClose64
	movl	108(%rsp), %eax
	cmpl	$-3, %eax
	je	.LBB21_42
# BB#8:                                 # %errhandler
	cmpl	$-6, %eax
	je	.LBB21_43
# BB#9:                                 # %errhandler
	cmpl	$-9, %eax
	jne	.LBB21_44
# BB#10:                                # %sw.bb
	callq	configError
.LBB21_11:                              # %while.end
	leaq	112(%rsp), %rax
	movq	%rax, (%rsp)
	leaq	108(%rsp), %rdi
	leaq	124(%rsp), %rcx
	leaq	120(%rsp), %r8
	leaq	116(%rsp), %r9
	xorl	%edx, %edx
	movq	%rbx, %rsi
	callq	BZ2_bzWriteClose64
	cmpl	$0, 108(%rsp)
	jne	.LBB21_7
# BB#12:                                # %if.end21
	cmpl	$1, %r14d
	je	.LBB21_14
# BB#13:                                # %if.then23
	movl	$0, outputHandleJustInCase(%rip)
.LBB21_14:                              # %if.end27
	movl	$0, outputHandleJustInCase(%rip)
	cmpl	$0, verbosity(%rip)
	jle	.LBB21_41
# BB#15:                                # %if.then32
	movl	124(%rsp), %eax
	movl	120(%rsp), %ecx
	movl	%ecx, %edx
	orl	%eax, %edx
	je	.LBB21_16
# BB#17:                                # %if.else
	movl	%ecx, %edx
	shrl	$24, %edx
	movb	%dl, 31(%rsp)
	movl	%ecx, %edx
	shrl	$16, %edx
	movb	%dl, 30(%rsp)
	movb	%ch, 29(%rsp)  # NOREX
	movb	%cl, 28(%rsp)
	movl	%eax, %ecx
	shrl	$24, %ecx
	movb	%cl, 27(%rsp)
	movl	%eax, %ecx
	shrl	$16, %ecx
	movb	%cl, 26(%rsp)
	movb	%ah, 25(%rsp)  # NOREX
	movb	%al, 24(%rsp)
	movl	116(%rsp), %eax
	movl	112(%rsp), %ecx
	movl	%ecx, %edx
	shrl	$24, %edx
	movb	%dl, 23(%rsp)
	movl	%ecx, %edx
	shrl	$16, %edx
	movb	%dl, 22(%rsp)
	movb	%ch, 21(%rsp)  # NOREX
	movb	%cl, 20(%rsp)
	movl	%eax, %ecx
	shrl	$24, %ecx
	movb	%cl, 19(%rsp)
	movl	%eax, %ecx
	shrl	$16, %ecx
	movb	%cl, 18(%rsp)
	movb	%ah, 17(%rsp)  # NOREX
	movb	%al, 16(%rsp)
	movsd	.LCPI21_0(%rip), %xmm0  # xmm0 = mem[0],zero
	xorpd	%xmm3, %xmm3
	xorl	%eax, %eax
	movsd	.LCPI21_1(%rip), %xmm1  # xmm1 = mem[0],zero
	xorl	%ecx, %ecx
	xorpd	%xmm2, %xmm2
	movapd	%xmm0, %xmm4
	.align	16, 0x90
.LBB21_18:                              # %for.body.i
                                        # =>This Inner Loop Header: Depth=1
	movzbl	24(%rsp,%rcx), %edx
	xorps	%xmm5, %xmm5
	cvtsi2sdl	%edx, %xmm5
	mulsd	%xmm4, %xmm5
	addsd	%xmm5, %xmm2
	mulsd	%xmm1, %xmm4
	incq	%rcx
	cmpq	$8, %rcx
	jne	.LBB21_18
	.align	16, 0x90
.LBB21_19:                              # %for.body.i111
                                        # =>This Inner Loop Header: Depth=1
	movzbl	16(%rsp,%rax), %ecx
	xorps	%xmm4, %xmm4
	cvtsi2sdl	%ecx, %xmm4
	mulsd	%xmm0, %xmm4
	addsd	%xmm4, %xmm3
	mulsd	%xmm1, %xmm0
	incq	%rax
	cmpq	$8, %rax
	jne	.LBB21_19
# BB#20:                                # %uInt64_to_double.exit112
	movq	24(%rsp), %rax
	movq	%rax, 5176(%rsp)
	xorl	%eax, %eax
	movl	$3435973837, %ecx       # imm = 0xCCCCCCCD
	movabsq	$4294967296, %r8        # imm = 0x100000000
	xorl	%esi, %esi
	jmp	.LBB21_22
	.align	16, 0x90
.LBB21_21:                              # %do.body.i.loopexit
                                        #   in Loop: Header=BB21_22 Depth=1
	addq	%r8, %rax
	movq	%rdi, %rsi
.LBB21_22:                              # %do.body.i
                                        # =>This Loop Header: Depth=1
                                        #     Child Loop BB21_23 Depth 2
                                        #     Child Loop BB21_26 Depth 2
	movl	$8, %edi
	xorl	%ebp, %ebp
	.align	16, 0x90
.LBB21_23:                              # %for.body.i.i
                                        #   Parent Loop BB21_22 Depth=1
                                        # =>  This Inner Loop Header: Depth=2
	shll	$8, %ebp
	movzbl	5175(%rsp,%rdi), %ebx
	orl	%ebp, %ebx
	movl	%ebx, %ebp
	imulq	%rcx, %rbx
	shrq	$35, %rbx
	movb	%bl, 5175(%rsp,%rdi)
	leal	(%rbx,%rbx), %ebx
	leal	(%rbx,%rbx,4), %ebx
	subl	%ebx, %ebp
	decq	%rdi
	jg	.LBB21_23
# BB#24:                                # %uInt64_qrm10.exit.i
                                        #   in Loop: Header=BB21_22 Depth=1
	orl	$48, %ebp
	movb	%bpl, 5136(%rsp,%rsi)
	leaq	1(%rsi), %rdi
	xorl	%ebp, %ebp
	.align	16, 0x90
.LBB21_26:                              # %for.body.i26.i
                                        #   Parent Loop BB21_22 Depth=1
                                        # =>  This Inner Loop Header: Depth=2
	cmpb	$0, 5176(%rsp,%rbp)
	leaq	1(%rbp), %rbp
	jne	.LBB21_21
# BB#25:                                # %for.cond.i.i
                                        #   in Loop: Header=BB21_26 Depth=2
	cmpq	$7, %rbp
	jle	.LBB21_26
# BB#27:                                # %do.end.i
	movabsq	$-4294967296, %rcx      # imm = 0xFFFFFFFF00000000
	movslq	%edi, %rdi
	movb	$0, 64(%rsp,%rdi)
	testl	%esi, %esi
	js	.LBB21_30
# BB#28:                                # %for.body.lr.ph.i
	incq	%rsi
	xorl	%edi, %edi
	.align	16, 0x90
.LBB21_29:                              # %for.body.i119
                                        # =>This Inner Loop Header: Depth=1
	movq	%rax, %rdx
	sarq	$32, %rdx
	movb	5136(%rsp,%rdx), %dl
	movb	%dl, 64(%rsp,%rdi)
	incq	%rdi
	addq	%rcx, %rax
	cmpl	%edi, %esi
	jne	.LBB21_29
.LBB21_30:                              # %uInt64_toAscii.exit
	movq	16(%rsp), %rax
	movq	%rax, 5176(%rsp)
	xorl	%edx, %edx
	movl	$3435973837, %edi       # imm = 0xCCCCCCCD
	xorl	%esi, %esi
	jmp	.LBB21_32
	.align	16, 0x90
.LBB21_31:                              # %do.body.i124.loopexit
                                        #   in Loop: Header=BB21_32 Depth=1
	addq	%r8, %rdx
	movq	%rbp, %rsi
.LBB21_32:                              # %do.body.i124
                                        # =>This Loop Header: Depth=1
                                        #     Child Loop BB21_33 Depth 2
                                        #     Child Loop BB21_36 Depth 2
	movl	$8, %ebp
	xorl	%ebx, %ebx
	.align	16, 0x90
.LBB21_33:                              # %for.body.i.i136
                                        #   Parent Loop BB21_32 Depth=1
                                        # =>  This Inner Loop Header: Depth=2
	shll	$8, %ebx
	movzbl	5175(%rsp,%rbp), %eax
	orl	%ebx, %eax
	movl	%eax, %ebx
	imulq	%rdi, %rax
	shrq	$35, %rax
	movb	%al, 5175(%rsp,%rbp)
	leal	(%rax,%rax), %eax
	leal	(%rax,%rax,4), %eax
	subl	%eax, %ebx
	decq	%rbp
	jg	.LBB21_33
# BB#34:                                # %uInt64_qrm10.exit.i141
                                        #   in Loop: Header=BB21_32 Depth=1
	orl	$48, %ebx
	movb	%bl, 5136(%rsp,%rsi)
	leaq	1(%rsi), %rbp
	xorl	%ebx, %ebx
	.align	16, 0x90
.LBB21_36:                              # %for.body.i26.i148
                                        #   Parent Loop BB21_32 Depth=1
                                        # =>  This Inner Loop Header: Depth=2
	cmpb	$0, 5176(%rsp,%rbx)
	leaq	1(%rbx), %rbx
	jne	.LBB21_31
# BB#35:                                # %for.cond.i.i143
                                        #   in Loop: Header=BB21_36 Depth=2
	cmpq	$7, %rbx
	jle	.LBB21_36
# BB#37:                                # %do.end.i153
	movslq	%ebp, %rax
	movb	$0, 32(%rsp,%rax)
	testl	%esi, %esi
	js	.LBB21_40
# BB#38:                                # %for.body.lr.ph.i154
	incq	%rsi
	xorl	%eax, %eax
	.align	16, 0x90
.LBB21_39:                              # %for.body.i164
                                        # =>This Inner Loop Header: Depth=1
	movq	%rdx, %rdi
	sarq	$32, %rdi
	movb	5136(%rsp,%rdi), %bl
	movb	%bl, 32(%rsp,%rax)
	incq	%rax
	addq	%rcx, %rdx
	cmpl	%eax, %esi
	jne	.LBB21_39
.LBB21_40:                              # %uInt64_toAscii.exit165
	movq	stderr(%rip), %rdi
	movapd	%xmm2, %xmm0
	divsd	%xmm3, %xmm0
	movsd	.LCPI21_2(%rip), %xmm1  # xmm1 = mem[0],zero
	mulsd	%xmm3, %xmm1
	divsd	%xmm2, %xmm1
	divsd	%xmm2, %xmm3
	movsd	.LCPI21_0(%rip), %xmm2  # xmm2 = mem[0],zero
	subsd	%xmm3, %xmm2
	mulsd	.LCPI21_3(%rip), %xmm2
	leaq	64(%rsp), %rdx
	leaq	32(%rsp), %rcx
	movl	$.L.str.2.17, %esi
	movb	$3, %al
	callq	fprintf
.LBB21_41:                              # %cleanup
	addq	$5184, %rsp             # imm = 0x1440
	popq	%rbx
	popq	%r14
	popq	%rbp
	retq
.LBB21_16:                              # %if.then35
	movq	stderr(%rip), %rcx
	movl	$.L.str.1.16, %edi
	movl	$21, %esi
	movl	$1, %edx
	callq	fwrite
	jmp	.LBB21_41
.LBB21_42:                              # %sw.bb49
	callq	outOfMemory
.LBB21_43:                              # %errhandler_io
	callq	ioError
.LBB21_44:                              # %sw.default
	movl	$.L.str.3.22, %edi
	callq	panic
.Lfunc_end21:
	.size	compressStream, .Lfunc_end21-compressStream
	.cfi_endproc

	.align	16, 0x90
	.type	configError,@function
configError:                            # @configError
	.cfi_startproc
# BB#0:                                 # %entry
	pushq	%rax
.Ltmp128:
	.cfi_def_cfa_offset 16
	movq	stderr(%rip), %rcx
	movl	$.L.str.17.18, %edi
	movl	$235, %esi
	movl	$1, %edx
	callq	fwrite
	movl	$0, exitValue(%rip)
	xorl	%edi, %edi
	callq	exit
.Lfunc_end22:
	.size	configError, .Lfunc_end22-configError
	.cfi_endproc

	.align	16, 0x90
	.type	outOfMemory,@function
outOfMemory:                            # @outOfMemory
	.cfi_startproc
# BB#0:                                 # %entry
	pushq	%rax
.Ltmp129:
	.cfi_def_cfa_offset 16
	movq	stderr(%rip), %rdi
	movq	progName(%rip), %rdx
	movl	$.L.str.16.19, %esi
	xorl	%eax, %eax
	callq	fprintf
	cmpb	$0, noisy(%rip)
	je	.LBB23_2
# BB#1:                                 # %if.then.i
	movq	stderr(%rip), %rdi
	movl	$.L.str.11.20, %esi
	movl	$inName, %edx
	movl	$outName, %ecx
	xorl	%eax, %eax
	callq	fprintf
.LBB23_2:                               # %showFileNames.exit
	callq	cleanUpAndFail
.Lfunc_end23:
	.size	outOfMemory, .Lfunc_end23-outOfMemory
	.cfi_endproc

	.align	16, 0x90
	.type	cleanUpAndFail,@function
cleanUpAndFail:                         # @cleanUpAndFail
	.cfi_startproc
# BB#0:                                 # %entry
	pushq	%rax
.Ltmp130:
	.cfi_def_cfa_offset 16
	movl	$0, exitValue(%rip)
	xorl	%edi, %edi
	callq	exit
.Lfunc_end24:
	.size	cleanUpAndFail, .Lfunc_end24-cleanUpAndFail
	.cfi_endproc

	.align	16, 0x90
	.type	ioError,@function
ioError:                                # @ioError
	.cfi_startproc
# BB#0:                                 # %entry
	pushq	%rax
.Ltmp131:
	.cfi_def_cfa_offset 16
	movq	stderr(%rip), %rdi
	movq	progName(%rip), %rdx
	movl	$.L.str.15.21, %esi
	xorl	%eax, %eax
	callq	fprintf
	movq	progName(%rip), %rdi
	callq	perror
	cmpb	$0, noisy(%rip)
	je	.LBB25_2
# BB#1:                                 # %if.then.i
	movq	stderr(%rip), %rdi
	movl	$.L.str.11.20, %esi
	movl	$inName, %edx
	movl	$outName, %ecx
	xorl	%eax, %eax
	callq	fprintf
.LBB25_2:                               # %showFileNames.exit
	callq	cleanUpAndFail
.Lfunc_end25:
	.size	ioError, .Lfunc_end25-ioError
	.cfi_endproc

	.align	16, 0x90
	.type	panic,@function
panic:                                  # @panic
	.cfi_startproc
# BB#0:                                 # %entry
	pushq	%rax
.Ltmp132:
	.cfi_def_cfa_offset 16
	movq	%rdi, %rcx
	movq	stderr(%rip), %rdi
	movq	progName(%rip), %rdx
	movl	$.L.str.10, %esi
	xorl	%eax, %eax
	callq	fprintf
	cmpb	$0, noisy(%rip)
	je	.LBB26_2
# BB#1:                                 # %if.then.i
	movq	stderr(%rip), %rdi
	movl	$.L.str.11.20, %esi
	movl	$inName, %edx
	movl	$outName, %ecx
	xorl	%eax, %eax
	callq	fprintf
.LBB26_2:                               # %showFileNames.exit
	callq	cleanUpAndFail
.Lfunc_end26:
	.size	panic, .Lfunc_end26-panic
	.cfi_endproc

	.globl	uncompressStream
	.align	16, 0x90
	.type	uncompressStream,@function
uncompressStream:                       # @uncompressStream
	.cfi_startproc
# BB#0:                                 # %entry
	pushq	%rbp
.Ltmp133:
	.cfi_def_cfa_offset 16
	pushq	%r15
.Ltmp134:
	.cfi_def_cfa_offset 24
	pushq	%r14
.Ltmp135:
	.cfi_def_cfa_offset 32
	pushq	%r13
.Ltmp136:
	.cfi_def_cfa_offset 40
	pushq	%r12
.Ltmp137:
	.cfi_def_cfa_offset 48
	pushq	%rbx
.Ltmp138:
	.cfi_def_cfa_offset 56
	subq	$10040, %rsp            # imm = 0x2738
.Ltmp139:
	.cfi_def_cfa_offset 10096
.Ltmp140:
	.cfi_offset %rbx, -56
.Ltmp141:
	.cfi_offset %r12, -48
.Ltmp142:
	.cfi_offset %r13, -40
.Ltmp143:
	.cfi_offset %r14, -32
.Ltmp144:
	.cfi_offset %r15, -24
.Ltmp145:
	.cfi_offset %rbp, -16
	movl	%esi, %r12d
	movl	%edi, %ebp
	movl	$0, 12(%rsp)
	movl	verbosity(%rip), %edx
	movzbl	smallMode(%rip), %ecx
	leaq	10036(%rsp), %rdi
	leaq	16(%rsp), %r8
	xorl	%r14d, %r14d
	xorl	%r9d, %r9d
	movl	%ebp, %esi
	callq	BZ2_bzReadOpen
	movq	%rax, %r13
	testq	%r13, %r13
	je	.LBB27_25
# BB#1:                                 # %entry
	movl	10036(%rsp), %eax
	testl	%eax, %eax
	jne	.LBB27_25
# BB#2:                                 # %if.end.preheader
	xorl	%r14d, %r14d
	leaq	10036(%rsp), %r15
	leaq	5024(%rsp), %rbx
.LBB27_3:                               # %if.end
                                        # =>This Loop Header: Depth=1
                                        #     Child Loop BB27_4 Depth 2
                                        #     Child Loop BB27_18 Depth 2
                                        #     Child Loop BB27_20 Depth 2
	incl	%r14d
	xorl	%ecx, %ecx
	jmp	.LBB27_4
	.align	16, 0x90
.LBB27_11:                              # %if.then21
                                        #   in Loop: Header=BB27_4 Depth=2
	movl	$1, %esi
	movq	%rbx, %rdi
	movl	%eax, %edx
	movl	%r12d, %ecx
	callq	spec_fwrite
	movl	10036(%rsp), %ecx
.LBB27_4:                               # %while.cond4
                                        #   Parent Loop BB27_3 Depth=1
                                        # =>  This Inner Loop Header: Depth=2
	testl	%ecx, %ecx
	jne	.LBB27_5
# BB#8:                                 # %while.body7
                                        #   in Loop: Header=BB27_4 Depth=2
	movl	$5000, %ecx             # imm = 0x1388
	movq	%r15, %rdi
	movq	%r13, %rsi
	movq	%rbx, %rdx
	callq	BZ2_bzRead
	movl	10036(%rsp), %ecx
	cmpl	$-5, %ecx
	je	.LBB27_33
# BB#9:                                 # %if.end13
                                        #   in Loop: Header=BB27_4 Depth=2
	testl	%eax, %eax
	jle	.LBB27_4
# BB#10:                                # %if.end13
                                        #   in Loop: Header=BB27_4 Depth=2
	movl	%ecx, %edx
	orl	$4, %edx
	cmpl	$4, %edx
	je	.LBB27_11
	jmp	.LBB27_4
	.align	16, 0x90
.LBB27_5:                               # %while.cond4
                                        #   in Loop: Header=BB27_3 Depth=1
	cmpl	$4, %ecx
	jne	.LBB27_25
# BB#6:                                 # %if.end28
                                        #   in Loop: Header=BB27_3 Depth=1
	movq	%r15, %rdi
	movq	%r13, %rsi
	leaq	(%rsp), %rdx
	leaq	12(%rsp), %rcx
	callq	BZ2_bzReadGetUnused
	cmpl	$0, 10036(%rsp)
	jne	.LBB27_7
# BB#12:                                # %if.end32
                                        #   in Loop: Header=BB27_3 Depth=1
	movslq	12(%rsp), %rax
	testq	%rax, %rax
	jle	.LBB27_21
# BB#13:                                # %for.body.preheader
                                        #   in Loop: Header=BB27_3 Depth=1
	movq	(%rsp), %rcx
	cmpl	$16, %eax
	movl	$0, %esi
	jb	.LBB27_20
# BB#14:                                # %min.iters.checked
                                        #   in Loop: Header=BB27_3 Depth=1
	movq	%rax, %r8
	andq	$-16, %r8
	movl	$0, %esi
	je	.LBB27_20
# BB#15:                                # %vector.memcheck
                                        #   in Loop: Header=BB27_3 Depth=1
	leaq	-1(%rcx,%rax), %rdx
	leaq	16(%rsp), %rsi
	cmpq	%rdx, %rsi
	ja	.LBB27_17
# BB#16:                                # %vector.memcheck
                                        #   in Loop: Header=BB27_3 Depth=1
	leaq	15(%rsp), %rdx
	leaq	(%rdx,%rax), %rdx
	cmpq	%rdx, %rcx
	movl	$0, %esi
	jbe	.LBB27_20
.LBB27_17:                              # %vector.body.preheader
                                        #   in Loop: Header=BB27_3 Depth=1
	movq	%rax, %rsi
	andq	$-16, %rsi
	movq	%rcx, %rdi
	leaq	16(%rsp), %rdx
	.align	16, 0x90
.LBB27_18:                              # %vector.body
                                        #   Parent Loop BB27_3 Depth=1
                                        # =>  This Inner Loop Header: Depth=2
	movups	(%rdi), %xmm0
	movaps	%xmm0, (%rdx)
	addq	$16, %rdx
	addq	$16, %rdi
	addq	$-16, %rsi
	jne	.LBB27_18
# BB#19:                                # %middle.block
                                        #   in Loop: Header=BB27_3 Depth=1
	cmpq	%r8, %rax
	movq	%r8, %rsi
	je	.LBB27_21
	.align	16, 0x90
.LBB27_20:                              # %for.body
                                        #   Parent Loop BB27_3 Depth=1
                                        # =>  This Inner Loop Header: Depth=2
	movb	(%rcx,%rsi), %dl
	movb	%dl, 16(%rsp,%rsi)
	incq	%rsi
	cmpq	%rax, %rsi
	jl	.LBB27_20
.LBB27_21:                              # %for.end
                                        #   in Loop: Header=BB27_3 Depth=1
	movq	%r15, %rdi
	movq	%r13, %rsi
	callq	BZ2_bzReadClose
	cmpl	$0, 10036(%rsp)
	jne	.LBB27_56
# BB#22:                                # %if.end41
                                        #   in Loop: Header=BB27_3 Depth=1
	movl	12(%rsp), %r9d
	testl	%r9d, %r9d
	jne	.LBB27_23
# BB#27:                                # %land.lhs.true44
                                        #   in Loop: Header=BB27_3 Depth=1
	movl	%ebp, %edi
	callq	spec_getc
	cmpl	$-1, %eax
	je	.LBB27_29
# BB#28:                                # %myfeof.exit.thread
                                        #   in Loop: Header=BB27_3 Depth=1
	movzbl	%al, %edi
	movl	%ebp, %esi
	callq	spec_ungetc
	movl	12(%rsp), %r9d
.LBB27_23:                              # %while.body.backedge
                                        #   in Loop: Header=BB27_3 Depth=1
	movl	verbosity(%rip), %edx
	movzbl	smallMode(%rip), %ecx
	movq	%r15, %rdi
	movl	%ebp, %esi
	leaq	16(%rsp), %r8
	callq	BZ2_bzReadOpen
	movq	%rax, %r13
	testq	%r13, %r13
	je	.LBB27_25
# BB#24:                                # %while.body.backedge
                                        #   in Loop: Header=BB27_3 Depth=1
	movl	10036(%rsp), %eax
	testl	%eax, %eax
	je	.LBB27_3
	jmp	.LBB27_25
.LBB27_33:                              # %trycat
	cmpb	$0, forceOverwrite(%rip)
	je	.LBB27_25
# BB#34:                                # %if.then72
	movl	%ebp, %edi
	callq	spec_rewind
	movl	%ebp, %edi
	callq	spec_getc
	cmpl	$-1, %eax
	je	.LBB27_29
# BB#35:
	leaq	5024(%rsp), %rbx
	.align	16, 0x90
.LBB27_36:                              # %if.end79
                                        # =>This Inner Loop Header: Depth=1
	movzbl	%al, %edi
	movl	%ebp, %esi
	callq	spec_ungetc
	movl	$1, %esi
	movl	$5000, %edx             # imm = 0x1388
	movq	%rbx, %rdi
	movl	%ebp, %ecx
	callq	spec_fread
	testl	%eax, %eax
	jle	.LBB27_38
# BB#37:                                # %if.then84
                                        #   in Loop: Header=BB27_36 Depth=1
	movl	$1, %esi
	movq	%rbx, %rdi
	movl	%eax, %edx
	movl	%r12d, %ecx
	callq	spec_fwrite
.LBB27_38:                              # %while.body75.backedge
                                        #   in Loop: Header=BB27_36 Depth=1
	movl	%ebp, %edi
	callq	spec_getc
	cmpl	$-1, %eax
	jne	.LBB27_36
.LBB27_29:                              # %if.end57
	cmpl	$1, %r12d
	je	.LBB27_31
# BB#30:                                # %if.then60
	movl	$0, outputHandleJustInCase(%rip)
.LBB27_31:                              # %if.end65
	movl	$0, outputHandleJustInCase(%rip)
	movb	$1, %bl
	cmpl	$2, verbosity(%rip)
	jl	.LBB27_55
# BB#32:                                # %if.then68
	movq	stderr(%rip), %rcx
	movl	$.L.str.6.26, %edi
	movl	$5, %esi
	movl	$1, %edx
	callq	fwrite
	jmp	.LBB27_55
.LBB27_25:                              # %errhandler
	leaq	10032(%rsp), %rdi
	movq	%r13, %rsi
	callq	BZ2_bzReadClose
	movl	10036(%rsp), %eax
	addl	$9, %eax
	cmpl	$6, %eax
	ja	.LBB27_57
# BB#26:                                # %errhandler
	jmpq	*.LJTI27_0(,%rax,8)
.LBB27_51:                              # %sw.bb94
	cmpl	$1, %r14d
	jne	.LBB27_53
# BB#52:
	xorl	%ebx, %ebx
	jmp	.LBB27_55
.LBB27_53:                              # %if.else
	movb	$1, %bl
	cmpb	$0, noisy(%rip)
	jne	.LBB27_54
.LBB27_55:                              # %cleanup
	movzbl	%bl, %eax
	addq	$10040, %rsp            # imm = 0x2738
	popq	%rbx
	popq	%r12
	popq	%r13
	popq	%r14
	popq	%r15
	popq	%rbp
	retq
.LBB27_54:                              # %if.then107
	movq	stderr(%rip), %rdi
	movq	progName(%rip), %rdx
	movl	$.L.str.7.30, %esi
	movl	$inName, %ecx
	xorl	%eax, %eax
	callq	fprintf
	jmp	.LBB27_55
.LBB27_7:                               # %if.then31
	movl	$.L.str.5.25, %edi
	callq	panic
.LBB27_56:                              # %if.then40
	movl	$.L.str.5.25, %edi
	callq	panic
.LBB27_39:                              # %sw.bb
	callq	configError
.LBB27_57:                              # %sw.default
	movl	$.L.str.8.31, %edi
	callq	panic
.LBB27_41:                              # %sw.bb91
	movq	stderr(%rip), %rdi
	movq	progName(%rip), %rdx
	movl	$.L.str.12.27, %esi
	xorl	%eax, %eax
	callq	fprintf
	cmpb	$0, noisy(%rip)
	je	.LBB27_44
# BB#42:                                # %showFileNames.exit.i
	movq	stderr(%rip), %rdi
	movl	$.L.str.11.20, %esi
	movl	$inName, %edx
	movl	$outName, %ecx
	xorl	%eax, %eax
	callq	fprintf
	cmpb	$0, noisy(%rip)
	je	.LBB27_44
# BB#43:                                # %if.then.i2.i
	movq	stderr(%rip), %rcx
	movl	$.L.str.13.28, %edi
	movl	$240, %esi
	movl	$1, %edx
	callq	fwrite
.LBB27_44:                              # %cadvise.exit.i
	callq	cleanUpAndFail
.LBB27_45:                              # %sw.bb92
	callq	outOfMemory
.LBB27_46:                              # %sw.bb93
	cmpb	$0, noisy(%rip)
	je	.LBB27_50
# BB#47:                                # %if.then.i
	movq	stderr(%rip), %rdi
	movq	progName(%rip), %rdx
	movl	$.L.str.14.29, %esi
	xorl	%eax, %eax
	callq	fprintf
	movq	progName(%rip), %rdi
	callq	perror
	cmpb	$0, noisy(%rip)
	je	.LBB27_50
# BB#48:                                # %showFileNames.exit.i163
	movq	stderr(%rip), %rdi
	movl	$.L.str.11.20, %esi
	movl	$inName, %edx
	movl	$outName, %ecx
	xorl	%eax, %eax
	callq	fprintf
	cmpb	$0, noisy(%rip)
	je	.LBB27_50
# BB#49:                                # %if.then.i2.i164
	movq	stderr(%rip), %rcx
	movl	$.L.str.13.28, %edi
	movl	$240, %esi
	movl	$1, %edx
	callq	fwrite
.LBB27_50:                              # %if.end.i165
	callq	cleanUpAndFail
.LBB27_40:                              # %errhandler_io
	callq	ioError
.Lfunc_end27:
	.size	uncompressStream, .Lfunc_end27-uncompressStream
	.cfi_endproc
	.section	.rodata,"a",@progbits
	.align	8
.LJTI27_0:
	.quad	.LBB27_39
	.quad	.LBB27_57
	.quad	.LBB27_46
	.quad	.LBB27_40
	.quad	.LBB27_51
	.quad	.LBB27_41
	.quad	.LBB27_45

	.text
	.globl	BZ2_bz__AssertH__fail
	.align	16, 0x90
	.type	BZ2_bz__AssertH__fail,@function
BZ2_bz__AssertH__fail:                  # @BZ2_bz__AssertH__fail
	.cfi_startproc
# BB#0:                                 # %entry
	pushq	%rbx
.Ltmp146:
	.cfi_def_cfa_offset 16
.Ltmp147:
	.cfi_offset %rbx, -16
	movl	%edi, %ebx
	movq	stderr(%rip), %rdi
	movl	$.L.str.34, %esi
	movl	$.L.str.5.35, %ecx
	xorl	%eax, %eax
	movl	%ebx, %edx
	callq	fprintf
	cmpl	$1007, %ebx             # imm = 0x3EF
	jne	.LBB28_2
# BB#1:                                 # %if.then
	movq	stderr(%rip), %rcx
	movl	$.L.str.1.36, %edi
	movl	$1056, %esi             # imm = 0x420
	movl	$1, %edx
	callq	fwrite
.LBB28_2:                               # %if.end
	xorl	%edi, %edi
	callq	exit
.Lfunc_end28:
	.size	BZ2_bz__AssertH__fail, .Lfunc_end28-BZ2_bz__AssertH__fail
	.cfi_endproc

	.globl	BZ2_bzlibVersion
	.align	16, 0x90
	.type	BZ2_bzlibVersion,@function
BZ2_bzlibVersion:                       # @BZ2_bzlibVersion
	.cfi_startproc
# BB#0:                                 # %entry
	movl	$.L.str.5.35, %eax
	retq
.Lfunc_end29:
	.size	BZ2_bzlibVersion, .Lfunc_end29-BZ2_bzlibVersion
	.cfi_endproc

	.globl	BZ2_bzCompressInit
	.align	16, 0x90
	.type	BZ2_bzCompressInit,@function
BZ2_bzCompressInit:                     # @BZ2_bzCompressInit
	.cfi_startproc
# BB#0:                                 # %entry
	pushq	%rbp
.Ltmp148:
	.cfi_def_cfa_offset 16
	pushq	%r15
.Ltmp149:
	.cfi_def_cfa_offset 24
	pushq	%r14
.Ltmp150:
	.cfi_def_cfa_offset 32
	pushq	%r13
.Ltmp151:
	.cfi_def_cfa_offset 40
	pushq	%r12
.Ltmp152:
	.cfi_def_cfa_offset 48
	pushq	%rbx
.Ltmp153:
	.cfi_def_cfa_offset 56
	pushq	%rax
.Ltmp154:
	.cfi_def_cfa_offset 64
.Ltmp155:
	.cfi_offset %rbx, -56
.Ltmp156:
	.cfi_offset %r12, -48
.Ltmp157:
	.cfi_offset %r13, -40
.Ltmp158:
	.cfi_offset %r14, -32
.Ltmp159:
	.cfi_offset %r15, -24
.Ltmp160:
	.cfi_offset %rbp, -16
	movl	%esi, %r12d
	movq	%rdi, %r14
	cmpl	$250, %ecx
	movl	$-2, %r13d
	ja	.LBB30_18
# BB#1:                                 # %entry
	testq	%r14, %r14
	je	.LBB30_18
# BB#2:                                 # %entry
	leal	-1(%r12), %eax
	cmpl	$8, %eax
	ja	.LBB30_18
# BB#3:                                 # %if.end9
	testl	%ecx, %ecx
	movl	$30, %r15d
	cmovnel	%ecx, %r15d
	movq	56(%r14), %rax
	testq	%rax, %rax
	jne	.LBB30_5
# BB#4:                                 # %if.then14
	movq	$default_bzalloc, 56(%r14)
	movl	$default_bzalloc, %eax
.LBB30_5:                               # %if.end16
	movl	%edx, 4(%rsp)           # 4-byte Spill
	cmpq	$0, 64(%r14)
	jne	.LBB30_7
# BB#6:                                 # %if.then18
	movq	$default_bzfree, 64(%r14)
.LBB30_7:                               # %if.end20
	movq	72(%r14), %rdi
	movl	$55768, %esi            # imm = 0xD9D8
	movl	$1, %edx
	callq	*%rax
	movq	%rax, %rbx
	movl	$-3, %r13d
	testq	%rbx, %rbx
	je	.LBB30_18
# BB#8:                                 # %if.end25
	movq	%r14, (%rbx)
	xorps	%xmm0, %xmm0
	movups	%xmm0, 24(%rbx)
	movq	$0, 40(%rbx)
	movq	72(%r14), %rdi
	imull	$400000, %r12d, %ebp    # imm = 0x61A80
	movl	$1, %edx
	movl	%ebp, %esi
	callq	*56(%r14)
	movq	%rax, 24(%rbx)
	movq	72(%r14), %rdi
	addl	$136, %ebp
	movl	$1, %edx
	movl	%ebp, %esi
	callq	*56(%r14)
	movq	%rax, 32(%rbx)
	movq	72(%r14), %rdi
	movl	$262148, %esi           # imm = 0x40004
	movl	$1, %edx
	callq	*56(%r14)
	movq	%rax, 40(%rbx)
	movq	24(%rbx), %rsi
	testq	%rsi, %rsi
	je	.LBB30_12
# BB#9:                                 # %lor.lhs.false47
	testq	%rax, %rax
	je	.LBB30_11
# BB#10:                                # %lor.lhs.false47
	movq	32(%rbx), %rax
	testq	%rax, %rax
	je	.LBB30_11
# BB#17:                                # %if.end86
	imull	$100000, %r12d, %ecx    # imm = 0x186A0
	movl	$0, 660(%rbx)
	movl	$2, 12(%rbx)
	movl	$2, 8(%rbx)
	movl	$0, 652(%rbx)
	movl	%r12d, 664(%rbx)
	addl	$-19, %ecx
	movl	%ecx, 112(%rbx)
	movl	4(%rsp), %ecx           # 4-byte Reload
	movl	%ecx, 656(%rbx)
	movl	%r15d, 88(%rbx)
	movq	%rax, 64(%rbx)
	movq	%rsi, 72(%rbx)
	movq	$0, 80(%rbx)
	movq	%rsi, 56(%rbx)
	movq	%rbx, 48(%r14)
	movl	$0, 12(%r14)
	movl	$0, 16(%r14)
	movl	$0, 36(%r14)
	movl	$0, 40(%r14)
	movq	$256, 92(%rbx)          # imm = 0x100
	movl	$0, 108(%rbx)
	movl	$0, 116(%rbx)
	movl	$0, 120(%rbx)
	movl	$-1, 648(%rbx)
	xorps	%xmm0, %xmm0
	movups	%xmm0, 368(%rbx)
	movups	%xmm0, 352(%rbx)
	movups	%xmm0, 336(%rbx)
	movups	%xmm0, 320(%rbx)
	movups	%xmm0, 304(%rbx)
	movups	%xmm0, 288(%rbx)
	movups	%xmm0, 272(%rbx)
	movups	%xmm0, 256(%rbx)
	movups	%xmm0, 240(%rbx)
	movups	%xmm0, 224(%rbx)
	movups	%xmm0, 208(%rbx)
	movups	%xmm0, 192(%rbx)
	movups	%xmm0, 176(%rbx)
	movups	%xmm0, 160(%rbx)
	movups	%xmm0, 144(%rbx)
	movups	%xmm0, 128(%rbx)
	incl	660(%rbx)
	xorl	%r13d, %r13d
	jmp	.LBB30_18
.LBB30_11:                              # %if.then59
	movq	72(%r14), %rdi
	callq	*64(%r14)
.LBB30_12:                              # %if.end63
	movq	32(%rbx), %rsi
	testq	%rsi, %rsi
	je	.LBB30_14
# BB#13:                                # %if.then67
	movq	72(%r14), %rdi
	callq	*64(%r14)
.LBB30_14:                              # %if.end71
	movq	40(%rbx), %rsi
	testq	%rsi, %rsi
	je	.LBB30_16
# BB#15:                                # %if.then75
	movq	72(%r14), %rdi
	callq	*64(%r14)
.LBB30_16:                              # %if.then82
	movq	72(%r14), %rdi
	movq	%rbx, %rsi
	callq	*64(%r14)
.LBB30_18:                              # %cleanup
	movl	%r13d, %eax
	addq	$8, %rsp
	popq	%rbx
	popq	%r12
	popq	%r13
	popq	%r14
	popq	%r15
	popq	%rbp
	retq
.Lfunc_end30:
	.size	BZ2_bzCompressInit, .Lfunc_end30-BZ2_bzCompressInit
	.cfi_endproc

	.align	16, 0x90
	.type	default_bzalloc,@function
default_bzalloc:                        # @default_bzalloc
	.cfi_startproc
# BB#0:                                 # %entry
	imull	%edx, %esi
	movslq	%esi, %rdi
	jmp	malloc                  # TAILCALL
.Lfunc_end31:
	.size	default_bzalloc, .Lfunc_end31-default_bzalloc
	.cfi_endproc

	.align	16, 0x90
	.type	default_bzfree,@function
default_bzfree:                         # @default_bzfree
	.cfi_startproc
# BB#0:                                 # %entry
	testq	%rsi, %rsi
	je	.LBB32_1
# BB#2:                                 # %if.then
	movq	%rsi, %rdi
	jmp	free                    # TAILCALL
.LBB32_1:                               # %if.end
	retq
.Lfunc_end32:
	.size	default_bzfree, .Lfunc_end32-default_bzfree
	.cfi_endproc

	.globl	BZ2_bzCompress
	.align	16, 0x90
	.type	BZ2_bzCompress,@function
BZ2_bzCompress:                         # @BZ2_bzCompress
	.cfi_startproc
# BB#0:                                 # %entry
	pushq	%r14
.Ltmp161:
	.cfi_def_cfa_offset 16
	pushq	%rbx
.Ltmp162:
	.cfi_def_cfa_offset 24
	pushq	%rax
.Ltmp163:
	.cfi_def_cfa_offset 32
.Ltmp164:
	.cfi_offset %rbx, -24
.Ltmp165:
	.cfi_offset %r14, -16
	movl	$-2, %ebx
	testq	%rdi, %rdi
	je	.LBB33_27
# BB#1:                                 # %if.end
	movq	48(%rdi), %r14
	testq	%r14, %r14
	je	.LBB33_27
# BB#2:                                 # %if.end3
	cmpq	%rdi, (%r14)
	jne	.LBB33_27
# BB#3:                                 # %preswitch.preheader
	movl	8(%r14), %eax
	jmp	.LBB33_4
	.align	16, 0x90
.LBB33_11:                              # %preswitch.backedge
                                        #   in Loop: Header=BB33_4 Depth=1
	movl	8(%rdi), %ecx
	movl	%ecx, 16(%r14)
	movl	%eax, 8(%r14)
.LBB33_4:                               # %preswitch
                                        # =>This Inner Loop Header: Depth=1
	xorl	%ebx, %ebx
	decl	%eax
	cmpl	$3, %eax
	ja	.LBB33_27
# BB#5:                                 # %preswitch
                                        #   in Loop: Header=BB33_4 Depth=1
	movl	$-1, %ebx
	jmpq	*.LJTI33_0(,%rax,8)
.LBB33_6:                               # %sw.bb8
                                        #   in Loop: Header=BB33_4 Depth=1
	movl	$3, %eax
	cmpl	$1, %esi
	je	.LBB33_11
# BB#7:                                 # %sw.bb8
                                        #   in Loop: Header=BB33_4 Depth=1
	cmpl	$2, %esi
	jne	.LBB33_8
# BB#10:                                # %if.then18
                                        #   in Loop: Header=BB33_4 Depth=1
	movl	$4, %eax
	jmp	.LBB33_11
.LBB33_8:                               # %sw.bb8
	movl	$-2, %ebx
	testl	%esi, %esi
	jne	.LBB33_27
# BB#9:                                 # %if.then10
	callq	handle_compress
	testb	%al, %al
	movl	$1, %eax
	movl	$-2, %ebx
	cmovnel	%eax, %ebx
	jmp	.LBB33_27
.LBB33_12:                              # %sw.bb23
	movl	$-1, %ebx
	cmpl	$1, %esi
	jne	.LBB33_27
# BB#13:                                # %if.end27
	movl	16(%r14), %eax
	cmpl	8(%rdi), %eax
	jne	.LBB33_27
# BB#14:                                # %if.end34
	callq	handle_compress
	movl	$2, %ebx
	cmpl	$0, 16(%r14)
	jne	.LBB33_27
# BB#15:                                # %lor.lhs.false
	cmpl	$255, 92(%r14)
	ja	.LBB33_17
# BB#16:                                # %land.lhs.true.i
	cmpl	$0, 96(%r14)
	jg	.LBB33_27
.LBB33_17:                              # %lor.lhs.false41
	movl	120(%r14), %eax
	cmpl	116(%r14), %eax
	jl	.LBB33_27
# BB#18:                                # %if.end45
	movl	$2, 8(%r14)
	movl	$1, %ebx
	jmp	.LBB33_27
.LBB33_19:                              # %sw.bb47
	movl	$-1, %ebx
	cmpl	$2, %esi
	jne	.LBB33_27
# BB#20:                                # %if.end51
	movl	16(%r14), %eax
	cmpl	8(%rdi), %eax
	jne	.LBB33_27
# BB#21:                                # %if.end58
	callq	handle_compress
	testb	%al, %al
	je	.LBB33_27
# BB#22:                                # %if.end62
	movl	$3, %ebx
	cmpl	$0, 16(%r14)
	jne	.LBB33_27
# BB#23:                                # %lor.lhs.false66
	cmpl	$255, 92(%r14)
	ja	.LBB33_25
# BB#24:                                # %land.lhs.true.i115
	cmpl	$0, 96(%r14)
	jg	.LBB33_27
.LBB33_25:                              # %lor.lhs.false69
	movl	120(%r14), %eax
	cmpl	116(%r14), %eax
	jl	.LBB33_27
# BB#26:                                # %if.end75
	movl	$1, 8(%r14)
	movl	$4, %ebx
.LBB33_27:                              # %cleanup
	movl	%ebx, %eax
	addq	$8, %rsp
	popq	%rbx
	popq	%r14
	retq
.Lfunc_end33:
	.size	BZ2_bzCompress, .Lfunc_end33-BZ2_bzCompress
	.cfi_endproc
	.section	.rodata,"a",@progbits
	.align	8
.LJTI33_0:
	.quad	.LBB33_27
	.quad	.LBB33_6
	.quad	.LBB33_12
	.quad	.LBB33_19

	.text
	.align	16, 0x90
	.type	handle_compress,@function
handle_compress:                        # @handle_compress
	.cfi_startproc
# BB#0:                                 # %entry
	pushq	%rbp
.Ltmp166:
	.cfi_def_cfa_offset 16
	pushq	%r15
.Ltmp167:
	.cfi_def_cfa_offset 24
	pushq	%r14
.Ltmp168:
	.cfi_def_cfa_offset 32
	pushq	%r12
.Ltmp169:
	.cfi_def_cfa_offset 40
	pushq	%rbx
.Ltmp170:
	.cfi_def_cfa_offset 48
.Ltmp171:
	.cfi_offset %rbx, -48
.Ltmp172:
	.cfi_offset %r12, -40
.Ltmp173:
	.cfi_offset %r14, -32
.Ltmp174:
	.cfi_offset %r15, -24
.Ltmp175:
	.cfi_offset %rbp, -16
	movq	48(%rdi), %rbx
	movq	%rbx, %r12
	subq	$-128, %r12
	xorl	%r15d, %r15d
	xorl	%r14d, %r14d
	jmp	.LBB34_1
	.align	16, 0x90
.LBB34_62:                              # %while.body.outer
                                        #   in Loop: Header=BB34_1 Depth=1
	movq	%rbx, %rdi
	callq	BZ2_compressBlock
	movl	$1, 12(%rbx)
.LBB34_1:                               # %while.body.outer
                                        # =>This Loop Header: Depth=1
                                        #     Child Loop BB34_14 Depth 2
                                        #     Child Loop BB34_6 Depth 2
                                        #     Child Loop BB34_34 Depth 2
	movl	12(%rbx), %eax
	cmpl	$2, %eax
	je	.LBB34_2
# BB#12:                                # %while.body.outer
                                        #   in Loop: Header=BB34_1 Depth=1
	cmpl	$1, %eax
	jne	.LBB34_65
# BB#13:                                # %if.then
                                        #   in Loop: Header=BB34_1 Depth=1
	movq	(%rbx), %rcx
	xorl	%eax, %eax
	jmp	.LBB34_14
	.align	16, 0x90
.LBB34_18:                              # %while.body.backedge.i
                                        #   in Loop: Header=BB34_14 Depth=2
	movb	$1, %al
.LBB34_14:                              # %if.then
                                        #   Parent Loop BB34_1 Depth=1
                                        # =>  This Inner Loop Header: Depth=2
	cmpl	$0, 32(%rcx)
	je	.LBB34_19
# BB#15:                                # %if.end.i
                                        #   in Loop: Header=BB34_14 Depth=2
	movslq	120(%rbx), %rdx
	cmpl	116(%rbx), %edx
	jge	.LBB34_19
# BB#16:                                # %if.end3.i
                                        #   in Loop: Header=BB34_14 Depth=2
	movq	80(%rbx), %rax
	movb	(%rax,%rdx), %al
	movq	24(%rcx), %rcx
	movb	%al, (%rcx)
	incl	120(%rbx)
	movq	(%rbx), %rax
	decl	32(%rax)
	movq	(%rbx), %rax
	incq	24(%rax)
	movq	(%rbx), %rax
	incl	36(%rax)
	movq	(%rbx), %rcx
	cmpl	$0, 36(%rcx)
	jne	.LBB34_18
# BB#17:                                # %if.then16.i
                                        #   in Loop: Header=BB34_14 Depth=2
	incl	40(%rcx)
	movq	(%rbx), %rcx
	jmp	.LBB34_18
	.align	16, 0x90
.LBB34_2:                               #   in Loop: Header=BB34_1 Depth=1
	movb	%r15b, %al
	jmp	.LBB34_3
	.align	16, 0x90
.LBB34_19:                              # %copy_output_until_stop.exit
                                        #   in Loop: Header=BB34_1 Depth=1
	orb	%r15b, %al
	movl	120(%rbx), %ecx
	cmpl	116(%rbx), %ecx
	jl	.LBB34_20
# BB#21:                                # %if.end
                                        #   in Loop: Header=BB34_1 Depth=1
	movl	8(%rbx), %ecx
	cmpl	$4, %ecx
	jne	.LBB34_27
# BB#22:                                # %land.lhs.true
                                        #   in Loop: Header=BB34_1 Depth=1
	cmpl	$0, 16(%rbx)
	jne	.LBB34_27
# BB#23:                                # %land.lhs.true11
                                        #   in Loop: Header=BB34_1 Depth=1
	cmpl	$255, 92(%rbx)
	ja	.LBB34_24
# BB#25:                                # %land.lhs.true.i
                                        #   in Loop: Header=BB34_1 Depth=1
	cmpl	$0, 96(%rbx)
	jle	.LBB34_26
	.align	16, 0x90
.LBB34_27:                              # %if.end15
                                        #   in Loop: Header=BB34_1 Depth=1
	movl	$0, 108(%rbx)
	movl	$0, 116(%rbx)
	movl	$0, 120(%rbx)
	movl	$-1, 648(%rbx)
	xorps	%xmm0, %xmm0
	movups	%xmm0, 240(%r12)
	movups	%xmm0, 224(%r12)
	movups	%xmm0, 208(%r12)
	movups	%xmm0, 192(%r12)
	movups	%xmm0, 176(%r12)
	movups	%xmm0, 160(%r12)
	movups	%xmm0, 144(%r12)
	movups	%xmm0, 128(%r12)
	movups	%xmm0, 112(%r12)
	movups	%xmm0, 96(%r12)
	movups	%xmm0, 80(%r12)
	movups	%xmm0, 64(%r12)
	movups	%xmm0, 48(%r12)
	movups	%xmm0, 32(%r12)
	movups	%xmm0, 16(%r12)
	movups	%xmm0, (%r12)
	incl	660(%rbx)
	movl	$2, 12(%rbx)
	cmpl	$3, %ecx
	jne	.LBB34_4
# BB#28:                                # %land.lhs.true20
                                        #   in Loop: Header=BB34_1 Depth=1
	cmpl	$0, 16(%rbx)
	jne	.LBB34_3
# BB#29:                                # %land.lhs.true24
                                        #   in Loop: Header=BB34_1 Depth=1
	cmpl	$255, 92(%rbx)
	ja	.LBB34_30
# BB#31:                                # %land.lhs.true.i125
                                        #   in Loop: Header=BB34_1 Depth=1
	cmpl	$0, 96(%rbx)
	jle	.LBB34_32
	.align	16, 0x90
.LBB34_3:                               # %if.end30.if.then34_crit_edge
                                        #   in Loop: Header=BB34_1 Depth=1
	movl	8(%rbx), %ecx
.LBB34_4:                               # %if.then34
                                        #   in Loop: Header=BB34_1 Depth=1
	movb	%al, %r15b
	cmpl	$2, %ecx
	movl	108(%rbx), %eax
	movl	112(%rbx), %ecx
	jne	.LBB34_5
# BB#33:                                # %while.body.preheader.i
                                        #   in Loop: Header=BB34_1 Depth=1
	xorl	%edx, %edx
	jmp	.LBB34_34
	.align	16, 0x90
.LBB34_46:                              # %while.body.backedge.i116
                                        #   in Loop: Header=BB34_34 Depth=2
	movl	108(%rbx), %eax
	movl	112(%rbx), %ecx
	movb	$1, %dl
.LBB34_34:                              # %while.body.preheader.i
                                        #   Parent Loop BB34_1 Depth=1
                                        # =>  This Inner Loop Header: Depth=2
	cmpl	%ecx, %eax
	jge	.LBB34_55
# BB#35:                                # %if.end.i108
                                        #   in Loop: Header=BB34_34 Depth=2
	movq	(%rbx), %rsi
	cmpl	$0, 8(%rsi)
	je	.LBB34_55
# BB#36:                                # %if.end5.i
                                        #   in Loop: Header=BB34_34 Depth=2
	movq	(%rsi), %rcx
	movzbl	(%rcx), %ebp
	movl	92(%rbx), %ecx
	movl	96(%rbx), %edx
	cmpl	%ecx, %ebp
	jne	.LBB34_37
# BB#39:                                # %lor.lhs.false.i
                                        #   in Loop: Header=BB34_34 Depth=2
	cmpl	$255, %edx
	je	.LBB34_40
# BB#43:                                # %if.else40.i
                                        #   in Loop: Header=BB34_34 Depth=2
	incl	%edx
	movl	%edx, 96(%rbx)
	jmp	.LBB34_44
	.align	16, 0x90
.LBB34_37:                              # %land.lhs.true.i109
                                        #   in Loop: Header=BB34_34 Depth=2
	cmpl	$1, %edx
	jne	.LBB34_40
# BB#38:                                # %if.then11.i
                                        #   in Loop: Header=BB34_34 Depth=2
	movl	648(%rbx), %edx
	movl	%edx, %esi
	shll	$8, %esi
	shrl	$24, %edx
	movzbl	%cl, %edi
	xorl	%edx, %edi
	xorl	BZ2_crc32Table(,%rdi,4), %esi
	movl	%esi, 648(%rbx)
	movb	$1, 128(%rbx,%rcx)
	cltq
	movq	64(%rbx), %rdx
	movb	%cl, (%rdx,%rax)
	incl	108(%rbx)
	movl	%ebp, 92(%rbx)
	jmp	.LBB34_44
	.align	16, 0x90
.LBB34_40:                              # %if.then32.i
                                        #   in Loop: Header=BB34_34 Depth=2
	cmpl	$255, %ecx
	ja	.LBB34_42
# BB#41:                                # %if.then36.i
                                        #   in Loop: Header=BB34_34 Depth=2
	movq	%rbx, %rdi
	callq	add_pair_to_block
.LBB34_42:                              # %if.end37.i
                                        #   in Loop: Header=BB34_34 Depth=2
	movl	%ebp, 92(%rbx)
	movl	$1, 96(%rbx)
.LBB34_44:                              # %if.end44.i
                                        #   in Loop: Header=BB34_34 Depth=2
	movq	(%rbx), %rax
	incq	(%rax)
	movq	(%rbx), %rax
	decl	8(%rax)
	movq	(%rbx), %rax
	incl	12(%rax)
	movq	(%rbx), %rax
	cmpl	$0, 12(%rax)
	jne	.LBB34_46
# BB#45:                                # %if.then55.i
                                        #   in Loop: Header=BB34_34 Depth=2
	incl	16(%rax)
	jmp	.LBB34_46
	.align	16, 0x90
.LBB34_5:                               # %while.body61.preheader.i
                                        #   in Loop: Header=BB34_1 Depth=1
	xorl	%edx, %edx
	jmp	.LBB34_6
	.align	16, 0x90
.LBB34_54:                              # %if.end152.i
                                        #   in Loop: Header=BB34_6 Depth=2
	decl	16(%rbx)
	movl	108(%rbx), %eax
	movl	112(%rbx), %ecx
	movb	$1, %dl
.LBB34_6:                               # %while.body61.preheader.i
                                        #   Parent Loop BB34_1 Depth=1
                                        # =>  This Inner Loop Header: Depth=2
	cmpl	%ecx, %eax
	jge	.LBB34_55
# BB#7:                                 # %if.end67.i
                                        #   in Loop: Header=BB34_6 Depth=2
	movq	(%rbx), %rsi
	cmpl	$0, 8(%rsi)
	je	.LBB34_55
# BB#8:                                 # %if.end73.i
                                        #   in Loop: Header=BB34_6 Depth=2
	cmpl	$0, 16(%rbx)
	je	.LBB34_55
# BB#9:                                 # %if.end77.i
                                        #   in Loop: Header=BB34_6 Depth=2
	movq	(%rsi), %rcx
	movzbl	(%rcx), %ebp
	movl	92(%rbx), %ecx
	movl	96(%rbx), %edx
	cmpl	%ecx, %ebp
	jne	.LBB34_10
# BB#47:                                # %lor.lhs.false118.i
                                        #   in Loop: Header=BB34_6 Depth=2
	cmpl	$255, %edx
	je	.LBB34_48
# BB#51:                                # %if.else130.i
                                        #   in Loop: Header=BB34_6 Depth=2
	incl	%edx
	movl	%edx, 96(%rbx)
	jmp	.LBB34_52
	.align	16, 0x90
.LBB34_10:                              # %land.lhs.true85.i
                                        #   in Loop: Header=BB34_6 Depth=2
	cmpl	$1, %edx
	jne	.LBB34_48
# BB#11:                                # %if.then89.i
                                        #   in Loop: Header=BB34_6 Depth=2
	movl	648(%rbx), %edx
	movl	%edx, %esi
	shll	$8, %esi
	shrl	$24, %edx
	movzbl	%cl, %edi
	xorl	%edx, %edi
	xorl	BZ2_crc32Table(,%rdi,4), %esi
	movl	%esi, 648(%rbx)
	movb	$1, 128(%rbx,%rcx)
	cltq
	movq	64(%rbx), %rdx
	movb	%cl, (%rdx,%rax)
	incl	108(%rbx)
	movl	%ebp, 92(%rbx)
	jmp	.LBB34_52
	.align	16, 0x90
.LBB34_48:                              # %if.then122.i
                                        #   in Loop: Header=BB34_6 Depth=2
	cmpl	$255, %ecx
	ja	.LBB34_50
# BB#49:                                # %if.then126.i
                                        #   in Loop: Header=BB34_6 Depth=2
	movq	%rbx, %rdi
	callq	add_pair_to_block
.LBB34_50:                              # %if.end127.i
                                        #   in Loop: Header=BB34_6 Depth=2
	movl	%ebp, 92(%rbx)
	movl	$1, 96(%rbx)
.LBB34_52:                              # %if.end134.i
                                        #   in Loop: Header=BB34_6 Depth=2
	movq	(%rbx), %rax
	incq	(%rax)
	movq	(%rbx), %rax
	decl	8(%rax)
	movq	(%rbx), %rax
	incl	12(%rax)
	movq	(%rbx), %rax
	cmpl	$0, 12(%rax)
	jne	.LBB34_54
# BB#53:                                # %if.then148.i
                                        #   in Loop: Header=BB34_6 Depth=2
	incl	16(%rax)
	jmp	.LBB34_54
	.align	16, 0x90
.LBB34_55:                              # %copy_input_until_stop.exit
                                        #   in Loop: Header=BB34_1 Depth=1
	orb	%dl, %r14b
	movl	8(%rbx), %edx
	cmpl	$2, %edx
	je	.LBB34_60
# BB#56:                                # %land.lhs.true43
                                        #   in Loop: Header=BB34_1 Depth=1
	cmpl	$0, 16(%rbx)
	je	.LBB34_57
.LBB34_60:                              # %if.else
                                        #   in Loop: Header=BB34_1 Depth=1
	cmpl	%ecx, %eax
	jge	.LBB34_61
# BB#63:                                # %if.else57
                                        #   in Loop: Header=BB34_1 Depth=1
	movq	(%rbx), %rax
	cmpl	$0, 8(%rax)
	jne	.LBB34_1
	jmp	.LBB34_64
	.align	16, 0x90
.LBB34_61:                              # %if.then55
                                        #   in Loop: Header=BB34_1 Depth=1
	xorl	%esi, %esi
	jmp	.LBB34_62
.LBB34_57:                              # %if.then47
                                        #   in Loop: Header=BB34_1 Depth=1
	cmpl	$255, 92(%rbx)
	ja	.LBB34_59
# BB#58:                                # %if.then.i
                                        #   in Loop: Header=BB34_1 Depth=1
	movq	%rbx, %rdi
	callq	add_pair_to_block
	movl	8(%rbx), %edx
.LBB34_59:                              # %flush_RL.exit
                                        #   in Loop: Header=BB34_1 Depth=1
	movq	$256, 92(%rbx)          # imm = 0x100
	cmpl	$4, %edx
	sete	%al
	movzbl	%al, %esi
	jmp	.LBB34_62
	.align	16, 0x90
.LBB34_65:                              # %infloop
                                        # =>This Inner Loop Header: Depth=1
	jmp	.LBB34_65
.LBB34_20:
	movb	%al, %r15b
.LBB34_64:                              # %while.end
	orb	%r14b, %r15b
	setne	%al
	movzbl	%al, %eax
	popq	%rbx
	popq	%r12
	popq	%r14
	popq	%r15
	popq	%rbp
	retq
.LBB34_24:
	movb	%al, %r15b
	jmp	.LBB34_64
.LBB34_26:
	movb	%al, %r15b
	jmp	.LBB34_64
.LBB34_30:
	movb	%al, %r15b
	jmp	.LBB34_64
.LBB34_32:
	movb	%al, %r15b
	jmp	.LBB34_64
.Lfunc_end34:
	.size	handle_compress, .Lfunc_end34-handle_compress
	.cfi_endproc

	.align	16, 0x90
	.type	add_pair_to_block,@function
add_pair_to_block:                      # @add_pair_to_block
	.cfi_startproc
# BB#0:                                 # %entry
	movl	92(%rdi), %r8d
	movslq	96(%rdi), %r9
	testq	%r9, %r9
	jle	.LBB35_3
# BB#1:                                 # %for.body.lr.ph
	movzbl	%r8b, %edx
	movl	648(%rdi), %eax
	xorl	%esi, %esi
	.align	16, 0x90
.LBB35_2:                               # %for.body
                                        # =>This Inner Loop Header: Depth=1
	movl	%eax, %ecx
	shll	$8, %ecx
	shrl	$24, %eax
	xorl	%edx, %eax
	xorl	BZ2_crc32Table(,%rax,4), %ecx
	movl	%ecx, 648(%rdi)
	incl	%esi
	cmpl	%r9d, %esi
	movl	%ecx, %eax
	jl	.LBB35_2
.LBB35_3:                               # %for.end
	movb	$1, 128(%rdi,%r8)
	cmpl	$3, %r9d
	je	.LBB35_9
# BB#4:                                 # %for.end
	cmpl	$2, %r9d
	je	.LBB35_7
# BB#5:                                 # %for.end
	cmpl	$1, %r9d
	jne	.LBB35_10
# BB#6:                                 # %sw.bb
	movslq	108(%rdi), %rax
	movq	64(%rdi), %rcx
	movb	%r8b, (%rcx,%rax)
	incl	108(%rdi)
	retq
.LBB35_9:                               # %sw.bb27
	movslq	108(%rdi), %rax
	movq	64(%rdi), %rcx
	movb	%r8b, (%rcx,%rax)
	movslq	108(%rdi), %rax
	leaq	1(%rax), %rcx
	movl	%ecx, 108(%rdi)
	movq	64(%rdi), %rcx
	movb	%r8b, 1(%rcx,%rax)
	jmp	.LBB35_8
.LBB35_7:                               # %sw.bb14
	movslq	108(%rdi), %rax
	movq	64(%rdi), %rcx
	movb	%r8b, (%rcx,%rax)
.LBB35_8:                               # %sw.epilog
	movslq	108(%rdi), %rax
	leaq	1(%rax), %rcx
	movl	%ecx, 108(%rdi)
	movq	64(%rdi), %rcx
	movb	%r8b, 1(%rcx,%rax)
	incl	108(%rdi)
	retq
.LBB35_10:                              # %sw.default
	movb	$1, 124(%r9,%rdi)
	movslq	108(%rdi), %rax
	movq	64(%rdi), %rcx
	movb	%r8b, (%rcx,%rax)
	movslq	108(%rdi), %rax
	leaq	1(%rax), %rcx
	movl	%ecx, 108(%rdi)
	movq	64(%rdi), %rcx
	movb	%r8b, 1(%rcx,%rax)
	movslq	108(%rdi), %rax
	leaq	1(%rax), %rcx
	movl	%ecx, 108(%rdi)
	movq	64(%rdi), %rcx
	movb	%r8b, 1(%rcx,%rax)
	movslq	108(%rdi), %rax
	leaq	1(%rax), %rcx
	movl	%ecx, 108(%rdi)
	movq	64(%rdi), %rcx
	movb	%r8b, 1(%rcx,%rax)
	movslq	108(%rdi), %rax
	leaq	1(%rax), %rcx
	movl	%ecx, 108(%rdi)
	movl	$252, %ecx
	addl	96(%rdi), %ecx
	movq	64(%rdi), %rdx
	movb	%cl, 1(%rdx,%rax)
	incl	108(%rdi)
	retq
.Lfunc_end35:
	.size	add_pair_to_block, .Lfunc_end35-add_pair_to_block
	.cfi_endproc

	.globl	BZ2_bzCompressEnd
	.align	16, 0x90
	.type	BZ2_bzCompressEnd,@function
BZ2_bzCompressEnd:                      # @BZ2_bzCompressEnd
	.cfi_startproc
# BB#0:                                 # %entry
	pushq	%r14
.Ltmp176:
	.cfi_def_cfa_offset 16
	pushq	%rbx
.Ltmp177:
	.cfi_def_cfa_offset 24
	pushq	%rax
.Ltmp178:
	.cfi_def_cfa_offset 32
.Ltmp179:
	.cfi_offset %rbx, -24
.Ltmp180:
	.cfi_offset %r14, -16
	movq	%rdi, %rbx
	movl	$-2, %eax
	testq	%rbx, %rbx
	je	.LBB36_10
# BB#1:                                 # %if.end
	movq	48(%rbx), %r14
	testq	%r14, %r14
	je	.LBB36_10
# BB#2:                                 # %if.end3
	cmpq	%rbx, (%r14)
	jne	.LBB36_10
# BB#3:                                 # %if.end7
	movq	24(%r14), %rsi
	testq	%rsi, %rsi
	je	.LBB36_5
# BB#4:                                 # %if.then9
	movq	72(%rbx), %rdi
	callq	*64(%rbx)
.LBB36_5:                               # %if.end11
	movq	32(%r14), %rsi
	testq	%rsi, %rsi
	je	.LBB36_7
# BB#6:                                 # %if.then13
	movq	72(%rbx), %rdi
	callq	*64(%rbx)
.LBB36_7:                               # %if.end17
	movq	40(%r14), %rsi
	testq	%rsi, %rsi
	je	.LBB36_9
# BB#8:                                 # %if.then19
	movq	72(%rbx), %rdi
	callq	*64(%rbx)
.LBB36_9:                               # %if.end23
	movq	48(%rbx), %rsi
	movq	72(%rbx), %rdi
	callq	*64(%rbx)
	movq	$0, 48(%rbx)
	xorl	%eax, %eax
.LBB36_10:                              # %cleanup
	addq	$8, %rsp
	popq	%rbx
	popq	%r14
	retq
.Lfunc_end36:
	.size	BZ2_bzCompressEnd, .Lfunc_end36-BZ2_bzCompressEnd
	.cfi_endproc

	.globl	BZ2_bzDecompressInit
	.align	16, 0x90
	.type	BZ2_bzDecompressInit,@function
BZ2_bzDecompressInit:                   # @BZ2_bzDecompressInit
	.cfi_startproc
# BB#0:                                 # %entry
	pushq	%rbp
.Ltmp181:
	.cfi_def_cfa_offset 16
	pushq	%r14
.Ltmp182:
	.cfi_def_cfa_offset 24
	pushq	%rbx
.Ltmp183:
	.cfi_def_cfa_offset 32
.Ltmp184:
	.cfi_offset %rbx, -32
.Ltmp185:
	.cfi_offset %r14, -24
.Ltmp186:
	.cfi_offset %rbp, -16
	movl	%edx, %r14d
	movl	%esi, %ebx
	movq	%rdi, %rbp
	cmpl	$4, %ebx
	movl	$-2, %eax
	ja	.LBB37_9
# BB#1:                                 # %entry
	testq	%rbp, %rbp
	je	.LBB37_9
# BB#2:                                 # %entry
	cmpl	$1, %r14d
	ja	.LBB37_9
# BB#3:                                 # %if.end10
	movq	56(%rbp), %rax
	testq	%rax, %rax
	jne	.LBB37_5
# BB#4:                                 # %if.then12
	movq	$default_bzalloc, 56(%rbp)
	movl	$default_bzalloc, %eax
.LBB37_5:                               # %if.end14
	cmpq	$0, 64(%rbp)
	jne	.LBB37_7
# BB#6:                                 # %if.then16
	movq	$default_bzfree, 64(%rbp)
.LBB37_7:                               # %if.end18
	movq	72(%rbp), %rdi
	movl	$64144, %esi            # imm = 0xFA90
	movl	$1, %edx
	callq	*%rax
	movq	%rax, %rcx
	movl	$-3, %eax
	testq	%rcx, %rcx
	je	.LBB37_9
# BB#8:                                 # %if.end23
	movq	%rbp, (%rcx)
	movq	%rcx, 48(%rbp)
	movl	$10, 8(%rcx)
	movl	$0, 36(%rcx)
	movl	$0, 32(%rcx)
	movl	$0, 3188(%rcx)
	movl	$0, 12(%rbp)
	movl	$0, 16(%rbp)
	movl	$0, 36(%rbp)
	movl	$0, 40(%rbp)
	movb	%r14b, 44(%rcx)
	movl	$0, 48(%rcx)
	xorps	%xmm0, %xmm0
	movups	%xmm0, 3152(%rcx)
	movq	$0, 3168(%rcx)
	movl	%ebx, 52(%rcx)
	xorl	%eax, %eax
.LBB37_9:                               # %cleanup
	popq	%rbx
	popq	%r14
	popq	%rbp
	retq
.Lfunc_end37:
	.size	BZ2_bzDecompressInit, .Lfunc_end37-BZ2_bzDecompressInit
	.cfi_endproc

	.globl	BZ2_indexIntoF
	.align	16, 0x90
	.type	BZ2_indexIntoF,@function
BZ2_indexIntoF:                         # @BZ2_indexIntoF
	.cfi_startproc
# BB#0:                                 # %entry
	xorl	%eax, %eax
	movl	$256, %ecx              # imm = 0x100
	.align	16, 0x90
.LBB38_1:                               # %do.body
                                        # =>This Inner Loop Header: Depth=1
	leal	(%rax,%rcx), %edx
	sarl	%edx
	movslq	%edx, %rdx
	cmpl	%edi, (%rsi,%rdx,4)
	cmovgl	%edx, %ecx
	cmovlel	%edx, %eax
	movl	%ecx, %edx
	subl	%eax, %edx
	cmpl	$1, %edx
	jne	.LBB38_1
# BB#2:                                 # %do.end
	retq
.Lfunc_end38:
	.size	BZ2_indexIntoF, .Lfunc_end38-BZ2_indexIntoF
	.cfi_endproc

	.globl	BZ2_bzDecompress
	.align	16, 0x90
	.type	BZ2_bzDecompress,@function
BZ2_bzDecompress:                       # @BZ2_bzDecompress
	.cfi_startproc
# BB#0:                                 # %entry
	pushq	%rbp
.Ltmp187:
	.cfi_def_cfa_offset 16
	pushq	%r15
.Ltmp188:
	.cfi_def_cfa_offset 24
	pushq	%r14
.Ltmp189:
	.cfi_def_cfa_offset 32
	pushq	%r13
.Ltmp190:
	.cfi_def_cfa_offset 40
	pushq	%r12
.Ltmp191:
	.cfi_def_cfa_offset 48
	pushq	%rbx
.Ltmp192:
	.cfi_def_cfa_offset 56
	subq	$24, %rsp
.Ltmp193:
	.cfi_def_cfa_offset 80
.Ltmp194:
	.cfi_offset %rbx, -56
.Ltmp195:
	.cfi_offset %r12, -48
.Ltmp196:
	.cfi_offset %r13, -40
.Ltmp197:
	.cfi_offset %r14, -32
.Ltmp198:
	.cfi_offset %r15, -24
.Ltmp199:
	.cfi_offset %rbp, -16
	movl	$-2, %eax
	testq	%rdi, %rdi
	je	.LBB39_140
# BB#1:                                 # %if.end
	movq	48(%rdi), %rbx
	testq	%rbx, %rbx
	je	.LBB39_140
# BB#2:                                 # %if.end3
	cmpq	%rdi, (%rbx)
	jne	.LBB39_140
# BB#3:                                 # %while.body.preheader
	movq	8(%rbx), %rcx
	movl	%ecx, %edx
	jmp	.LBB39_4
	.align	16, 0x90
.LBB39_6:                               # %if.end47
                                        #   Parent Loop BB39_4 Depth=1
                                        # =>  This Inner Loop Header: Depth=2
	cmpl	$10, %edx
	jl	.LBB39_6
	jmp	.LBB39_53
	.align	16, 0x90
.LBB39_7:                               # %if.then14
                                        #   in Loop: Header=BB39_4 Depth=1
	cmpb	$0, 44(%rbx)
	movb	20(%rbx), %al
	je	.LBB39_84
# BB#8:                                 # %if.then15
                                        #   in Loop: Header=BB39_4 Depth=1
	testb	%al, %al
	movq	(%rbx), %r13
	movl	32(%r13), %eax
	je	.LBB39_58
# BB#9:                                 # %while.body2.preheader.i
                                        #   in Loop: Header=BB39_4 Depth=1
	testl	%eax, %eax
	je	.LBB39_45
	.align	16, 0x90
.LBB39_10:                              # %if.end.i
                                        #   Parent Loop BB39_4 Depth=1
                                        # =>  This Loop Header: Depth=2
                                        #       Child Loop BB39_16 Depth 3
                                        #       Child Loop BB39_23 Depth 3
                                        #       Child Loop BB39_30 Depth 3
                                        #       Child Loop BB39_36 Depth 3
                                        #       Child Loop BB39_40 Depth 3
	cmpl	$0, 16(%rbx)
	je	.LBB39_13
# BB#11:                                # %if.end6.i
                                        #   in Loop: Header=BB39_10 Depth=2
	movb	12(%rbx), %al
	movq	24(%r13), %rcx
	movb	%al, (%rcx)
	movl	3184(%rbx), %eax
	movl	%eax, %ecx
	shll	$8, %ecx
	shrl	$24, %eax
	movzbl	12(%rbx), %edx
	xorl	%eax, %edx
	xorl	BZ2_crc32Table(,%rdx,4), %ecx
	movl	%ecx, 3184(%rbx)
	decl	16(%rbx)
	movq	(%rbx), %rax
	incq	24(%rax)
	movq	(%rbx), %rax
	decl	32(%rax)
	movq	(%rbx), %rax
	incl	36(%rax)
	movq	(%rbx), %r13
	cmpl	$0, 36(%r13)
	jne	.LBB39_44
# BB#12:                                # %if.then23.i
                                        #   in Loop: Header=BB39_10 Depth=2
	incl	40(%r13)
	movq	(%rbx), %r13
	jmp	.LBB39_44
	.align	16, 0x90
.LBB39_13:                              # %while.end.i
                                        #   in Loop: Header=BB39_10 Depth=2
	movl	1092(%rbx), %r10d
	movl	64080(%rbx), %r9d
	leal	1(%r9), %eax
	cmpl	%eax, %r10d
	je	.LBB39_45
# BB#14:                                # %if.end30.i
                                        #   in Loop: Header=BB39_10 Depth=2
	movl	$-4, %eax
	jg	.LBB39_140
# BB#15:                                # %if.end37.i
                                        #   in Loop: Header=BB39_10 Depth=2
	movl	$1, 16(%rbx)
	movl	64(%rbx), %r12d
	movb	%r12b, 12(%rbx)
	movl	60(%rbx), %ecx
	xorl	%edi, %edi
	movl	$256, %eax              # imm = 0x100
	.align	16, 0x90
.LBB39_16:                              # %do.body.i.i
                                        #   Parent Loop BB39_4 Depth=1
                                        #     Parent Loop BB39_10 Depth=2
                                        # =>    This Inner Loop Header: Depth=3
	leal	(%rdi,%rax), %edx
	sarl	%edx
	movslq	%edx, %rdx
	cmpl	%ecx, 1096(%rbx,%rdx,4)
	cmovgl	%edx, %eax
	cmovlel	%edx, %edi
	movl	%eax, %edx
	subl	%edi, %edx
	cmpl	$1, %edx
	jne	.LBB39_16
# BB#17:                                # %BZ2_indexIntoF.exit.i
                                        #   in Loop: Header=BB39_10 Depth=2
	movq	3160(%rbx), %r8
	movq	3168(%rbx), %r14
	movzwl	(%r8,%rcx,2), %eax
	movl	%ecx, %edx
	shrl	%edx
	movzbl	(%r14,%rdx), %ebp
	leal	(,%rcx,4), %ecx
	andb	$4, %cl
	shrl	%cl, %ebp
	andl	$15, %ebp
	shll	$16, %ebp
	orl	%eax, %ebp
	movl	%ebp, 60(%rbx)
	movq	24(%rbx), %rdx
	movq	%rdx, %r15
	shrq	$32, %r15
	testl	%edx, %edx
	jne	.LBB39_19
# BB#18:                                # %if.then59.i
                                        #   in Loop: Header=BB39_10 Depth=2
	sarq	$32, %rdx
	movl	BZ2_rNums(,%rdx,4), %edx
	movl	%edx, 24(%rbx)
	incl	%r15d
	cmpl	$512, %r15d             # imm = 0x200
	movl	$0, %ecx
	cmovel	%ecx, %r15d
	movl	%r15d, 28(%rbx)
.LBB39_19:                              # %if.end71.i
                                        #   in Loop: Header=BB39_10 Depth=2
	decl	%edx
	movl	%edx, 24(%rbx)
	leal	1(%r10), %r11d
	movl	%r11d, 1092(%rbx)
	cmpl	%r9d, %r10d
	je	.LBB39_44
# BB#20:                                # %if.end88.i
                                        #   in Loop: Header=BB39_10 Depth=2
	cmpl	$1, %edx
	sete	%cl
	movzbl	%cl, %esi
	movzbl	%dil, %ecx
	xorl	%esi, %ecx
	cmpl	%r12d, %ecx
	jne	.LBB39_21
# BB#22:                                # %if.end96.i
                                        #   in Loop: Header=BB39_10 Depth=2
	movl	$2, 16(%rbx)
	xorl	%edi, %edi
	movl	$256, %ecx              # imm = 0x100
	.align	16, 0x90
.LBB39_23:                              # %do.body.i922.i
                                        #   Parent Loop BB39_4 Depth=1
                                        #     Parent Loop BB39_10 Depth=2
                                        # =>    This Inner Loop Header: Depth=3
	leal	(%rdi,%rcx), %esi
	sarl	%esi
	movslq	%esi, %rsi
	cmpl	%ebp, 1096(%rbx,%rsi,4)
	cmovgl	%esi, %ecx
	cmovlel	%esi, %edi
	movl	%ecx, %esi
	subl	%edi, %esi
	cmpl	$1, %esi
	jne	.LBB39_23
# BB#24:                                # %BZ2_indexIntoF.exit923.i
                                        #   in Loop: Header=BB39_10 Depth=2
	movl	%ebp, %ecx
	movq	%r8, 16(%rsp)           # 8-byte Spill
	movzwl	(%r8,%rcx,2), %r8d
	shrl	%ebp
	movq	%r14, %rcx
	movzbl	(%rcx,%rbp), %r14d
	movq	%rcx, %rsi
	shll	$2, %eax
	andb	$4, %al
	movb	%al, %cl
	shrl	%cl, %r14d
	andl	$15, %r14d
	shll	$16, %r14d
	orl	%r8d, %r14d
	movl	%r14d, 60(%rbx)
	testl	%edx, %edx
	jne	.LBB39_26
# BB#25:                                # %if.then125.i
                                        #   in Loop: Header=BB39_10 Depth=2
	movslq	%r15d, %r15
	movl	BZ2_rNums(,%r15,4), %edx
	movl	%edx, 24(%rbx)
	incl	%r15d
	cmpl	$512, %r15d             # imm = 0x200
	movl	$0, %eax
	cmovel	%eax, %r15d
	movl	%r15d, 28(%rbx)
.LBB39_26:                              # %if.end138.i
                                        #   in Loop: Header=BB39_10 Depth=2
	decl	%edx
	movl	%edx, 24(%rbx)
	leal	2(%r10), %ebp
	movl	%ebp, 1092(%rbx)
	cmpl	%r9d, %r11d
	je	.LBB39_44
# BB#27:                                # %if.end156.i
                                        #   in Loop: Header=BB39_10 Depth=2
	cmpl	$1, %edx
	sete	%al
	movzbl	%al, %ecx
	movzbl	%dil, %eax
	xorl	%ecx, %eax
	cmpl	%r12d, %eax
	jne	.LBB39_28
# BB#29:                                # %if.end164.i
                                        #   in Loop: Header=BB39_10 Depth=2
	movl	$3, 16(%rbx)
	xorl	%edi, %edi
	movl	$256, %eax              # imm = 0x100
	.align	16, 0x90
.LBB39_30:                              # %do.body.i909.i
                                        #   Parent Loop BB39_4 Depth=1
                                        #     Parent Loop BB39_10 Depth=2
                                        # =>    This Inner Loop Header: Depth=3
	leal	(%rdi,%rax), %ecx
	sarl	%ecx
	movslq	%ecx, %rcx
	cmpl	%r14d, 1096(%rbx,%rcx,4)
	cmovgl	%ecx, %eax
	cmovlel	%ecx, %edi
	movl	%eax, %ecx
	subl	%edi, %ecx
	cmpl	$1, %ecx
	jne	.LBB39_30
# BB#31:                                # %BZ2_indexIntoF.exit910.i
                                        #   in Loop: Header=BB39_10 Depth=2
	movl	%r14d, %eax
	movq	16(%rsp), %rcx          # 8-byte Reload
	movzwl	(%rcx,%rax,2), %eax
	shrl	%r14d
	movq	%rsi, %rcx
	movzbl	(%rcx,%r14), %esi
	movq	%rcx, %r11
	shll	$2, %r8d
	andb	$4, %r8b
	movb	%r8b, %cl
	shrl	%cl, %esi
	andl	$15, %esi
	shll	$16, %esi
	orl	%eax, %esi
	movl	%esi, 60(%rbx)
	testl	%edx, %edx
	jne	.LBB39_33
# BB#32:                                # %if.then193.i
                                        #   in Loop: Header=BB39_10 Depth=2
	movslq	%r15d, %r15
	movl	BZ2_rNums(,%r15,4), %edx
	movl	%edx, 24(%rbx)
	incl	%r15d
	cmpl	$512, %r15d             # imm = 0x200
	movl	$0, %ecx
	cmovel	%ecx, %r15d
	movl	%r15d, 28(%rbx)
.LBB39_33:                              # %if.end206.i
                                        #   in Loop: Header=BB39_10 Depth=2
	decl	%edx
	movl	%edx, 24(%rbx)
	leal	3(%r10), %ecx
	movl	%ecx, 1092(%rbx)
	cmpl	%r9d, %ebp
	movq	16(%rsp), %r8           # 8-byte Reload
	je	.LBB39_44
# BB#34:                                # %if.end224.i
                                        #   in Loop: Header=BB39_10 Depth=2
	cmpl	$1, %edx
	sete	%cl
	movzbl	%cl, %ebp
	movzbl	%dil, %ecx
	xorl	%ebp, %ecx
	cmpl	%r12d, %ecx
	jne	.LBB39_141
# BB#35:                                #   in Loop: Header=BB39_10 Depth=2
	xorl	%edi, %edi
	movl	$256, %ecx              # imm = 0x100
	.align	16, 0x90
.LBB39_36:                              # %do.body.i896.i
                                        #   Parent Loop BB39_4 Depth=1
                                        #     Parent Loop BB39_10 Depth=2
                                        # =>    This Inner Loop Header: Depth=3
	leal	(%rdi,%rcx), %ebp
	sarl	%ebp
	movslq	%ebp, %rbp
	cmpl	%esi, 1096(%rbx,%rbp,4)
	cmovgl	%ebp, %ecx
	cmovlel	%ebp, %edi
	movl	%ecx, %ebp
	subl	%edi, %ebp
	cmpl	$1, %ebp
	jne	.LBB39_36
# BB#37:                                # %BZ2_indexIntoF.exit897.i
                                        #   in Loop: Header=BB39_10 Depth=2
	movl	%esi, %ecx
	movq	%r8, %rbp
	movzwl	(%rbp,%rcx,2), %r8d
	shrl	%esi
	movzbl	(%r11,%rsi), %esi
	shll	$2, %eax
	andb	$4, %al
	movb	%al, %cl
	shrl	%cl, %esi
	andl	$15, %esi
	shll	$16, %esi
	orl	%r8d, %esi
	movl	%esi, 60(%rbx)
	testl	%edx, %edx
	jne	.LBB39_39
# BB#38:                                # %if.then260.i
                                        #   in Loop: Header=BB39_10 Depth=2
	movslq	%r15d, %r15
	movl	BZ2_rNums(,%r15,4), %edx
	movl	%edx, 24(%rbx)
	incl	%r15d
	cmpl	$512, %r15d             # imm = 0x200
	movl	$0, %eax
	cmovel	%eax, %r15d
	movl	%r15d, 28(%rbx)
.LBB39_39:                              # %if.end273.i
                                        #   in Loop: Header=BB39_10 Depth=2
	decl	%edx
	movl	%edx, 24(%rbx)
	cmpl	$1, %edx
	sete	%al
	movzbl	%al, %eax
	leal	4(%r10), %ecx
	movl	%ecx, 1092(%rbx)
	movzbl	%dil, %ecx
	xorl	%eax, %ecx
	addl	$4, %ecx
	movl	%ecx, 16(%rbx)
	xorl	%eax, %eax
	movl	$256, %ecx              # imm = 0x100
	.align	16, 0x90
.LBB39_40:                              # %do.body.i883.i
                                        #   Parent Loop BB39_4 Depth=1
                                        #     Parent Loop BB39_10 Depth=2
                                        # =>    This Inner Loop Header: Depth=3
	leal	(%rax,%rcx), %edi
	sarl	%edi
	movslq	%edi, %rdi
	cmpl	%esi, 1096(%rbx,%rdi,4)
	cmovgl	%edi, %ecx
	cmovlel	%edi, %eax
	movl	%ecx, %edi
	subl	%eax, %edi
	cmpl	$1, %edi
	jne	.LBB39_40
# BB#41:                                # %BZ2_indexIntoF.exit884.i
                                        #   in Loop: Header=BB39_10 Depth=2
	movl	%eax, 64(%rbx)
	movl	%esi, %ecx
	movzwl	(%rbp,%rcx,2), %edi
	shrl	%esi
	movzbl	(%r11,%rsi), %esi
	shll	$2, %r8d
	andb	$4, %r8b
	movb	%r8b, %cl
	shrl	%cl, %esi
	andl	$15, %esi
	shll	$16, %esi
	orl	%edi, %esi
	movl	%esi, 60(%rbx)
	testl	%edx, %edx
	jne	.LBB39_43
# BB#42:                                # %if.then315.i
                                        #   in Loop: Header=BB39_10 Depth=2
	movslq	%r15d, %rcx
	movl	BZ2_rNums(,%rcx,4), %edx
	movl	%edx, 24(%rbx)
	incl	%ecx
	cmpl	$512, %ecx              # imm = 0x200
	movl	$0, %esi
	cmovel	%esi, %ecx
	movl	%ecx, 28(%rbx)
.LBB39_43:                              # %if.end328.i
                                        #   in Loop: Header=BB39_10 Depth=2
	decl	%edx
	movl	%edx, 24(%rbx)
	cmpl	$1, %edx
	sete	%cl
	movzbl	%cl, %ecx
	xorl	%eax, %ecx
	movl	%ecx, 64(%rbx)
	addl	$5, %r10d
	movl	%r10d, 1092(%rbx)
	jmp	.LBB39_44
.LBB39_21:                              # %if.then93.i
                                        #   in Loop: Header=BB39_10 Depth=2
	movl	%ecx, 64(%rbx)
	jmp	.LBB39_44
.LBB39_28:                              # %if.then161.i
                                        #   in Loop: Header=BB39_10 Depth=2
	movl	%eax, 64(%rbx)
	jmp	.LBB39_44
.LBB39_141:                             # %if.then229.i
                                        #   in Loop: Header=BB39_10 Depth=2
	movl	%ecx, 64(%rbx)
	.align	16, 0x90
.LBB39_44:                              # %while.body2.backedge.i
                                        #   in Loop: Header=BB39_10 Depth=2
	cmpl	$0, 32(%r13)
	jne	.LBB39_10
	jmp	.LBB39_45
.LBB39_84:                              # %if.else
                                        #   in Loop: Header=BB39_4 Depth=1
	testb	%al, %al
	jne	.LBB39_85
# BB#112:                               # %if.else.i
                                        #   in Loop: Header=BB39_4 Depth=1
	shrq	$32, %rcx
	movl	3184(%rbx), %r13d
	movl	16(%rbx), %r9d
	movl	1092(%rbx), %r11d
	movl	64(%rbx), %r8d
	movq	3152(%rbx), %r10
	movq	%r10, 16(%rsp)          # 8-byte Spill
	movl	60(%rbx), %r12d
	movq	(%rbx), %rax
	movq	24(%rax), %r14
	movl	32(%rax), %eax
	movl	%eax, 12(%rsp)          # 4-byte Spill
	movl	64080(%rbx), %r15d
	incl	%r15d
	movl	%eax, %ebp
	jmp	.LBB39_113
	.align	16, 0x90
.LBB39_89:                              # %if.then23.i143
                                        #   in Loop: Header=BB39_85 Depth=2
	incl	40(%rcx)
.LBB39_85:                              # %while.body2.preheader.i110
                                        #   Parent Loop BB39_4 Depth=1
                                        # =>  This Loop Header: Depth=2
                                        #       Child Loop BB39_86 Depth 3
	movq	(%rbx), %rcx
	jmp	.LBB39_86
.LBB39_96:                              # %if.then84.i
                                        #   in Loop: Header=BB39_86 Depth=3
	movl	%esi, 64(%rbx)
	.align	16, 0x90
.LBB39_86:                              # %while.body2.preheader.i110
                                        #   Parent Loop BB39_4 Depth=1
                                        #     Parent Loop BB39_85 Depth=2
                                        # =>    This Inner Loop Header: Depth=3
	cmpl	$0, 32(%rcx)
	je	.LBB39_45
# BB#87:                                # %if.end.i121
                                        #   in Loop: Header=BB39_86 Depth=3
	cmpl	$0, 16(%rbx)
	je	.LBB39_90
# BB#88:                                # %if.end6.i139
                                        #   in Loop: Header=BB39_86 Depth=3
	movb	12(%rbx), %al
	movq	24(%rcx), %rcx
	movb	%al, (%rcx)
	movl	3184(%rbx), %eax
	movl	%eax, %ecx
	shll	$8, %ecx
	shrl	$24, %eax
	movzbl	12(%rbx), %edx
	xorl	%eax, %edx
	xorl	BZ2_crc32Table(,%rdx,4), %ecx
	movl	%ecx, 3184(%rbx)
	decl	16(%rbx)
	movq	(%rbx), %rax
	incq	24(%rax)
	movq	(%rbx), %rax
	decl	32(%rax)
	movq	(%rbx), %rax
	incl	36(%rax)
	movq	(%rbx), %rcx
	cmpl	$0, 36(%rcx)
	jne	.LBB39_86
	jmp	.LBB39_89
	.align	16, 0x90
.LBB39_90:                              # %while.end.i146
                                        #   in Loop: Header=BB39_86 Depth=3
	movl	1092(%rbx), %r10d
	movl	64080(%rbx), %ebp
	leal	1(%rbp), %eax
	cmpl	%eax, %r10d
	je	.LBB39_45
# BB#91:                                # %if.end30.i148
                                        #   in Loop: Header=BB39_86 Depth=3
	movl	$-4, %eax
	jg	.LBB39_140
# BB#92:                                # %if.end37.i151
                                        #   in Loop: Header=BB39_86 Depth=3
	movl	$1, 16(%rbx)
	movl	64(%rbx), %r9d
	movb	%r9b, 12(%rbx)
	movl	60(%rbx), %eax
	movq	3152(%rbx), %r8
	movl	(%r8,%rax,4), %esi
	movl	%esi, %edi
	shrl	$8, %edi
	movl	%edi, 60(%rbx)
	movq	24(%rbx), %rax
	movq	%rax, %r14
	shrq	$32, %r14
	testl	%eax, %eax
	jne	.LBB39_94
# BB#93:                                # %if.then50.i
                                        #   in Loop: Header=BB39_86 Depth=3
	sarq	$32, %rax
	movl	BZ2_rNums(,%rax,4), %eax
	movl	%eax, 24(%rbx)
	incl	%r14d
	cmpl	$512, %r14d             # imm = 0x200
	movl	$0, %edx
	cmovel	%edx, %r14d
	movl	%r14d, 28(%rbx)
.LBB39_94:                              # %if.end62.i
                                        #   in Loop: Header=BB39_86 Depth=3
	decl	%eax
	movl	%eax, 24(%rbx)
	leal	1(%r10), %r15d
	movl	%r15d, 1092(%rbx)
	cmpl	%ebp, %r10d
	je	.LBB39_86
# BB#95:                                # %if.end79.i
                                        #   in Loop: Header=BB39_86 Depth=3
	cmpl	$1, %eax
	sete	%dl
	movzbl	%dl, %edx
	movzbl	%sil, %esi
	xorl	%edx, %esi
	cmpl	%r9d, %esi
	jne	.LBB39_96
# BB#97:                                # %if.end87.i
                                        #   in Loop: Header=BB39_86 Depth=3
	movl	$2, 16(%rbx)
	movl	%edi, %edx
	movl	(%r8,%rdx,4), %esi
	movl	%esi, %edi
	shrl	$8, %edi
	movl	%edi, 60(%rbx)
	testl	%eax, %eax
	jne	.LBB39_99
# BB#98:                                # %if.then102.i
                                        #   in Loop: Header=BB39_86 Depth=3
	movslq	%r14d, %r14
	movl	BZ2_rNums(,%r14,4), %eax
	movl	%eax, 24(%rbx)
	incl	%r14d
	cmpl	$512, %r14d             # imm = 0x200
	movl	$0, %edx
	cmovel	%edx, %r14d
	movl	%r14d, 28(%rbx)
.LBB39_99:                              # %if.end115.i
                                        #   in Loop: Header=BB39_86 Depth=3
	decl	%eax
	movl	%eax, 24(%rbx)
	leal	2(%r10), %r11d
	movl	%r11d, 1092(%rbx)
	cmpl	%ebp, %r15d
	je	.LBB39_86
# BB#100:                               # %if.end133.i
                                        #   in Loop: Header=BB39_86 Depth=3
	cmpl	$1, %eax
	sete	%dl
	movzbl	%dl, %r15d
	movzbl	%sil, %edx
	xorl	%r15d, %edx
	cmpl	%r9d, %edx
	jne	.LBB39_101
# BB#102:                               # %if.end141.i
                                        #   in Loop: Header=BB39_86 Depth=3
	movl	$3, 16(%rbx)
	movl	%edi, %edx
	movl	(%r8,%rdx,4), %esi
	movl	%esi, %r15d
	shrl	$8, %r15d
	movl	%r15d, 60(%rbx)
	testl	%eax, %eax
	jne	.LBB39_104
# BB#103:                               # %if.then156.i
                                        #   in Loop: Header=BB39_86 Depth=3
	movslq	%r14d, %r14
	movl	BZ2_rNums(,%r14,4), %eax
	movl	%eax, 24(%rbx)
	incl	%r14d
	cmpl	$512, %r14d             # imm = 0x200
	movl	$0, %edx
	cmovel	%edx, %r14d
	movl	%r14d, 28(%rbx)
.LBB39_104:                             # %if.end169.i
                                        #   in Loop: Header=BB39_86 Depth=3
	decl	%eax
	movl	%eax, 24(%rbx)
	leal	3(%r10), %edi
	movl	%edi, 1092(%rbx)
	cmpl	%ebp, %r11d
	je	.LBB39_86
# BB#105:                               # %if.end187.i
                                        #   in Loop: Header=BB39_86 Depth=3
	cmpl	$1, %eax
	sete	%dl
	movzbl	%dl, %edx
	movzbl	%sil, %esi
	xorl	%edx, %esi
	cmpl	%r9d, %esi
	jne	.LBB39_106
# BB#107:                               # %if.end195.i
                                        #   in Loop: Header=BB39_86 Depth=3
	movl	%r15d, %edx
	movl	(%r8,%rdx,4), %ebp
	movl	%ebp, %esi
	shrl	$8, %esi
	movl	%esi, 60(%rbx)
	testl	%eax, %eax
	jne	.LBB39_109
# BB#108:                               # %if.then209.i
                                        #   in Loop: Header=BB39_86 Depth=3
	movslq	%r14d, %r14
	movl	BZ2_rNums(,%r14,4), %eax
	movl	%eax, 24(%rbx)
	incl	%r14d
	cmpl	$512, %r14d             # imm = 0x200
	movl	$0, %edx
	cmovel	%edx, %r14d
	movl	%r14d, 28(%rbx)
.LBB39_109:                             # %if.end222.i
                                        #   in Loop: Header=BB39_86 Depth=3
	leal	-1(%rax), %edi
	movl	%edi, 24(%rbx)
	cmpl	$1, %edi
	sete	%dl
	movzbl	%dl, %edx
	leal	4(%r10), %edi
	movl	%edi, 1092(%rbx)
	movzbl	%bpl, %edi
	xorl	%edx, %edi
	addl	$4, %edi
	movl	%edi, 16(%rbx)
	movl	%esi, %edx
	movl	(%r8,%rdx,4), %esi
	movzbl	%sil, %edx
	shrl	$8, %esi
	decl	%eax
	movl	%edx, 64(%rbx)
	movl	%esi, 60(%rbx)
	jne	.LBB39_111
# BB#110:                               # %if.then252.i
                                        #   in Loop: Header=BB39_86 Depth=3
	movslq	%r14d, %rsi
	movl	BZ2_rNums(,%rsi,4), %eax
	movl	%eax, 24(%rbx)
	incl	%esi
	cmpl	$512, %esi              # imm = 0x200
	movl	$0, %edi
	cmovel	%edi, %esi
	movl	%esi, 28(%rbx)
.LBB39_111:                             # %if.end265.i
                                        #   in Loop: Header=BB39_86 Depth=3
	decl	%eax
	movl	%eax, 24(%rbx)
	cmpl	$1, %eax
	sete	%al
	movzbl	%al, %eax
	xorl	%edx, %eax
	movl	%eax, 64(%rbx)
	addl	$5, %r10d
	movl	%r10d, 1092(%rbx)
	jmp	.LBB39_86
.LBB39_101:                             # %if.then138.i
                                        #   in Loop: Header=BB39_86 Depth=3
	movl	%edx, 64(%rbx)
	jmp	.LBB39_86
.LBB39_106:                             # %if.then192.i
                                        #   in Loop: Header=BB39_86 Depth=3
	movl	%esi, 64(%rbx)
	jmp	.LBB39_86
.LBB39_58:                              # %while.body342.preheader.i
                                        #   in Loop: Header=BB39_4 Depth=1
	testl	%eax, %eax
	je	.LBB39_45
	.align	16, 0x90
.LBB39_59:                              # %if.end348.i
                                        #   Parent Loop BB39_4 Depth=1
                                        # =>  This Loop Header: Depth=2
                                        #       Child Loop BB39_65 Depth 3
                                        #       Child Loop BB39_70 Depth 3
                                        #       Child Loop BB39_75 Depth 3
                                        #       Child Loop BB39_79 Depth 3
                                        #       Child Loop BB39_81 Depth 3
	cmpl	$0, 16(%rbx)
	je	.LBB39_62
# BB#60:                                # %if.end353.i
                                        #   in Loop: Header=BB39_59 Depth=2
	movb	12(%rbx), %al
	movq	24(%r13), %rcx
	movb	%al, (%rcx)
	movl	3184(%rbx), %eax
	movl	%eax, %ecx
	shll	$8, %ecx
	shrl	$24, %eax
	movzbl	12(%rbx), %edx
	xorl	%eax, %edx
	xorl	BZ2_crc32Table(,%rdx,4), %ecx
	movl	%ecx, 3184(%rbx)
	decl	16(%rbx)
	movq	(%rbx), %rax
	incq	24(%rax)
	movq	(%rbx), %rax
	decl	32(%rax)
	movq	(%rbx), %rax
	incl	36(%rax)
	movq	(%rbx), %r13
	cmpl	$0, 36(%r13)
	jne	.LBB39_83
# BB#61:                                # %if.then383.i
                                        #   in Loop: Header=BB39_59 Depth=2
	incl	40(%r13)
	movq	(%rbx), %r13
	jmp	.LBB39_83
	.align	16, 0x90
.LBB39_62:                              # %while.end388.i
                                        #   in Loop: Header=BB39_59 Depth=2
	movl	1092(%rbx), %r14d
	movl	64080(%rbx), %r15d
	leal	1(%r15), %eax
	cmpl	%eax, %r14d
	je	.LBB39_45
# BB#63:                                # %if.end395.i
                                        #   in Loop: Header=BB39_59 Depth=2
	movl	$-4, %eax
	jg	.LBB39_140
# BB#64:                                # %if.end402.i
                                        #   in Loop: Header=BB39_59 Depth=2
	movl	$1, 16(%rbx)
	movl	64(%rbx), %r11d
	movb	%r11b, 12(%rbx)
	movl	60(%rbx), %ecx
	xorl	%edi, %edi
	movl	$256, %eax              # imm = 0x100
	.align	16, 0x90
.LBB39_65:                              # %do.body.i870.i
                                        #   Parent Loop BB39_4 Depth=1
                                        #     Parent Loop BB39_59 Depth=2
                                        # =>    This Inner Loop Header: Depth=3
	leal	(%rdi,%rax), %edx
	sarl	%edx
	movslq	%edx, %rdx
	cmpl	%ecx, 1096(%rbx,%rdx,4)
	cmovgl	%edx, %eax
	cmovlel	%edx, %edi
	movl	%eax, %edx
	subl	%edi, %edx
	cmpl	$1, %edx
	jne	.LBB39_65
# BB#66:                                # %BZ2_indexIntoF.exit871.i
                                        #   in Loop: Header=BB39_59 Depth=2
	movq	3160(%rbx), %r10
	movq	3168(%rbx), %r9
	movzwl	(%r10,%rcx,2), %eax
	movl	%ecx, %edx
	shrl	%edx
	movzbl	(%r9,%rdx), %edx
	leal	(,%rcx,4), %ecx
	andb	$4, %cl
	shrl	%cl, %edx
	andl	$15, %edx
	shll	$16, %edx
	orl	%eax, %edx
	movl	%edx, 60(%rbx)
	leal	1(%r14), %esi
	movl	%esi, 1092(%rbx)
	cmpl	%r15d, %r14d
	je	.LBB39_83
# BB#67:                                # %if.end439.i
                                        #   in Loop: Header=BB39_59 Depth=2
	movzbl	%dil, %ecx
	cmpl	%r11d, %ecx
	jne	.LBB39_68
# BB#69:                                # %if.end447.i
                                        #   in Loop: Header=BB39_59 Depth=2
	movl	$2, 16(%rbx)
	xorl	%edi, %edi
	movl	$256, %ecx              # imm = 0x100
	.align	16, 0x90
.LBB39_70:                              # %do.body.i857.i
                                        #   Parent Loop BB39_4 Depth=1
                                        #     Parent Loop BB39_59 Depth=2
                                        # =>    This Inner Loop Header: Depth=3
	leal	(%rdi,%rcx), %ebp
	sarl	%ebp
	movslq	%ebp, %rbp
	cmpl	%edx, 1096(%rbx,%rbp,4)
	cmovgl	%ebp, %ecx
	cmovlel	%ebp, %edi
	movl	%ecx, %ebp
	subl	%edi, %ebp
	cmpl	$1, %ebp
	jne	.LBB39_70
# BB#71:                                # %BZ2_indexIntoF.exit858.i
                                        #   in Loop: Header=BB39_59 Depth=2
	movl	%edx, %ecx
	movzwl	(%r10,%rcx,2), %r8d
	shrl	%edx
	movzbl	(%r9,%rdx), %edx
	shll	$2, %eax
	andb	$4, %al
	movb	%al, %cl
	shrl	%cl, %edx
	andl	$15, %edx
	shll	$16, %edx
	orl	%r8d, %edx
	movl	%edx, 60(%rbx)
	leal	2(%r14), %eax
	movl	%eax, 1092(%rbx)
	cmpl	%r15d, %esi
	je	.LBB39_83
# BB#72:                                # %if.end481.i
                                        #   in Loop: Header=BB39_59 Depth=2
	movzbl	%dil, %ecx
	cmpl	%r11d, %ecx
	jne	.LBB39_73
# BB#74:                                # %if.end489.i
                                        #   in Loop: Header=BB39_59 Depth=2
	movl	$3, 16(%rbx)
	xorl	%edi, %edi
	movl	$256, %ecx              # imm = 0x100
	.align	16, 0x90
.LBB39_75:                              # %do.body.i844.i
                                        #   Parent Loop BB39_4 Depth=1
                                        #     Parent Loop BB39_59 Depth=2
                                        # =>    This Inner Loop Header: Depth=3
	leal	(%rdi,%rcx), %esi
	sarl	%esi
	movslq	%esi, %rsi
	cmpl	%edx, 1096(%rbx,%rsi,4)
	cmovgl	%esi, %ecx
	cmovlel	%esi, %edi
	movl	%ecx, %esi
	subl	%edi, %esi
	cmpl	$1, %esi
	jne	.LBB39_75
# BB#76:                                # %BZ2_indexIntoF.exit845.i
                                        #   in Loop: Header=BB39_59 Depth=2
	movl	%edx, %ecx
	movzwl	(%r10,%rcx,2), %esi
	shrl	%edx
	movzbl	(%r9,%rdx), %edx
	shll	$2, %r8d
	andb	$4, %r8b
	movb	%r8b, %cl
	shrl	%cl, %edx
	andl	$15, %edx
	shll	$16, %edx
	orl	%esi, %edx
	movl	%edx, 60(%rbx)
	leal	3(%r14), %ecx
	movl	%ecx, 1092(%rbx)
	cmpl	%r15d, %eax
	je	.LBB39_83
# BB#77:                                # %if.end523.i
                                        #   in Loop: Header=BB39_59 Depth=2
	movzbl	%dil, %eax
	cmpl	%r11d, %eax
	jne	.LBB39_142
# BB#78:                                #   in Loop: Header=BB39_59 Depth=2
	xorl	%edi, %edi
	movl	$256, %eax              # imm = 0x100
.LBB39_79:                              # %do.body.i831.i
                                        #   Parent Loop BB39_4 Depth=1
                                        #     Parent Loop BB39_59 Depth=2
                                        # =>    This Inner Loop Header: Depth=3
	leal	(%rdi,%rax), %ecx
	sarl	%ecx
	movslq	%ecx, %rcx
	cmpl	%edx, 1096(%rbx,%rcx,4)
	cmovgl	%ecx, %eax
	cmovlel	%ecx, %edi
	movl	%eax, %ecx
	subl	%edi, %ecx
	cmpl	$1, %ecx
	jne	.LBB39_79
# BB#80:                                # %BZ2_indexIntoF.exit832.i
                                        #   in Loop: Header=BB39_59 Depth=2
	movl	%edx, %eax
	movzwl	(%r10,%rax,2), %r8d
	shrl	%edx
	movzbl	(%r9,%rdx), %eax
	shll	$2, %esi
	andb	$4, %sil
	movb	%sil, %cl
	shrl	%cl, %eax
	andl	$15, %eax
	shll	$16, %eax
	orl	%r8d, %eax
	movl	%eax, 60(%rbx)
	leal	4(%r14), %ecx
	movl	%ecx, 1092(%rbx)
	movzbl	%dil, %ecx
	addl	$4, %ecx
	movl	%ecx, 16(%rbx)
	xorl	%ecx, %ecx
	movl	$256, %edx              # imm = 0x100
.LBB39_81:                              # %do.body.i818.i
                                        #   Parent Loop BB39_4 Depth=1
                                        #     Parent Loop BB39_59 Depth=2
                                        # =>    This Inner Loop Header: Depth=3
	leal	(%rcx,%rdx), %esi
	sarl	%esi
	movslq	%esi, %rsi
	cmpl	%eax, 1096(%rbx,%rsi,4)
	cmovgl	%esi, %edx
	cmovlel	%esi, %ecx
	movl	%edx, %esi
	subl	%ecx, %esi
	cmpl	$1, %esi
	jne	.LBB39_81
# BB#82:                                # %BZ2_indexIntoF.exit819.i
                                        #   in Loop: Header=BB39_59 Depth=2
	movl	%ecx, 64(%rbx)
	movl	%eax, %ecx
	movzwl	(%r10,%rcx,2), %edx
	shrl	%eax
	movzbl	(%r9,%rax), %eax
	shll	$2, %r8d
	andb	$4, %r8b
	movb	%r8b, %cl
	shrl	%cl, %eax
	andl	$15, %eax
	shll	$16, %eax
	orl	%edx, %eax
	movl	%eax, 60(%rbx)
	addl	$5, %r14d
	movl	%r14d, 1092(%rbx)
	jmp	.LBB39_83
.LBB39_68:                              # %if.then444.i
                                        #   in Loop: Header=BB39_59 Depth=2
	movl	%ecx, 64(%rbx)
	jmp	.LBB39_83
.LBB39_73:                              # %if.then486.i
                                        #   in Loop: Header=BB39_59 Depth=2
	movl	%ecx, 64(%rbx)
	jmp	.LBB39_83
.LBB39_142:                             # %if.then528.i
                                        #   in Loop: Header=BB39_59 Depth=2
	movl	%eax, 64(%rbx)
	.align	16, 0x90
.LBB39_83:                              # %while.body342.backedge.i
                                        #   in Loop: Header=BB39_59 Depth=2
	cmpl	$0, 32(%r13)
	jne	.LBB39_59
	jmp	.LBB39_45
.LBB39_138:                             # %if.end385.i
                                        #   in Loop: Header=BB39_113 Depth=2
	movl	%r12d, %eax
	movl	(%r10,%rax,4), %eax
	movzbl	%al, %r9d
	shrl	$8, %eax
	addl	$4, %r9d
	movl	(%r10,%rax,4), %r12d
	movzbl	%r12b, %r8d
	shrl	$8, %r12d
	addl	$5, %edi
	movl	%edi, %r11d
.LBB39_113:                             # %while.body290.i
                                        #   Parent Loop BB39_4 Depth=1
                                        # =>  This Loop Header: Depth=2
                                        #       Child Loop BB39_118 Depth 3
	testl	%r9d, %r9d
	jle	.LBB39_114
# BB#115:                               # %while.body295.preheader.i
                                        #   in Loop: Header=BB39_113 Depth=2
	xorl	%esi, %esi
	testl	%ebp, %ebp
	je	.LBB39_116
# BB#117:                               # %if.end299.lr.ph.i
                                        #   in Loop: Header=BB39_113 Depth=2
	movzbl	%cl, %eax
	movl	%ebp, 8(%rsp)           # 4-byte Spill
	movl	%ebp, %ebp
	movl	%r9d, %edx
	decq	%rdx
	xorl	%edi, %edi
	.align	16, 0x90
.LBB39_118:                             # %if.end299.i
                                        #   Parent Loop BB39_4 Depth=1
                                        #     Parent Loop BB39_113 Depth=2
                                        # =>    This Inner Loop Header: Depth=3
	cmpl	%edi, %edx
	je	.LBB39_124
# BB#119:                               # %if.end303.i
                                        #   in Loop: Header=BB39_118 Depth=3
	movb	%al, (%r14,%rdi)
	movl	%r13d, %esi
	shll	$8, %esi
	shrl	$24, %r13d
	movl	%r13d, %r10d
	xorl	%eax, %r10d
	movl	%esi, %r13d
	xorl	BZ2_crc32Table(,%r10,4), %r13d
	incq	%rdi
	cmpl	%edi, %ebp
	jne	.LBB39_118
	jmp	.LBB39_120
.LBB39_114:                             #   in Loop: Header=BB39_113 Depth=2
	movb	%cl, %dl
	movl	%r11d, %edi
	movl	%r8d, %ecx
	jmp	.LBB39_128
.LBB39_124:                             # %s_state_out_len_eq_one.i.loopexit
                                        #   in Loop: Header=BB39_113 Depth=2
	movl	8(%rsp), %ebp           # 4-byte Reload
	subl	%edi, %ebp
	addq	%rdi, %r14
	movq	16(%rsp), %r10          # 8-byte Reload
.LBB39_125:                             # %s_state_out_len_eq_one.i
                                        #   in Loop: Header=BB39_113 Depth=2
	testl	%ebp, %ebp
	je	.LBB39_126
# BB#127:                               # %if.end318.i
                                        #   in Loop: Header=BB39_113 Depth=2
	movb	%cl, (%r14)
	movl	%r13d, %eax
	shll	$8, %eax
	shrl	$24, %r13d
	movzbl	%cl, %edx
	xorl	%r13d, %edx
	xorl	BZ2_crc32Table(,%rdx,4), %eax
	incq	%r14
	decl	%ebp
	movb	%cl, %dl
	movl	%r11d, %edi
	movl	%r8d, %ecx
	movl	%eax, %r13d
.LBB39_128:                             # %if.end328.i159
                                        #   in Loop: Header=BB39_113 Depth=2
	movl	$-4, %eax
	cmpl	%r15d, %edi
	jg	.LBB39_140
# BB#129:                               # %if.end332.i
                                        #   in Loop: Header=BB39_113 Depth=2
	xorl	%r9d, %r9d
	cmpl	%r15d, %edi
	je	.LBB39_130
# BB#131:                               # %if.end336.i
                                        #   in Loop: Header=BB39_113 Depth=2
	movl	%r12d, %eax
	movl	(%r10,%rax,4), %r12d
	movzbl	%r12b, %r8d
	shrl	$8, %r12d
	leal	1(%rdi), %r11d
	cmpl	%ecx, %r8d
	jne	.LBB39_125
# BB#132:                               # %if.end349.i
                                        #   in Loop: Header=BB39_113 Depth=2
	cmpl	%r15d, %r11d
	jne	.LBB39_134
# BB#133:                               #   in Loop: Header=BB39_113 Depth=2
	movl	%r15d, %r11d
	movl	%ecx, %r8d
	jmp	.LBB39_125
.LBB39_134:                             # %if.end353.i162
                                        #   in Loop: Header=BB39_113 Depth=2
	movl	%r12d, %eax
	movl	(%r10,%rax,4), %eax
	movl	%eax, %r12d
	shrl	$8, %r12d
	leal	2(%rdi), %edx
	movl	$2, %r9d
	cmpl	%r15d, %edx
	movl	%r15d, %r11d
	movl	%ecx, %r8d
	je	.LBB39_113
# BB#135:                               # %if.end363.i
                                        #   in Loop: Header=BB39_113 Depth=2
	movzbl	%al, %r8d
	cmpl	%ecx, %r8d
	movl	%edx, %r11d
	jne	.LBB39_113
# BB#136:                               # %if.end369.i
                                        #   in Loop: Header=BB39_113 Depth=2
	movl	%r12d, %eax
	movl	(%r10,%rax,4), %eax
	movl	%eax, %r12d
	shrl	$8, %r12d
	leal	3(%rdi), %edx
	movl	$3, %r9d
	cmpl	%r15d, %edx
	movl	%r15d, %r11d
	movl	%ecx, %r8d
	je	.LBB39_113
# BB#137:                               # %if.end379.i
                                        #   in Loop: Header=BB39_113 Depth=2
	movzbl	%al, %r8d
	cmpl	%ecx, %r8d
	movl	%edx, %r11d
	jne	.LBB39_113
	jmp	.LBB39_138
.LBB39_120:                             # %return_notr.i.loopexit
                                        #   in Loop: Header=BB39_4 Depth=1
	addq	%rdi, %r14
	subl	%edi, %r9d
	movb	%cl, %dl
	movq	16(%rsp), %r10          # 8-byte Reload
	movl	12(%rsp), %edi          # 4-byte Reload
	xorl	%esi, %esi
	jmp	.LBB39_121
.LBB39_126:                             #   in Loop: Header=BB39_4 Depth=1
	xorl	%esi, %esi
	movl	$1, %r9d
.LBB39_116:                             #   in Loop: Header=BB39_4 Depth=1
	movb	%cl, %dl
	movl	12(%rsp), %edi          # 4-byte Reload
	jmp	.LBB39_121
.LBB39_130:                             #   in Loop: Header=BB39_4 Depth=1
	movl	%r15d, %r11d
	movl	%ecx, %r8d
	movl	%ebp, %esi
	movl	12(%rsp), %edi          # 4-byte Reload
.LBB39_121:                             # %return_notr.i
                                        #   in Loop: Header=BB39_4 Depth=1
	movq	(%rbx), %rax
	movl	36(%rax), %ecx
	subl	%esi, %edi
	addl	%ecx, %edi
	movl	%edi, 36(%rax)
	movq	(%rbx), %rax
	cmpl	%ecx, 36(%rax)
	jae	.LBB39_123
# BB#122:                               # %if.then410.i
                                        #   in Loop: Header=BB39_4 Depth=1
	incl	40(%rax)
	movq	(%rbx), %rax
.LBB39_123:                             #   in Loop: Header=BB39_4 Depth=1
	movl	%r13d, 3184(%rbx)
	movb	%dl, 12(%rbx)
	movl	%r9d, 16(%rbx)
	movl	%r11d, 1092(%rbx)
	movl	%r8d, 64(%rbx)
	movq	%r10, 3152(%rbx)
	movl	%r12d, 60(%rbx)
	movq	%r14, 24(%rax)
	movq	(%rbx), %rax
	movl	%esi, 32(%rax)
	.align	16, 0x90
.LBB39_45:                              # %if.end20
                                        #   in Loop: Header=BB39_4 Depth=1
	movl	64080(%rbx), %ecx
	incl	%ecx
	xorl	%eax, %eax
	cmpl	%ecx, 1092(%rbx)
	jne	.LBB39_140
# BB#46:                                # %land.lhs.true
                                        #   in Loop: Header=BB39_4 Depth=1
	cmpl	$0, 16(%rbx)
	jne	.LBB39_140
# BB#47:                                # %if.then23
                                        #   in Loop: Header=BB39_4 Depth=1
	movl	3184(%rbx), %ecx
	notl	%ecx
	movl	%ecx, 3184(%rbx)
	movl	52(%rbx), %eax
	cmpl	$3, %eax
	jge	.LBB39_48
.LBB39_49:                              # %if.end29
                                        #   in Loop: Header=BB39_4 Depth=1
	cmpl	$2, %eax
	jge	.LBB39_50
.LBB39_51:                              # %if.end34
                                        #   in Loop: Header=BB39_4 Depth=1
	movq	3184(%rbx), %rcx
	movl	$-4, %eax
	cmpl	3176(%rbx), %ecx
	jne	.LBB39_140
# BB#52:                                # %if.end47.thread
                                        #   in Loop: Header=BB39_4 Depth=1
	movq	%rcx, %rax
	shrq	$31, %rax
	andl	$-2, %eax
	movq	%rcx, %rdx
	shrq	$63, %rdx
	orl	%eax, %edx
	xorl	%edx, %ecx
	movl	%ecx, 3188(%rbx)
	movl	$14, 8(%rbx)
.LBB39_53:                              # %if.then50
                                        #   in Loop: Header=BB39_4 Depth=1
	movq	%rbx, %rdi
	callq	BZ2_decompress
	cmpl	$4, %eax
	je	.LBB39_54
# BB#139:                               # %cleanup
                                        #   in Loop: Header=BB39_4 Depth=1
	movq	8(%rbx), %rcx
	movl	$2, %edx
	cmpl	$2, %ecx
	je	.LBB39_4
	jmp	.LBB39_140
.LBB39_48:                              # %if.then26
                                        #   in Loop: Header=BB39_4 Depth=1
	movq	stderr(%rip), %rdi
	movl	3176(%rbx), %edx
	movl	$.L.str.2.37, %esi
	xorl	%eax, %eax
	callq	fprintf
	movl	52(%rbx), %eax
	jmp	.LBB39_49
.LBB39_50:                              # %if.then32
                                        #   in Loop: Header=BB39_4 Depth=1
	movq	stderr(%rip), %rsi
	movl	$93, %edi
	callq	fputc
	jmp	.LBB39_51
	.align	16, 0x90
.LBB39_4:                               # %while.body.outer
                                        # =>This Loop Header: Depth=1
                                        #     Child Loop BB39_6 Depth 2
                                        #     Child Loop BB39_10 Depth 2
                                        #       Child Loop BB39_16 Depth 3
                                        #       Child Loop BB39_23 Depth 3
                                        #       Child Loop BB39_30 Depth 3
                                        #       Child Loop BB39_36 Depth 3
                                        #       Child Loop BB39_40 Depth 3
                                        #     Child Loop BB39_59 Depth 2
                                        #       Child Loop BB39_65 Depth 3
                                        #       Child Loop BB39_70 Depth 3
                                        #       Child Loop BB39_75 Depth 3
                                        #       Child Loop BB39_79 Depth 3
                                        #       Child Loop BB39_81 Depth 3
                                        #     Child Loop BB39_85 Depth 2
                                        #       Child Loop BB39_86 Depth 3
                                        #     Child Loop BB39_113 Depth 2
                                        #       Child Loop BB39_118 Depth 3
	cmpl	$2, %edx
	je	.LBB39_7
# BB#5:                                 # %while.body.outer
                                        #   in Loop: Header=BB39_4 Depth=1
	movl	$-1, %eax
	cmpl	$1, %edx
	jne	.LBB39_6
	jmp	.LBB39_140
.LBB39_54:                              # %if.then53
	cmpl	$2, 52(%rbx)
	jg	.LBB39_55
.LBB39_56:                              # %cleanup.thread
	movl	3188(%rbx), %ecx
	movl	$4, %eax
	cmpl	3180(%rbx), %ecx
	je	.LBB39_140
# BB#57:                                # %select.false
	movl	$-4, %eax
.LBB39_140:                             # %cleanup71
	addq	$24, %rsp
	popq	%rbx
	popq	%r12
	popq	%r13
	popq	%r14
	popq	%r15
	popq	%rbp
	retq
.LBB39_55:                              # %if.then56
	movq	stderr(%rip), %rdi
	movl	3180(%rbx), %edx
	movl	3188(%rbx), %ecx
	movl	$.L.str.4.38, %esi
	xorl	%eax, %eax
	callq	fprintf
	jmp	.LBB39_56
.Lfunc_end39:
	.size	BZ2_bzDecompress, .Lfunc_end39-BZ2_bzDecompress
	.cfi_endproc

	.globl	BZ2_bzDecompressEnd
	.align	16, 0x90
	.type	BZ2_bzDecompressEnd,@function
BZ2_bzDecompressEnd:                    # @BZ2_bzDecompressEnd
	.cfi_startproc
# BB#0:                                 # %entry
	pushq	%r14
.Ltmp200:
	.cfi_def_cfa_offset 16
	pushq	%rbx
.Ltmp201:
	.cfi_def_cfa_offset 24
	pushq	%rax
.Ltmp202:
	.cfi_def_cfa_offset 32
.Ltmp203:
	.cfi_offset %rbx, -24
.Ltmp204:
	.cfi_offset %r14, -16
	movq	%rdi, %rbx
	movl	$-2, %eax
	testq	%rbx, %rbx
	je	.LBB40_10
# BB#1:                                 # %if.end
	movq	48(%rbx), %r14
	testq	%r14, %r14
	je	.LBB40_10
# BB#2:                                 # %if.end3
	cmpq	%rbx, (%r14)
	jne	.LBB40_10
# BB#3:                                 # %if.end7
	movq	3152(%r14), %rsi
	testq	%rsi, %rsi
	je	.LBB40_5
# BB#4:                                 # %if.then9
	movq	72(%rbx), %rdi
	callq	*64(%rbx)
.LBB40_5:                               # %if.end11
	movq	3160(%r14), %rsi
	testq	%rsi, %rsi
	je	.LBB40_7
# BB#6:                                 # %if.then13
	movq	72(%rbx), %rdi
	callq	*64(%rbx)
.LBB40_7:                               # %if.end17
	movq	3168(%r14), %rsi
	testq	%rsi, %rsi
	je	.LBB40_9
# BB#8:                                 # %if.then19
	movq	72(%rbx), %rdi
	callq	*64(%rbx)
.LBB40_9:                               # %if.end23
	movq	48(%rbx), %rsi
	movq	72(%rbx), %rdi
	callq	*64(%rbx)
	movq	$0, 48(%rbx)
	xorl	%eax, %eax
.LBB40_10:                              # %cleanup
	addq	$8, %rsp
	popq	%rbx
	popq	%r14
	retq
.Lfunc_end40:
	.size	BZ2_bzDecompressEnd, .Lfunc_end40-BZ2_bzDecompressEnd
	.cfi_endproc

	.globl	BZ2_bzWriteOpen
	.align	16, 0x90
	.type	BZ2_bzWriteOpen,@function
BZ2_bzWriteOpen:                        # @BZ2_bzWriteOpen
	.cfi_startproc
