	.text
	.file	"401.bzip2postpinoo.bc"
	.section	.rodata.cst4,"aM",@progbits,4
	.align	4
.LCPI0_0:
	.long	805306368               # float 4.65661287E-10
	.text
	.globl	ran
	.align	16, 0x90
	.type	ran,@function
ran:                                    # @ran
	.cfi_startproc
# BB#0:                                 # %entry
	movq	seedi(%rip), %rcx
	movabsq	$4730756183288445817, %rdx # imm = 0x41A705AF1FE3FB79
	movq	%rcx, %rax
	imulq	%rdx
	movq	%rdx, %rax
	shrq	$63, %rax
	sarq	$15, %rdx
	addq	%rax, %rdx
	imulq	$127773, %rdx, %rax     # imm = 0x1F31D
	subq	%rax, %rcx
	imulq	$16807, %rcx, %rax      # imm = 0x41A7
	imulq	$-2836, %rdx, %rcx      # imm = 0xFFFFFFFFFFFFF4EC
	leaq	(%rax,%rcx), %rdx
	testq	%rdx, %rdx
	leaq	2147483647(%rax,%rcx), %rax
	cmovgq	%rdx, %rax
	movq	%rax, seedi(%rip)
	cvtsi2ssq	%rax, %xmm0
	mulss	.LCPI0_0(%rip), %xmm0
	cvtss2sd	%xmm0, %xmm0
	retq
.Lfunc_end0:
	.size	ran, .Lfunc_end0-ran
	.cfi_endproc

	.globl	spec_init
	.align	16, 0x90
	.type	spec_init,@function
spec_init:                              # @spec_init
	.cfi_startproc
# BB#0:                                 # %entry
	pushq	%r15
.Ltmp0:
	.cfi_def_cfa_offset 16
	pushq	%r14
.Ltmp1:
	.cfi_def_cfa_offset 24
	pushq	%rbx
.Ltmp2:
	.cfi_def_cfa_offset 32
.Ltmp3:
	.cfi_offset %rbx, -32
.Ltmp4:
	.cfi_offset %r14, -24
.Ltmp5:
	.cfi_offset %r15, -16
	cmpl	$4, dbglvl(%rip)
	jl	.LBB1_2
# BB#1:                                 # %if.then
	movl	$.Lstr.34, %edi
	callq	puts
.LBB1_2:                                # %for.body.preheader
	movslq	spec_fd(%rip), %r14
	xorps	%xmm0, %xmm0
	movaps	%xmm0, spec_fd(%rip)
	movl	%r14d, spec_fd(%rip)
	leaq	1048576(%r14), %rdi
	callq	malloc
	movq	%rax, spec_fd+16(%rip)
	testq	%rax, %rax
	je	.LBB1_45
# BB#3:                                 # %for.cond19.preheader
	testl	%r14d, %r14d
	jle	.LBB1_16
# BB#4:                                 # %for.body22.preheader
	movb	$0, (%rax)
	cmpl	$1025, %r14d            # imm = 0x401
	jl	.LBB1_16
# BB#5:                                 # %for.body22.for.body22_crit_edge.preheader
	leaq	-1025(%r14), %r15
	movl	%r15d, %eax
	shrl	$10, %eax
	incl	%eax
	movl	$1024, %ebx             # imm = 0x400
	testb	$7, %al
	je	.LBB1_11
# BB#6:                                 # %for.body22.for.body22_crit_edge.prol.preheader
	leal	-1025(%r14), %esi
	shrl	$10, %esi
	incl	%esi
	andl	$7, %esi
	cmpl	$0, "PinFlag-5."(%rip)
	jne	.LBB1_8
# BB#7:
	decq	%rsi
	movl	$.L__unnamed_1, %edi
	movl	$1, %edx
	movl	$9, %ecx
	movl	$1, %r8d
	callq	Pin
	movl	$1, "PinFlag-5."(%rip)
.LBB1_8:
	leal	-1025(%r14), %eax
	shrl	$10, %eax
	incl	%eax
	andl	$7, %eax
	negq	%rax
	movl	$1024, %ebx             # imm = 0x400
	.align	16, 0x90
.LBB1_9:                                # %for.body22.for.body22_crit_edge.prol
                                        # =>This Inner Loop Header: Depth=1
	movq	spec_fd+16(%rip), %rcx
	movb	$0, (%rcx,%rbx)
	addq	$1024, %rbx             # imm = 0x400
	incq	%rax
	jne	.LBB1_9
# BB#10:                                # %for.body22.for.body22_crit_edge.preheader.split.loopexit
	movl	$5, %edi
	callq	UnPin
	movl	$0, "PinFlag-5."(%rip)
.LBB1_11:                               # %for.body22.for.body22_crit_edge.preheader.split
	cmpq	$7168, %r15             # imm = 0x1C00
	jb	.LBB1_16
# BB#12:                                # %for.body22.for.body22_crit_edge.preheader.split.split
	leaq	8192(%rbx), %rsi
	cmpq	%r14, %rsi
	cmovlq	%r14, %rsi
	xorl	%eax, %eax
	cmpl	$0, "PinFlag-4."(%rip)
	jne	.LBB1_14
# BB#13:
	decq	%rsi
	subq	%rbx, %rsi
	shrq	$13, %rsi
	movl	$.L__unnamed_2, %edi
	movl	$8, %edx
	movl	$35, %ecx
	movl	$1, %r8d
	callq	Pin
	movl	$1, "PinFlag-4."(%rip)
	xorl	%eax, %eax
	.align	16, 0x90
.LBB1_14:                               # %for.body22.for.body22_crit_edge
                                        # =>This Inner Loop Header: Depth=1
	movq	spec_fd+16(%rip), %rcx
	addq	%rbx, %rcx
	movb	$0, (%rax,%rcx)
	movq	spec_fd+16(%rip), %rcx
	addq	%rbx, %rcx
	movb	$0, 1024(%rax,%rcx)
	movq	spec_fd+16(%rip), %rcx
	addq	%rbx, %rcx
	movb	$0, 2048(%rax,%rcx)
	movq	spec_fd+16(%rip), %rcx
	addq	%rbx, %rcx
	movb	$0, 3072(%rax,%rcx)
	movq	spec_fd+16(%rip), %rcx
	addq	%rbx, %rcx
	movb	$0, 4096(%rax,%rcx)
	movq	spec_fd+16(%rip), %rcx
	addq	%rbx, %rcx
	movb	$0, 5120(%rax,%rcx)
	movq	spec_fd+16(%rip), %rcx
	addq	%rbx, %rcx
	movb	$0, 6144(%rax,%rcx)
	movq	spec_fd+16(%rip), %rcx
	addq	%rbx, %rcx
	movb	$0, 7168(%rax,%rcx)
	leaq	8192(%rbx,%rax), %rcx
	addq	$8192, %rax             # imm = 0x2000
	cmpq	%r14, %rcx
	jl	.LBB1_14
# BB#15:                                # %for.end.loopexit.unr-lcssa
	movl	$4, %edi
	callq	UnPin
	movl	$0, "PinFlag-4."(%rip)
.LBB1_16:                               # %for.end
	movslq	spec_fd+24(%rip), %r14
	xorps	%xmm0, %xmm0
	movups	%xmm0, spec_fd+24(%rip)
	movl	%r14d, spec_fd+24(%rip)
	leaq	1048576(%r14), %rdi
	callq	malloc
	movq	%rax, spec_fd+40(%rip)
	testq	%rax, %rax
	je	.LBB1_45
# BB#17:                                # %for.cond19.preheader.1
	testl	%r14d, %r14d
	jle	.LBB1_30
# BB#18:                                # %for.body22.preheader.1
	movb	$0, (%rax)
	cmpl	$1025, %r14d            # imm = 0x401
	jl	.LBB1_30
# BB#19:                                # %for.body22.1.for.body22.1_crit_edge.preheader
	leaq	-1025(%r14), %r15
	movl	%r15d, %eax
	shrl	$10, %eax
	incl	%eax
	movl	$1024, %ebx             # imm = 0x400
	testb	$7, %al
	je	.LBB1_25
# BB#20:                                # %for.body22.1.for.body22.1_crit_edge.prol.preheader
	leal	-1025(%r14), %esi
	shrl	$10, %esi
	incl	%esi
	andl	$7, %esi
	cmpl	$0, "PinFlag-3."(%rip)
	jne	.LBB1_22
# BB#21:
	decq	%rsi
	movl	$.L__unnamed_3, %edi
	movl	$1, %edx
	movl	$9, %ecx
	movl	$1, %r8d
	callq	Pin
	movl	$1, "PinFlag-3."(%rip)
.LBB1_22:
	leal	-1025(%r14), %eax
	shrl	$10, %eax
	incl	%eax
	andl	$7, %eax
	negq	%rax
	movl	$1024, %ebx             # imm = 0x400
	.align	16, 0x90
.LBB1_23:                               # %for.body22.1.for.body22.1_crit_edge.prol
                                        # =>This Inner Loop Header: Depth=1
	movq	spec_fd+40(%rip), %rcx
	movb	$0, (%rcx,%rbx)
	addq	$1024, %rbx             # imm = 0x400
	incq	%rax
	jne	.LBB1_23
# BB#24:                                # %for.body22.1.for.body22.1_crit_edge.preheader.split.loopexit
	movl	$3, %edi
	callq	UnPin
	movl	$0, "PinFlag-3."(%rip)
.LBB1_25:                               # %for.body22.1.for.body22.1_crit_edge.preheader.split
	cmpq	$7168, %r15             # imm = 0x1C00
	jb	.LBB1_30
# BB#26:                                # %for.body22.1.for.body22.1_crit_edge.preheader.split.split
	leaq	8192(%rbx), %rsi
	cmpq	%r14, %rsi
	cmovlq	%r14, %rsi
	xorl	%eax, %eax
	cmpl	$0, "PinFlag-2."(%rip)
	jne	.LBB1_28
# BB#27:
	decq	%rsi
	subq	%rbx, %rsi
	shrq	$13, %rsi
	movl	$.L__unnamed_4, %edi
	movl	$8, %edx
	movl	$35, %ecx
	movl	$1, %r8d
	callq	Pin
	movl	$1, "PinFlag-2."(%rip)
	xorl	%eax, %eax
	.align	16, 0x90
.LBB1_28:                               # %for.body22.1.for.body22.1_crit_edge
                                        # =>This Inner Loop Header: Depth=1
	movq	spec_fd+40(%rip), %rcx
	addq	%rbx, %rcx
	movb	$0, (%rax,%rcx)
	movq	spec_fd+40(%rip), %rcx
	addq	%rbx, %rcx
	movb	$0, 1024(%rax,%rcx)
	movq	spec_fd+40(%rip), %rcx
	addq	%rbx, %rcx
	movb	$0, 2048(%rax,%rcx)
	movq	spec_fd+40(%rip), %rcx
	addq	%rbx, %rcx
	movb	$0, 3072(%rax,%rcx)
	movq	spec_fd+40(%rip), %rcx
	addq	%rbx, %rcx
	movb	$0, 4096(%rax,%rcx)
	movq	spec_fd+40(%rip), %rcx
	addq	%rbx, %rcx
	movb	$0, 5120(%rax,%rcx)
	movq	spec_fd+40(%rip), %rcx
	addq	%rbx, %rcx
	movb	$0, 6144(%rax,%rcx)
	movq	spec_fd+40(%rip), %rcx
	addq	%rbx, %rcx
	movb	$0, 7168(%rax,%rcx)
	leaq	8192(%rbx,%rax), %rcx
	addq	$8192, %rax             # imm = 0x2000
	cmpq	%r14, %rcx
	jl	.LBB1_28
# BB#29:                                # %for.end.1.loopexit.unr-lcssa
	movl	$2, %edi
	callq	UnPin
	movl	$0, "PinFlag-2."(%rip)
.LBB1_30:                               # %for.end.1
	movslq	spec_fd+48(%rip), %r14
	xorps	%xmm0, %xmm0
	movaps	%xmm0, spec_fd+48(%rip)
	movl	%r14d, spec_fd+48(%rip)
	leaq	1048576(%r14), %rdi
	callq	malloc
	movq	%rax, spec_fd+64(%rip)
	testq	%rax, %rax
	je	.LBB1_45
# BB#31:                                # %for.cond19.preheader.2
	testl	%r14d, %r14d
	jle	.LBB1_44
# BB#32:                                # %for.body22.preheader.2
	movb	$0, (%rax)
	cmpl	$1025, %r14d            # imm = 0x401
	jl	.LBB1_44
# BB#33:                                # %for.body22.2.for.body22.2_crit_edge.preheader
	leaq	-1025(%r14), %r15
	movl	%r15d, %eax
	shrl	$10, %eax
	incl	%eax
	movl	$1024, %ebx             # imm = 0x400
	testb	$7, %al
	je	.LBB1_39
# BB#34:                                # %for.body22.2.for.body22.2_crit_edge.prol.preheader
	leal	-1025(%r14), %esi
	shrl	$10, %esi
	incl	%esi
	andl	$7, %esi
	cmpl	$0, "PinFlag-1."(%rip)
	jne	.LBB1_36
# BB#35:
	decq	%rsi
	movl	$.L__unnamed_5, %edi
	movl	$1, %edx
	movl	$9, %ecx
	movl	$1, %r8d
	callq	Pin
	movl	$1, "PinFlag-1."(%rip)
.LBB1_36:
	leal	-1025(%r14), %eax
	shrl	$10, %eax
	incl	%eax
	andl	$7, %eax
	negq	%rax
	movl	$1024, %ebx             # imm = 0x400
	.align	16, 0x90
.LBB1_37:                               # %for.body22.2.for.body22.2_crit_edge.prol
                                        # =>This Inner Loop Header: Depth=1
	movq	spec_fd+64(%rip), %rcx
	movb	$0, (%rcx,%rbx)
	addq	$1024, %rbx             # imm = 0x400
	incq	%rax
	jne	.LBB1_37
# BB#38:                                # %for.body22.2.for.body22.2_crit_edge.preheader.split.loopexit
	movl	$1, %edi
	callq	UnPin
	movl	$0, "PinFlag-1."(%rip)
.LBB1_39:                               # %for.body22.2.for.body22.2_crit_edge.preheader.split
	cmpq	$7168, %r15             # imm = 0x1C00
	jb	.LBB1_44
# BB#40:                                # %for.body22.2.for.body22.2_crit_edge.preheader.split.split
	leaq	8192(%rbx), %rsi
	cmpq	%r14, %rsi
	cmovlq	%r14, %rsi
	xorl	%eax, %eax
	cmpl	$0, "PinFlag-0."(%rip)
	jne	.LBB1_42
# BB#41:
	decq	%rsi
	subq	%rbx, %rsi
	shrq	$13, %rsi
	movl	$.L__unnamed_6, %edi
	movl	$8, %edx
	movl	$35, %ecx
	movl	$1, %r8d
	callq	Pin
	movl	$1, "PinFlag-0."(%rip)
	xorl	%eax, %eax
	.align	16, 0x90
.LBB1_42:                               # %for.body22.2.for.body22.2_crit_edge
                                        # =>This Inner Loop Header: Depth=1
	movq	spec_fd+64(%rip), %rcx
	addq	%rbx, %rcx
	movb	$0, (%rax,%rcx)
	movq	spec_fd+64(%rip), %rcx
	addq	%rbx, %rcx
	movb	$0, 1024(%rax,%rcx)
	movq	spec_fd+64(%rip), %rcx
	addq	%rbx, %rcx
	movb	$0, 2048(%rax,%rcx)
	movq	spec_fd+64(%rip), %rcx
	addq	%rbx, %rcx
	movb	$0, 3072(%rax,%rcx)
	movq	spec_fd+64(%rip), %rcx
	addq	%rbx, %rcx
	movb	$0, 4096(%rax,%rcx)
	movq	spec_fd+64(%rip), %rcx
	addq	%rbx, %rcx
	movb	$0, 5120(%rax,%rcx)
	movq	spec_fd+64(%rip), %rcx
	addq	%rbx, %rcx
	movb	$0, 6144(%rax,%rcx)
	movq	spec_fd+64(%rip), %rcx
	addq	%rbx, %rcx
	movb	$0, 7168(%rax,%rcx)
	leaq	8192(%rbx,%rax), %rcx
	addq	$8192, %rax             # imm = 0x2000
	cmpq	%r14, %rcx
	jl	.LBB1_42
# BB#43:                                # %for.end.2.loopexit.unr-lcssa
	xorl	%edi, %edi
	callq	UnPin
	movl	$0, "PinFlag-0."(%rip)
.LBB1_44:                               # %for.end.2
	xorl	%eax, %eax
	popq	%rbx
	popq	%r14
	popq	%r15
	retq
.LBB1_45:                               # %if.then16
	movl	$.Lstr, %edi
	callq	puts
	xorl	%edi, %edi
	callq	exit
.Lfunc_end1:
	.size	spec_init, .Lfunc_end1-spec_init
	.cfi_endproc

	.section	.rodata.cst4,"aM",@progbits,4
	.align	4
.LCPI2_0:
	.long	805306368               # float 4.65661287E-10
	.section	.rodata.cst8,"aM",@progbits,8
	.align	8
.LCPI2_1:
	.quad	4629700416936869888     # double 32
.LCPI2_2:
	.quad	4643211215818981376     # double 256
	.text
	.globl	spec_random_load
	.align	16, 0x90
	.type	spec_random_load,@function
spec_random_load:                       # @spec_random_load
	.cfi_startproc
# BB#0:                                 # %entry
	pushq	%rbp
.Ltmp6:
	.cfi_def_cfa_offset 16
	pushq	%r15
.Ltmp7:
	.cfi_def_cfa_offset 24
	pushq	%r14
.Ltmp8:
	.cfi_def_cfa_offset 32
	pushq	%r12
.Ltmp9:
	.cfi_def_cfa_offset 40
	pushq	%rbx
.Ltmp10:
	.cfi_def_cfa_offset 48
	subq	$4194304, %rsp          # imm = 0x400000
.Ltmp11:
	.cfi_def_cfa_offset 4194352
.Ltmp12:
	.cfi_offset %rbx, -48
.Ltmp13:
	.cfi_offset %r12, -40
.Ltmp14:
	.cfi_offset %r14, -32
.Ltmp15:
	.cfi_offset %r15, -24
.Ltmp16:
	.cfi_offset %rbp, -16
	movl	%edi, %r14d
	xorl	%ebp, %ebp
	cmpl	$5, dbglvl(%rip)
	jl	.LBB2_5
# BB#1:                                 # %if.then
	movl	$.Lstr.36, %edi
	callq	puts
	xorl	%ebp, %ebp
.LBB2_2:                                # %for.cond
	movl	dbglvl(%rip), %eax
	cmpl	$31, %ebp
	jg	.LBB2_8
# BB#3:                                 # %for.body
	cmpl	$6, %eax
	jl	.LBB2_5
# BB#4:                                 # %if.then3
	movl	$.L.str.3, %edi
	xorl	%eax, %eax
	movl	%ebp, %esi
	callq	printf
.LBB2_5:                                # %for.cond6.preheader
	movq	seedi(%rip), %rcx
	movslq	%ebp, %rax
	shlq	$17, %rax
	leaq	(%rsp,%rax), %rsi
	xorl	%edi, %edi
	movabsq	$4730756183288445817, %rbx # imm = 0x41A705AF1FE3FB79
	movss	.LCPI2_0(%rip), %xmm0   # xmm0 = mem[0],zero,zero,zero
	movsd	.LCPI2_2(%rip), %xmm1   # xmm1 = mem[0],zero
	.align	16, 0x90
.LBB2_6:                                # %for.body8
                                        # =>This Inner Loop Header: Depth=1
	movq	%rcx, %rax
	imulq	%rbx
	movq	%rdx, %rax
	shrq	$63, %rax
	sarq	$15, %rdx
	addq	%rax, %rdx
	imulq	$127773, %rdx, %rax     # imm = 0x1F31D
	subq	%rax, %rcx
	imulq	$16807, %rcx, %rax      # imm = 0x41A7
	imulq	$-2836, %rdx, %rcx      # imm = 0xFFFFFFFFFFFFF4EC
	leaq	(%rax,%rcx), %rdx
	testq	%rdx, %rdx
	leaq	2147483647(%rax,%rcx), %rcx
	cmovgq	%rdx, %rcx
	cvtsi2ssq	%rcx, %xmm2
	mulss	%xmm0, %xmm2
	cvtss2sd	%xmm2, %xmm2
	mulsd	%xmm1, %xmm2
	cvttsd2si	%xmm2, %eax
	movb	%al, (%rsi,%rdi)
	incq	%rdi
	cmpq	$131072, %rdi           # imm = 0x20000
	jne	.LBB2_6
# BB#7:                                 # %for.inc13
	movq	%rcx, seedi(%rip)
	incl	%ebp
	jmp	.LBB2_2
.LBB2_8:                                # %for.end15
	cmpl	$5, %eax
	jl	.LBB2_10
# BB#9:                                 # %if.then18
	movl	$.Lstr.35, %edi
	callq	puts
.LBB2_10:                               # %for.cond21.preheader
	movslq	%r14d, %rax
	leaq	(%rax,%rax,2), %r14
	cmpl	$0, spec_fd(,%r14,8)
	jle	.LBB2_13
# BB#11:                                # %for.body26.lr.ph
	leaq	spec_fd(,%r14,8), %r15
	leaq	spec_fd+16(,%r14,8), %rbx
	xorl	%ebp, %ebp
	movabsq	$4730756183288445817, %r12 # imm = 0x41A705AF1FE3FB79
	.align	16, 0x90
.LBB2_12:                               # %for.body26
                                        # =>This Inner Loop Header: Depth=1
	movq	seedi(%rip), %rcx
	movq	%rcx, %rax
	imulq	%r12
	movq	%rdx, %rax
	shrq	$63, %rax
	sarq	$15, %rdx
	addq	%rax, %rdx
	imulq	$127773, %rdx, %rax     # imm = 0x1F31D
	subq	%rax, %rcx
	imulq	$16807, %rcx, %rax      # imm = 0x41A7
	imulq	$-2836, %rdx, %rcx      # imm = 0xFFFFFFFFFFFFF4EC
	leaq	(%rax,%rcx), %rdx
	testq	%rdx, %rdx
	leaq	2147483647(%rax,%rcx), %rax
	cmovgq	%rdx, %rax
	movq	(%rbx), %rdi
	addq	%rbp, %rdi
	movq	%rax, seedi(%rip)
	cvtsi2ssq	%rax, %xmm0
	mulss	.LCPI2_0(%rip), %xmm0
	cvtss2sd	%xmm0, %xmm0
	mulsd	.LCPI2_1(%rip), %xmm0
	cvttsd2si	%xmm0, %eax
	cltq
	shlq	$17, %rax
	leaq	(%rsp,%rax), %rsi
	movl	$131072, %edx           # imm = 0x20000
	callq	memcpy
	addq	$131072, %rbp           # imm = 0x20000
	movslq	(%r15), %rax
	cmpq	%rax, %rbp
	jl	.LBB2_12
.LBB2_13:                               # %for.end35
	movl	$1048576, spec_fd+4(,%r14,8) # imm = 0x100000
	xorl	%eax, %eax
	addq	$4194304, %rsp          # imm = 0x400000
	popq	%rbx
	popq	%r12
	popq	%r14
	popq	%r15
	popq	%rbp
	retq
.Lfunc_end2:
	.size	spec_random_load, .Lfunc_end2-spec_random_load
	.cfi_endproc

	.globl	spec_load
	.align	16, 0x90
	.type	spec_load,@function
spec_load:                              # @spec_load
	.cfi_startproc
# BB#0:                                 # %entry
	pushq	%rbp
.Ltmp17:
	.cfi_def_cfa_offset 16
	pushq	%r15
.Ltmp18:
	.cfi_def_cfa_offset 24
	pushq	%r14
.Ltmp19:
	.cfi_def_cfa_offset 32
	pushq	%r13
.Ltmp20:
	.cfi_def_cfa_offset 40
	pushq	%r12
.Ltmp21:
	.cfi_def_cfa_offset 48
	pushq	%rbx
.Ltmp22:
	.cfi_def_cfa_offset 56
	pushq	%rax
.Ltmp23:
	.cfi_def_cfa_offset 64
.Ltmp24:
	.cfi_offset %rbx, -56
.Ltmp25:
	.cfi_offset %r12, -48
.Ltmp26:
	.cfi_offset %r13, -40
.Ltmp27:
	.cfi_offset %r14, -32
.Ltmp28:
	.cfi_offset %r15, -24
.Ltmp29:
	.cfi_offset %rbp, -16
	movl	%edx, %r12d
	movq	%rsi, %rcx
	movq	%rcx, (%rsp)            # 8-byte Spill
	movl	%edi, %r15d
	xorl	%esi, %esi
	xorl	%eax, %eax
	movq	%rcx, %rdi
	callq	open
	movl	%eax, %r13d
	testl	%r13d, %r13d
	js	.LBB3_1
# BB#3:                                 # %if.end
	movslq	%r15d, %rax
	leaq	(%rax,%rax,2), %r15
	leaq	spec_fd+4(,%r15,8), %rbx
	movq	$0, spec_fd+4(,%r15,8)
	testl	%r12d, %r12d
	jle	.LBB3_9
# BB#4:                                 # %for.body.lr.ph
	leaq	spec_fd+16(,%r15,8), %rbp
	xorl	%r14d, %r14d
	.align	16, 0x90
.LBB3_5:                                # %for.body
                                        # =>This Inner Loop Header: Depth=1
	movslq	%r14d, %rsi
	addq	(%rbp), %rsi
	movl	$131072, %edx           # imm = 0x20000
	movl	%r13d, %edi
	callq	read
	testl	%eax, %eax
	je	.LBB3_9
# BB#6:                                 # %if.end13
                                        #   in Loop: Header=BB3_5 Depth=1
	js	.LBB3_7
# BB#8:                                 # %if.end20
                                        #   in Loop: Header=BB3_5 Depth=1
	addl	%eax, (%rbx)
	addl	%eax, %r14d
	cmpl	%r12d, %r14d
	jl	.LBB3_5
.LBB3_9:                                # %for.end
	movl	%r13d, %edi
	callq	close
	movl	(%rbx), %eax
	cmpl	%r12d, %eax
	jge	.LBB3_14
# BB#10:                                # %while.body.lr.ph
	leaq	spec_fd+16(,%r15,8), %r14
	.align	16, 0x90
.LBB3_11:                               # %while.body
                                        # =>This Inner Loop Header: Depth=1
	movl	%r12d, %ebp
	subl	%eax, %ebp
	cmpl	%eax, %ebp
	cmovgl	%eax, %ebp
	cmpl	$4, dbglvl(%rip)
	jl	.LBB3_13
# BB#12:                                # %if.then46
                                        #   in Loop: Header=BB3_11 Depth=1
	movl	$.L.str.7, %edi
	xorl	%eax, %eax
	movl	%ebp, %esi
	callq	printf
	movl	(%rbx), %eax
.LBB3_13:                               # %if.end48
                                        #   in Loop: Header=BB3_11 Depth=1
	movq	(%r14), %rsi
	movslq	%eax, %rdi
	addq	%rsi, %rdi
	movslq	%ebp, %rdx
	callq	memcpy
	addl	(%rbx), %ebp
	movl	%ebp, (%rbx)
	cmpl	%r12d, %ebp
	movl	%ebp, %eax
	jl	.LBB3_11
.LBB3_14:                               # %while.end
	xorl	%eax, %eax
	addq	$8, %rsp
	popq	%rbx
	popq	%r12
	popq	%r13
	popq	%r14
	popq	%r15
	popq	%rbp
	retq
.LBB3_7:                                # %if.then16
	movq	stderr(%rip), %rbx
	callq	__errno_location
	movl	(%rax), %edi
	callq	strerror
	movq	%rax, %rcx
	movl	$.L.str.6, %esi
.LBB3_2:                                # %if.then
	xorl	%eax, %eax
	movq	%rbx, %rdi
	movq	(%rsp), %rdx            # 8-byte Reload
	callq	fprintf
	xorl	%edi, %edi
	callq	exit
.LBB3_1:                                # %if.then
	movq	stderr(%rip), %rbx
	callq	__errno_location
	movl	(%rax), %edi
	callq	strerror
	movq	%rax, %rcx
	movl	$.L.str.5, %esi
	jmp	.LBB3_2
.Lfunc_end3:
	.size	spec_load, .Lfunc_end3-spec_load
	.cfi_endproc

	.globl	spec_read
	.align	16, 0x90
	.type	spec_read,@function
spec_read:                              # @spec_read
	.cfi_startproc
# BB#0:                                 # %entry
	pushq	%r15
.Ltmp30:
	.cfi_def_cfa_offset 16
	pushq	%r14
.Ltmp31:
	.cfi_def_cfa_offset 24
	pushq	%r12
.Ltmp32:
	.cfi_def_cfa_offset 32
	pushq	%rbx
.Ltmp33:
	.cfi_def_cfa_offset 40
	pushq	%rax
.Ltmp34:
	.cfi_def_cfa_offset 48
.Ltmp35:
	.cfi_offset %rbx, -40
.Ltmp36:
	.cfi_offset %r12, -32
.Ltmp37:
	.cfi_offset %r14, -24
.Ltmp38:
	.cfi_offset %r15, -16
	movl	%edx, %r15d
	movq	%rsi, %r14
	movl	%edi, %ebx
	cmpl	$5, dbglvl(%rip)
	jl	.LBB4_2
# BB#1:                                 # %if.then
	movl	$.L.str.8, %edi
	xorl	%eax, %eax
	movl	%ebx, %esi
	movq	%r14, %rdx
	movl	%r15d, %ecx
	callq	printf
.LBB4_2:                                # %if.end
	cmpl	$4, %ebx
	jge	.LBB4_9
# BB#3:                                 # %if.end4
	movslq	%ebx, %rax
	leaq	(%rax,%rax,2), %rax
	movslq	spec_fd+8(,%rax,8), %rsi
	movl	spec_fd+4(,%rax,8), %ecx
	cmpl	%esi, %ecx
	jle	.LBB4_4
# BB#6:                                 # %if.end13
	leaq	spec_fd+8(,%rax,8), %r12
	movl	%ecx, %ebx
	subl	%esi, %ebx
	leal	(%rsi,%r15), %edx
	cmpl	%ecx, %edx
	cmovll	%r15d, %ebx
	addq	spec_fd+16(,%rax,8), %rsi
	movslq	%ebx, %r15
	movq	%r14, %rdi
	movq	%r15, %rdx
	callq	memcpy
	addl	%r15d, (%r12)
	cmpl	$5, dbglvl(%rip)
	jl	.LBB4_8
# BB#7:                                 # %if.then43
	movl	$.L.str.11, %edi
	xorl	%eax, %eax
	movl	%ebx, %esi
	callq	printf
	jmp	.LBB4_8
.LBB4_4:                                # %if.then8
	movl	$-1, %ebx
	cmpl	$5, dbglvl(%rip)
	jl	.LBB4_8
# BB#5:                                 # %if.then10
	movl	$.Lstr.39, %edi
	callq	puts
.LBB4_8:                                # %cleanup
	movl	%ebx, %eax
	addq	$8, %rsp
	popq	%rbx
	popq	%r12
	popq	%r14
	popq	%r15
	retq
.LBB4_9:                                # %if.then2
	movq	stderr(%rip), %rdi
	movl	$.L.str.9, %esi
	xorl	%eax, %eax
	movl	%ebx, %edx
	callq	fprintf
	xorl	%edi, %edi
	callq	exit
.Lfunc_end4:
	.size	spec_read, .Lfunc_end4-spec_read
	.cfi_endproc

	.globl	spec_fread
	.align	16, 0x90
	.type	spec_fread,@function
spec_fread:                             # @spec_fread
	.cfi_startproc
# BB#0:                                 # %entry
	pushq	%rbp
.Ltmp39:
	.cfi_def_cfa_offset 16
	pushq	%r15
.Ltmp40:
	.cfi_def_cfa_offset 24
	pushq	%r14
.Ltmp41:
	.cfi_def_cfa_offset 32
	pushq	%r12
.Ltmp42:
	.cfi_def_cfa_offset 40
	pushq	%rbx
.Ltmp43:
	.cfi_def_cfa_offset 48
.Ltmp44:
	.cfi_offset %rbx, -48
.Ltmp45:
	.cfi_offset %r12, -40
.Ltmp46:
	.cfi_offset %r14, -32
.Ltmp47:
	.cfi_offset %r15, -24
.Ltmp48:
	.cfi_offset %rbp, -16
	movl	%ecx, %ebp
	movl	%edx, %ebx
	movl	%esi, %r15d
	movq	%rdi, %r14
	cmpl	$5, dbglvl(%rip)
	jl	.LBB5_2
# BB#1:                                 # %if.then
	movl	$.L.str.12, %edi
	xorl	%eax, %eax
	movq	%r14, %rsi
	movl	%r15d, %edx
	movl	%ebx, %ecx
	movl	%ebp, %r8d
	callq	printf
.LBB5_2:                                # %if.end
	cmpl	$4, %ebp
	jge	.LBB5_11
# BB#3:                                 # %if.end4
	movslq	%ebp, %rax
	leaq	(%rax,%rax,2), %rcx
	movslq	spec_fd+8(,%rcx,8), %rsi
	movl	spec_fd+4(,%rcx,8), %eax
	cmpl	%esi, %eax
	jle	.LBB5_4
# BB#6:                                 # %if.end13
	leaq	spec_fd+8(,%rcx,8), %r12
	movl	%ebx, %edx
	imull	%r15d, %edx
	addl	%esi, %edx
	cmpl	%eax, %edx
	jl	.LBB5_8
# BB#7:                                 # %if.then21
	subl	%esi, %eax
	cltd
	idivl	%r15d
	movl	%eax, %ebx
.LBB5_8:                                # %if.end28
	addq	spec_fd+16(,%rcx,8), %rsi
	movslq	%ebx, %rbp
	movq	%r14, %rdi
	movq	%rbp, %rdx
	callq	memcpy
	imull	%r15d, %ebp
	addl	%ebp, (%r12)
	cmpl	$5, dbglvl(%rip)
	jl	.LBB5_10
# BB#9:                                 # %if.then44
	movl	$.L.str.11, %edi
	xorl	%eax, %eax
	movl	%ebp, %esi
	callq	printf
	jmp	.LBB5_10
.LBB5_4:                                # %if.then8
	movl	$-1, %ebx
	cmpl	$5, dbglvl(%rip)
	jl	.LBB5_10
# BB#5:                                 # %if.then10
	movl	$.Lstr.39, %edi
	callq	puts
.LBB5_10:                               # %cleanup
	movl	%ebx, %eax
	popq	%rbx
	popq	%r12
	popq	%r14
	popq	%r15
	popq	%rbp
	retq
.LBB5_11:                               # %if.then2
	movq	stderr(%rip), %rdi
	movl	$.L.str.13, %esi
	xorl	%eax, %eax
	movl	%ebp, %edx
	callq	fprintf
	xorl	%edi, %edi
	callq	exit
.Lfunc_end5:
	.size	spec_fread, .Lfunc_end5-spec_fread
	.cfi_endproc

	.globl	spec_getc
	.align	16, 0x90
	.type	spec_getc,@function
spec_getc:                              # @spec_getc
	.cfi_startproc
# BB#0:                                 # %entry
	pushq	%rbx
.Ltmp49:
	.cfi_def_cfa_offset 16
.Ltmp50:
	.cfi_offset %rbx, -16
	movl	%edi, %ebx
	cmpl	$5, dbglvl(%rip)
	jl	.LBB6_2
# BB#1:                                 # %if.then
	movl	$.L.str.14, %edi
	xorl	%eax, %eax
	movl	%ebx, %esi
	callq	printf
.LBB6_2:                                # %if.end
	cmpl	$4, %ebx
	jge	.LBB6_9
# BB#3:                                 # %if.end4
	movslq	%ebx, %rax
	leaq	(%rax,%rax,2), %rax
	movslq	spec_fd+8(,%rax,8), %rcx
	cmpl	spec_fd+4(,%rax,8), %ecx
	jge	.LBB6_4
# BB#6:                                 # %if.end13
	leaq	spec_fd+8(,%rax,8), %rdx
	leal	1(%rcx), %esi
	movl	%esi, (%rdx)
	movq	spec_fd+16(,%rax,8), %rax
	movzbl	(%rax,%rcx), %ebx
	cmpl	$5, dbglvl(%rip)
	jl	.LBB6_8
# BB#7:                                 # %if.then23
	movl	$.L.str.11, %edi
	xorl	%eax, %eax
	movl	%ebx, %esi
	callq	printf
	jmp	.LBB6_8
.LBB6_4:                                # %if.then8
	movl	$-1, %ebx
	cmpl	$5, dbglvl(%rip)
	jl	.LBB6_8
# BB#5:                                 # %if.then10
	movl	$.Lstr.39, %edi
	callq	puts
.LBB6_8:                                # %cleanup
	movl	%ebx, %eax
	popq	%rbx
	retq
.LBB6_9:                                # %if.then2
	movq	stderr(%rip), %rdi
	movl	$.L.str.9, %esi
	xorl	%eax, %eax
	movl	%ebx, %edx
	callq	fprintf
	xorl	%edi, %edi
	callq	exit
.Lfunc_end6:
	.size	spec_getc, .Lfunc_end6-spec_getc
	.cfi_endproc

	.globl	spec_ungetc
	.align	16, 0x90
	.type	spec_ungetc,@function
spec_ungetc:                            # @spec_ungetc
	.cfi_startproc
# BB#0:                                 # %entry
	pushq	%rbp
.Ltmp51:
	.cfi_def_cfa_offset 16
	pushq	%rbx
.Ltmp52:
	.cfi_def_cfa_offset 24
	pushq	%rax
.Ltmp53:
	.cfi_def_cfa_offset 32
.Ltmp54:
	.cfi_offset %rbx, -24
.Ltmp55:
	.cfi_offset %rbp, -16
	movl	%esi, %ebp
	movl	%edi, %ebx
	cmpl	$5, dbglvl(%rip)
	jl	.LBB7_2
# BB#1:                                 # %if.then
	movl	$.L.str.15, %edi
	xorl	%eax, %eax
	movl	%ebp, %esi
	callq	printf
.LBB7_2:                                # %if.end
	cmpl	$4, %ebp
	jge	.LBB7_3
# BB#4:                                 # %if.end4
	movslq	%ebp, %rax
	leaq	(%rax,%rax,2), %rax
	movslq	spec_fd+8(,%rax,8), %rdx
	testq	%rdx, %rdx
	jle	.LBB7_5
# BB#7:                                 # %if.end11
	leaq	spec_fd+8(,%rax,8), %rcx
	leaq	-1(%rdx), %rsi
	movl	%esi, (%rcx)
	movq	spec_fd+16(,%rax,8), %rax
	movzbl	%bl, %ebx
	movzbl	-1(%rax,%rdx), %eax
	cmpl	%ebx, %eax
	jne	.LBB7_11
# BB#8:                                 # %if.end24
	cmpl	$5, dbglvl(%rip)
	jl	.LBB7_10
# BB#9:                                 # %if.then27
	movl	$.L.str.11, %edi
	xorl	%esi, %esi
	xorl	%eax, %eax
	callq	printf
.LBB7_10:                               # %if.end29
	movl	%ebx, %eax
	addq	$8, %rsp
	popq	%rbx
	popq	%rbp
	retq
.LBB7_3:                                # %if.then2
	movq	stderr(%rip), %rdi
	movl	$.L.str.9, %esi
	xorl	%eax, %eax
	movl	%ebp, %edx
	jmp	.LBB7_6
.LBB7_5:                                # %if.then6
	movq	stderr(%rip), %rdi
	movl	$.L.str.16, %esi
	xorl	%eax, %eax
.LBB7_6:                                # %if.then6
	callq	fprintf
	xorl	%edi, %edi
	callq	exit
.LBB7_11:                               # %if.then22
	movq	stderr(%rip), %rcx
	movl	$.L.str.17, %edi
	movl	$71, %esi
	movl	$1, %edx
	callq	fwrite
	xorl	%edi, %edi
	callq	exit
.Lfunc_end7:
	.size	spec_ungetc, .Lfunc_end7-spec_ungetc
	.cfi_endproc

	.globl	spec_rewind
	.align	16, 0x90
	.type	spec_rewind,@function
spec_rewind:                            # @spec_rewind
	.cfi_startproc
# BB#0:                                 # %entry
	movslq	%edi, %rax
	leaq	(%rax,%rax,2), %rax
	movl	$0, spec_fd+8(,%rax,8)
	xorl	%eax, %eax
	retq
.Lfunc_end8:
	.size	spec_rewind, .Lfunc_end8-spec_rewind
	.cfi_endproc

	.globl	spec_reset
	.align	16, 0x90
	.type	spec_reset,@function
spec_reset:                             # @spec_reset
	.cfi_startproc
# BB#0:                                 # %entry
	pushq	%rbx
.Ltmp56:
	.cfi_def_cfa_offset 16
.Ltmp57:
	.cfi_offset %rbx, -16
	movslq	%edi, %rax
	leaq	(%rax,%rax,2), %rbx
	movq	spec_fd+16(,%rbx,8), %rdi
	movslq	spec_fd+4(,%rbx,8), %rdx
	xorl	%esi, %esi
	callq	memset
	movq	$0, spec_fd+4(,%rbx,8)
	xorl	%eax, %eax
	popq	%rbx
	retq
.Lfunc_end9:
	.size	spec_reset, .Lfunc_end9-spec_reset
	.cfi_endproc

	.globl	spec_write
	.align	16, 0x90
	.type	spec_write,@function
spec_write:                             # @spec_write
	.cfi_startproc
# BB#0:                                 # %entry
	pushq	%rbp
.Ltmp58:
	.cfi_def_cfa_offset 16
	pushq	%r14
.Ltmp59:
	.cfi_def_cfa_offset 24
	pushq	%rbx
.Ltmp60:
	.cfi_def_cfa_offset 32
.Ltmp61:
	.cfi_offset %rbx, -32
.Ltmp62:
	.cfi_offset %r14, -24
.Ltmp63:
	.cfi_offset %rbp, -16
	movl	%edx, %ebx
	movq	%rsi, %r14
	movl	%edi, %ebp
	cmpl	$5, dbglvl(%rip)
	jl	.LBB10_2
# BB#1:                                 # %if.then
	movl	$.L.str.18, %edi
	xorl	%eax, %eax
	movl	%ebp, %esi
	movq	%r14, %rdx
	movl	%ebx, %ecx
	callq	printf
.LBB10_2:                               # %if.end
	cmpl	$4, %ebp
	jge	.LBB10_6
# BB#3:                                 # %if.end4
	movslq	%ebp, %rax
	leaq	(%rax,%rax,2), %rbp
	movslq	spec_fd+8(,%rbp,8), %rdi
	addq	spec_fd+16(,%rbp,8), %rdi
	movslq	%ebx, %rdx
	movq	%r14, %rsi
	callq	memcpy
	addl	%ebx, spec_fd+4(,%rbp,8)
	addl	%ebx, spec_fd+8(,%rbp,8)
	cmpl	$5, dbglvl(%rip)
	jl	.LBB10_5
# BB#4:                                 # %if.then18
	movl	$.L.str.11, %edi
	xorl	%eax, %eax
	movl	%ebx, %esi
	callq	printf
.LBB10_5:                               # %if.end20
	movl	%ebx, %eax
	popq	%rbx
	popq	%r14
	popq	%rbp
	retq
.LBB10_6:                               # %if.then2
	movq	stderr(%rip), %rdi
	movl	$.L.str.19, %esi
	xorl	%eax, %eax
	movl	%ebp, %edx
	callq	fprintf
	xorl	%edi, %edi
	callq	exit
.Lfunc_end10:
	.size	spec_write, .Lfunc_end10-spec_write
	.cfi_endproc

	.globl	spec_fwrite
	.align	16, 0x90
	.type	spec_fwrite,@function
spec_fwrite:                            # @spec_fwrite
	.cfi_startproc
# BB#0:                                 # %entry
	pushq	%rbp
.Ltmp64:
	.cfi_def_cfa_offset 16
	pushq	%r15
.Ltmp65:
	.cfi_def_cfa_offset 24
	pushq	%r14
.Ltmp66:
	.cfi_def_cfa_offset 32
	pushq	%rbx
.Ltmp67:
	.cfi_def_cfa_offset 40
	pushq	%rax
.Ltmp68:
	.cfi_def_cfa_offset 48
.Ltmp69:
	.cfi_offset %rbx, -40
.Ltmp70:
	.cfi_offset %r14, -32
.Ltmp71:
	.cfi_offset %r15, -24
.Ltmp72:
	.cfi_offset %rbp, -16
	movl	%ecx, %ebp
	movl	%edx, %r15d
	movl	%esi, %ebx
	movq	%rdi, %r14
	cmpl	$5, dbglvl(%rip)
	jl	.LBB11_2
# BB#1:                                 # %if.then
	movl	$.L.str.20, %edi
	xorl	%eax, %eax
	movq	%r14, %rsi
	movl	%ebx, %edx
	movl	%r15d, %ecx
	movl	%ebp, %r8d
	callq	printf
.LBB11_2:                               # %if.end
	cmpl	$4, %ebp
	jge	.LBB11_6
# BB#3:                                 # %if.end4
	movslq	%ebp, %rax
	leaq	(%rax,%rax,2), %rbp
	movslq	spec_fd+8(,%rbp,8), %rdi
	addq	spec_fd+16(,%rbp,8), %rdi
	imull	%r15d, %ebx
	movslq	%ebx, %rbx
	movq	%r14, %rsi
	movq	%rbx, %rdx
	callq	memcpy
	addl	%ebx, spec_fd+4(,%rbp,8)
	addl	%ebx, spec_fd+8(,%rbp,8)
	cmpl	$5, dbglvl(%rip)
	jl	.LBB11_5
# BB#4:                                 # %if.then20
	movl	$.L.str.11, %edi
	xorl	%eax, %eax
	movl	%r15d, %esi
	callq	printf
.LBB11_5:                               # %if.end22
	movl	%r15d, %eax
	addq	$8, %rsp
	popq	%rbx
	popq	%r14
	popq	%r15
	popq	%rbp
	retq
.LBB11_6:                               # %if.then2
	movq	stderr(%rip), %rdi
	movl	$.L.str.21, %esi
	xorl	%eax, %eax
	movl	%ebp, %edx
	callq	fprintf
	xorl	%edi, %edi
	callq	exit
.Lfunc_end11:
	.size	spec_fwrite, .Lfunc_end11-spec_fwrite
	.cfi_endproc

	.globl	spec_putc
	.align	16, 0x90
	.type	spec_putc,@function
spec_putc:                              # @spec_putc
	.cfi_startproc
# BB#0:                                 # %entry
	pushq	%rbp
.Ltmp73:
	.cfi_def_cfa_offset 16
	pushq	%rbx
.Ltmp74:
	.cfi_def_cfa_offset 24
	pushq	%rax
.Ltmp75:
	.cfi_def_cfa_offset 32
.Ltmp76:
	.cfi_offset %rbx, -24
.Ltmp77:
	.cfi_offset %rbp, -16
	movl	%esi, %ebx
	movl	%edi, %ebp
	cmpl	$5, dbglvl(%rip)
	jl	.LBB12_2
# BB#1:                                 # %if.then
	movzbl	%bpl, %esi
	movl	$.L.str.22, %edi
	xorl	%eax, %eax
	movl	%ebx, %edx
	callq	printf
.LBB12_2:                               # %if.end
	cmpl	$4, %ebx
	jge	.LBB12_4
# BB#3:                                 # %if.end5
	movslq	%ebx, %rax
	leaq	(%rax,%rax,2), %rax
	movslq	spec_fd+8(,%rax,8), %rcx
	leal	1(%rcx), %edx
	movl	%edx, spec_fd+8(,%rax,8)
	movq	spec_fd+16(,%rax,8), %rdx
	movb	%bpl, (%rdx,%rcx)
	incl	spec_fd+4(,%rax,8)
	movzbl	%bpl, %eax
	addq	$8, %rsp
	popq	%rbx
	popq	%rbp
	retq
.LBB12_4:                               # %if.then3
	movq	stderr(%rip), %rdi
	movl	$.L.str.19, %esi
	xorl	%eax, %eax
	movl	%ebx, %edx
	callq	fprintf
	xorl	%edi, %edi
	callq	exit
.Lfunc_end12:
	.size	spec_putc, .Lfunc_end12-spec_putc
	.cfi_endproc

	.globl	main
	.align	16, 0x90
	.type	main,@function
main:                                   # @main
	.cfi_startproc
# BB#0:                                 # %entry
	pushq	%rbp
.Ltmp78:
	.cfi_def_cfa_offset 16
	pushq	%r15
.Ltmp79:
	.cfi_def_cfa_offset 24
	pushq	%r14
.Ltmp80:
	.cfi_def_cfa_offset 32
	pushq	%r13
.Ltmp81:
	.cfi_def_cfa_offset 40
	pushq	%r12
.Ltmp82:
	.cfi_def_cfa_offset 48
	pushq	%rbx
.Ltmp83:
	.cfi_def_cfa_offset 56
	pushq	%rax
.Ltmp84:
	.cfi_def_cfa_offset 64
.Ltmp85:
	.cfi_offset %rbx, -56
.Ltmp86:
	.cfi_offset %r12, -48
.Ltmp87:
	.cfi_offset %r13, -40
.Ltmp88:
	.cfi_offset %r14, -32
.Ltmp89:
	.cfi_offset %r15, -24
.Ltmp90:
	.cfi_offset %rbp, -16
	movq	%rsi, %rbp
	movl	%edi, %ebx
	movq	$10, seedi(%rip)
	callq	PinInit
	movl	$.L.str.23, %r15d
	movl	$64, %r14d
	cmpl	$2, %ebx
	jl	.LBB13_1
# BB#2:                                 # %if.end
	movq	8(%rbp), %r15
	cmpl	$3, %ebx
	jl	.LBB13_3
# BB#4:                                 # %if.end4
	movq	16(%rbp), %rdi
	xorl	%esi, %esi
	movl	$10, %edx
	callq	strtol
	movq	%rax, %r14
	cmpl	$4, %ebx
	jl	.LBB13_5
# BB#6:                                 # %if.then6
	movq	24(%rbp), %rdi
	xorl	%esi, %esi
	movl	$10, %edx
	callq	strtol
	jmp	.LBB13_7
.LBB13_1:
	movl	$64, %eax
	jmp	.LBB13_7
.LBB13_3:
	movl	$64, %eax
	jmp	.LBB13_7
.LBB13_5:
	movl	%r14d, %eax
.LBB13_7:                               # %if.end9
	movl	%r14d, %ebp
	shll	$20, %ebp
	movl	%ebp, spec_fd(%rip)
	shll	$20, %eax
	movl	%eax, spec_fd+24(%rip)
	movl	%ebp, spec_fd+48(%rip)
	callq	spec_init
	cmpl	$3, dbglvl(%rip)
	jl	.LBB13_9
# BB#8:                                 # %if.then15
	movl	$.Lstr.43, %edi
	callq	puts
.LBB13_9:                               # %if.end17
	xorl	%edi, %edi
	movq	%r15, %rsi
	movl	%ebp, %edx
	callq	spec_load
	cmpl	$4, dbglvl(%rip)
	jl	.LBB13_11
# BB#10:                                # %if.then21
	movl	spec_fd+4(%rip), %esi
	movl	$.L.str.25, %edi
	xorl	%eax, %eax
	callq	printf
.LBB13_11:                              # %if.end23
	movl	%r14d, %eax
	shll	$10, %eax
	movslq	%eax, %rdi
	callq	malloc
	movq	%rax, %r15
	testq	%r15, %r15
	je	.LBB13_14
# BB#12:                                # %for.cond.preheader
	testl	%r14d, %r14d
	jle	.LBB13_13
# BB#15:                                # %for.body.lr.ph
	movq	spec_fd+16(%rip), %rax
	movslq	%ebp, %r13
	xorl	%ecx, %ecx
	movq	%r15, %rdx
	.align	16, 0x90
.LBB13_16:                              # %for.body
                                        # =>This Inner Loop Header: Depth=1
	movb	(%rax,%rcx), %bl
	movb	%bl, (%rdx)
	addq	$1027, %rcx             # imm = 0x403
	incq	%rdx
	cmpq	%r13, %rcx
	jl	.LBB13_16
# BB#17:                                # %for.end
	testl	%r14d, %r14d
	movb	$0, smallMode(%rip)
	movl	$0, verbosity(%rip)
	movl	$9, blockSize100k(%rip)
	movl	$30, workFactor(%rip)
	jle	.LBB13_18
# BB#32:                                # %for.body42.us.preheader
	movl	$5, %r12d
	cmpl	$0, "PinFlag-318."(%rip)
	jne	.LBB13_34
# BB#33:
	movl	$.L__unnamed_7, %edi
	movl	$1, %esi
	xorl	%edx, %edx
	movl	$57, %ecx
	xorl	%r8d, %r8d
	callq	Pin
	movl	$1, "PinFlag-318."(%rip)
	.align	16, 0x90
.LBB13_34:                              # %for.body42.us
                                        # =>This Loop Header: Depth=1
                                        #     Child Loop BB13_49 Depth 2
	cmpl	$3, dbglvl(%rip)
	jl	.LBB13_36
# BB#35:                                # %if.then46.us
                                        #   in Loop: Header=BB13_34 Depth=1
	movl	$.L.str.27, %edi
	xorl	%eax, %eax
	movl	%r12d, %esi
	callq	printf
.LBB13_36:                              # %if.end48.us
                                        #   in Loop: Header=BB13_34 Depth=1
	movl	%r12d, blockSize100k(%rip)
	xorl	%edi, %edi
	movl	$1, %esi
	callq	compressStream
	cmpl	$4, dbglvl(%rip)
	jl	.LBB13_38
# BB#37:                                # %if.then52.us
                                        #   in Loop: Header=BB13_34 Depth=1
	movl	spec_fd+28(%rip), %esi
	movl	$.L.str.28, %edi
	xorl	%eax, %eax
	callq	printf
.LBB13_38:                              # %if.end54.us
                                        #   in Loop: Header=BB13_34 Depth=1
	movq	spec_fd+16(%rip), %rdi
	movslq	spec_fd+4(%rip), %rdx
	xorl	%esi, %esi
	callq	memset
	movq	$0, spec_fd+4(%rip)
	movl	$0, spec_fd+32(%rip)
	cmpl	$3, dbglvl(%rip)
	jl	.LBB13_40
# BB#39:                                # %if.then60.us
                                        #   in Loop: Header=BB13_34 Depth=1
	movl	$.Lstr.41, %edi
	callq	puts
.LBB13_40:                              # %if.end62.us
                                        #   in Loop: Header=BB13_34 Depth=1
	movl	$0, blockSize100k(%rip)
	movl	$1, %edi
	xorl	%esi, %esi
	callq	uncompressStream
	cmpl	$4, dbglvl(%rip)
	jl	.LBB13_42
# BB#41:                                # %if.then66.us
                                        #   in Loop: Header=BB13_34 Depth=1
	movl	spec_fd+4(%rip), %esi
	movl	$.L.str.30, %edi
	xorl	%eax, %eax
	callq	printf
.LBB13_42:                              # %for.body74.lr.ph.us
                                        #   in Loop: Header=BB13_34 Depth=1
	movq	spec_fd+16(%rip), %rbp
	xorl	%ebx, %ebx
	cmpl	$0, "PinFlag-318.0"(%rip)
	movq	%r15, %rax
	movl	$0, %ecx
	jne	.LBB13_49
# BB#43:                                #   in Loop: Header=BB13_34 Depth=1
	xorl	%ebx, %ebx
	movl	$.L__unnamed_8, %edi
	movl	$1, %esi
	xorl	%edx, %edx
	movl	$14, %ecx
	xorl	%r8d, %r8d
	callq	Pin
	movl	$1, "PinFlag-318.0"(%rip)
	movq	%r15, %rax
	xorl	%ecx, %ecx
	.align	16, 0x90
.LBB13_49:                              # %for.body74.us
                                        #   Parent Loop BB13_34 Depth=1
                                        # =>  This Inner Loop Header: Depth=2
	movq	%rcx, %rdx
	sarq	$32, %rdx
	movzbl	(%rbp,%rdx), %edx
	movzbl	(%rax), %esi
	cmpl	%edx, %esi
	jne	.LBB13_50
# BB#48:                                # %for.cond69.us
                                        #   in Loop: Header=BB13_49 Depth=2
	movabsq	$4410931412992, %rdx    # imm = 0x40300000000
	addq	%rdx, %rcx
	addq	$1027, %rbx             # imm = 0x403
	incq	%rax
	cmpq	%r13, %rbx
	jl	.LBB13_49
# BB#44:                                # %for.cond69.for.end89_crit_edge.us
                                        #   in Loop: Header=BB13_34 Depth=1
	cmpl	$3, dbglvl(%rip)
	jle	.LBB13_46
# BB#45:                                # %if.then93.us
                                        #   in Loop: Header=BB13_34 Depth=1
	movl	$.Lstr.40, %edi
	callq	puts
.LBB13_46:                              # %if.end95.us
                                        #   in Loop: Header=BB13_34 Depth=1
	movq	spec_fd+40(%rip), %rdi
	movslq	spec_fd+28(%rip), %rdx
	xorl	%esi, %esi
	callq	memset
	movl	$0, spec_fd+28(%rip)
	movl	$0, spec_fd+32(%rip)
	movl	$0, spec_fd+8(%rip)
	addl	$2, %r12d
	cmpl	$10, %r12d
	jl	.LBB13_34
# BB#47:                                # %for.end99.loopexit
	movl	$0, "PinFlag-171."(%rip)
	movl	$0, "PinFlag-172."(%rip)
	movl	$0, "PinFlag-14."(%rip)
	movl	$0, "PinFlag-14.0"(%rip)
	movl	$0, "PinFlag-14.00"(%rip)
	movl	$0, "PinFlag-14.000"(%rip)
	movl	$0, "PinFlag-14.0000"(%rip)
	movl	$0, "PinFlag-14.00000"(%rip)
	movl	$0, "PinFlag-14.000000"(%rip)
	movl	$0, "PinFlag-14.00001"(%rip)
	movl	$0, "PinFlag-14.000010"(%rip)
	movl	$0, "PinFlag-14.001"(%rip)
	movl	$0, "PinFlag-14.0010"(%rip)
	movl	$0, "PinFlag-14.00100"(%rip)
	movl	$0, "PinFlag-14.001000"(%rip)
	movl	$0, "PinFlag-14.00101"(%rip)
	movl	$0, "PinFlag-14.001010"(%rip)
	movl	$0, "PinFlag-14.002"(%rip)
	movl	$0, "PinFlag-14.003"(%rip)
	movl	$0, "PinFlag-14.004"(%rip)
	movl	$0, "PinFlag-14.005"(%rip)
	movl	$0, "PinFlag-14.006"(%rip)
	movl	$0, "PinFlag-14.007"(%rip)
	movl	$0, "PinFlag-14.0070"(%rip)
	movl	$0, "PinFlag-14.00700"(%rip)
	movl	$0, "PinFlag-14.00701"(%rip)
	movl	$0, "PinFlag-14.00702"(%rip)
	movl	$0, "PinFlag-14.1"(%rip)
	movl	$0, "PinFlag-14.2"(%rip)
	movl	$0, "PinFlag-14.3"(%rip)
	movl	$0, "PinFlag-14.4"(%rip)
	movl	$0, "PinFlag-14.5"(%rip)
	movl	$0, "PinFlag-14.6"(%rip)
	movl	$0, "PinFlag-15."(%rip)
	movl	$0, "PinFlag-15.0"(%rip)
	movl	$0, "PinFlag-15.00"(%rip)
	movl	$0, "PinFlag-17."(%rip)
	movl	$0, "PinFlag-18."(%rip)
	movl	$0, "PinFlag-19."(%rip)
	movl	$0, "PinFlag-20."(%rip)
	movl	$0, "PinFlag-21."(%rip)
	movl	$0, "PinFlag-22."(%rip)
	movl	$0, "PinFlag-23."(%rip)
	movl	$0, "PinFlag-173."(%rip)
	movl	$0, "PinFlag-174."(%rip)
	movl	$0, "PinFlag-175."(%rip)
	movl	$0, "PinFlag-176."(%rip)
	movl	$0, "PinFlag-24."(%rip)
	movl	$0, "PinFlag-24.0"(%rip)
	movl	$0, "PinFlag-24.1"(%rip)
	movl	$0, "PinFlag-26."(%rip)
	movl	$0, "PinFlag-26.0"(%rip)
	movl	$0, "PinFlag-26.1"(%rip)
	movl	$0, "PinFlag-26.10"(%rip)
	movl	$0, "PinFlag-26.100"(%rip)
	movl	$0, "PinFlag-26.101"(%rip)
	movl	$0, "PinFlag-26.102"(%rip)
	movl	$0, "PinFlag-26.103"(%rip)
	movl	$0, "PinFlag-26.104"(%rip)
	movl	$0, "PinFlag-26.11"(%rip)
	movl	$0, "PinFlag-26.110"(%rip)
	movl	$0, "PinFlag-26.1100"(%rip)
	movl	$0, "PinFlag-26.11000"(%rip)
	movl	$0, "PinFlag-26.1101"(%rip)
	movl	$0, "PinFlag-26.11010"(%rip)
	movl	$0, "PinFlag-26.111"(%rip)
	movl	$0, "PinFlag-26.1110"(%rip)
	movl	$0, "PinFlag-26.11100"(%rip)
	movl	$0, "PinFlag-26.1111"(%rip)
	movl	$0, "PinFlag-26.11110"(%rip)
	movl	$0, "PinFlag-26.112"(%rip)
	movl	$0, "PinFlag-26.113"(%rip)
	movl	$0, "PinFlag-26.114"(%rip)
	movl	$0, "PinFlag-26.115"(%rip)
	movl	$0, "PinFlag-26.12"(%rip)
	movl	$0, "PinFlag-27."(%rip)
	movl	$0, "PinFlag-28."(%rip)
	movl	$0, "PinFlag-29."(%rip)
	movl	$0, "PinFlag-30."(%rip)
	movl	$0, "PinFlag-31."(%rip)
	movl	$0, "PinFlag-32."(%rip)
	movl	$0, "PinFlag-177."(%rip)
	movl	$0, "PinFlag-178."(%rip)
	movl	$0, "PinFlag-179."(%rip)
	movl	$0, "PinFlag-180."(%rip)
	movl	$0, "PinFlag-181."(%rip)
	movl	$0, "PinFlag-182."(%rip)
	movl	$0, "PinFlag-33."(%rip)
	movl	$0, "PinFlag-39."(%rip)
	movl	$0, "PinFlag-39.0"(%rip)
	movl	$0, "PinFlag-39.1"(%rip)
	movl	$0, "PinFlag-39.2"(%rip)
	movl	$0, "PinFlag-39.3"(%rip)
	movl	$0, "PinFlag-183."(%rip)
	movl	$0, "PinFlag-43."(%rip)
	movl	$0, "PinFlag-43.0"(%rip)
	movl	$0, "PinFlag-43.1"(%rip)
	movl	$0, "PinFlag-43.2"(%rip)
	movl	$0, "PinFlag-184."(%rip)
	movl	$0, "PinFlag-185."(%rip)
	movl	$0, "PinFlag-186."(%rip)
	movl	$0, "PinFlag-44."(%rip)
	movl	$0, "PinFlag-187."(%rip)
	movl	$0, "PinFlag-188."(%rip)
	movl	$0, "PinFlag-45."(%rip)
	movl	$0, "PinFlag-189."(%rip)
	movl	$0, "PinFlag-47."(%rip)
	movl	$0, "PinFlag-47.0"(%rip)
	movl	$0, "PinFlag-47.00"(%rip)
	movl	$0, "PinFlag-47.01"(%rip)
	movl	$0, "PinFlag-47.02"(%rip)
	movl	$0, "PinFlag-47.03"(%rip)
	movl	$0, "PinFlag-47.04"(%rip)
	movl	$0, "PinFlag-47.1"(%rip)
	movl	$0, "PinFlag-47.10"(%rip)
	movl	$0, "PinFlag-47.11"(%rip)
	movl	$0, "PinFlag-47.12"(%rip)
	movl	$0, "PinFlag-47.13"(%rip)
	movl	$0, "PinFlag-47.14"(%rip)
	movl	$0, "PinFlag-47.2"(%rip)
	movl	$0, "PinFlag-47.3"(%rip)
	movl	$0, "PinFlag-47.30"(%rip)
	movl	$0, "PinFlag-190."(%rip)
	movl	$0, "PinFlag-48."(%rip)
	movl	$0, "PinFlag-49."(%rip)
	movl	$0, "PinFlag-49.0"(%rip)
	movl	$0, "PinFlag-50."(%rip)
	movl	$0, "PinFlag-191."(%rip)
	movl	$0, "PinFlag-192."(%rip)
	movl	$0, "PinFlag-55."(%rip)
	movl	$0, "PinFlag-56."(%rip)
	movl	$0, "PinFlag-57."(%rip)
	movl	$0, "PinFlag-58."(%rip)
	movl	$0, "PinFlag-59."(%rip)
	movl	$0, "PinFlag-60."(%rip)
	movl	$0, "PinFlag-61."(%rip)
	movl	$0, "PinFlag-62."(%rip)
	movl	$0, "PinFlag-63."(%rip)
	movl	$0, "PinFlag-63.0"(%rip)
	movl	$0, "PinFlag-63.1"(%rip)
	movl	$0, "PinFlag-67."(%rip)
	movl	$0, "PinFlag-68."(%rip)
	movl	$0, "PinFlag-69."(%rip)
	movl	$0, "PinFlag-70."(%rip)
	movl	$0, "PinFlag-71."(%rip)
	movl	$0, "PinFlag-72."(%rip)
	movl	$0, "PinFlag-73."(%rip)
	movl	$0, "PinFlag-74."(%rip)
	movl	$0, "PinFlag-75."(%rip)
	movl	$0, "PinFlag-76."(%rip)
	movl	$0, "PinFlag-77."(%rip)
	movl	$0, "PinFlag-193."(%rip)
	movl	$0, "PinFlag-194."(%rip)
	movl	$0, "PinFlag-195."(%rip)
	movl	$0, "PinFlag-196."(%rip)
	movl	$0, "PinFlag-78."(%rip)
	movl	$0, "PinFlag-79."(%rip)
	movl	$0, "PinFlag-80."(%rip)
	movl	$0, "PinFlag-81."(%rip)
	movl	$0, "PinFlag-197."(%rip)
	movl	$0, "PinFlag-198."(%rip)
	movl	$0, "PinFlag-82."(%rip)
	movl	$0, "PinFlag-82.0"(%rip)
	movl	$0, "PinFlag-82.00"(%rip)
	movl	$0, "PinFlag-82.1"(%rip)
	movl	$0, "PinFlag-82.10"(%rip)
	movl	$0, "PinFlag-82.2"(%rip)
	movl	$0, "PinFlag-82.3"(%rip)
	movl	$0, "PinFlag-82.4"(%rip)
	movl	$0, "PinFlag-82.5"(%rip)
	movl	$0, "PinFlag-82.6"(%rip)
	movl	$0, "PinFlag-82.7"(%rip)
	movl	$0, "PinFlag-82.8"(%rip)
	movl	$0, "PinFlag-82.9"(%rip)
	movl	$0, "PinFlag-83."(%rip)
	movl	$0, "PinFlag-83.0"(%rip)
	movl	$0, "PinFlag-83.00"(%rip)
	movl	$0, "PinFlag-83.01"(%rip)
	movl	$0, "PinFlag-85."(%rip)
	movl	$0, "PinFlag-85.0"(%rip)
	movl	$0, "PinFlag-87."(%rip)
	movl	$0, "PinFlag-87.0"(%rip)
	movl	$0, "PinFlag-88."(%rip)
	movl	$0, "PinFlag-89."(%rip)
	movl	$0, "PinFlag-89.0"(%rip)
	movl	$0, "PinFlag-89.1"(%rip)
	movl	$0, "PinFlag-91."(%rip)
	movl	$0, "PinFlag-91.0"(%rip)
	movl	$0, "PinFlag-91.1"(%rip)
	movl	$0, "PinFlag-92."(%rip)
	movl	$0, "PinFlag-95."(%rip)
	movl	$0, "PinFlag-95.0"(%rip)
	movl	$0, "PinFlag-95.1"(%rip)
	movl	$0, "PinFlag-95.2"(%rip)
	movl	$0, "PinFlag-95.20"(%rip)
	movl	$0, "PinFlag-95.21"(%rip)
	movl	$0, "PinFlag-95.210"(%rip)
	movl	$0, "PinFlag-95.211"(%rip)
	movl	$0, "PinFlag-95.22"(%rip)
	movl	$0, "PinFlag-95.23"(%rip)
	movl	$0, "PinFlag-95.3"(%rip)
	movl	$0, "PinFlag-95.4"(%rip)
	movl	$0, "PinFlag-96."(%rip)
	movl	$0, "PinFlag-96.0"(%rip)
	movl	$0, "PinFlag-96.1"(%rip)
	movl	$0, "PinFlag-96.2"(%rip)
	movl	$0, "PinFlag-97."(%rip)
	movl	$0, "PinFlag-97.0"(%rip)
	movl	$0, "PinFlag-199."(%rip)
	movl	$0, "PinFlag-200."(%rip)
	movl	$0, "PinFlag-201."(%rip)
	movl	$0, "PinFlag-202."(%rip)
	movl	$0, "PinFlag-203."(%rip)
	movl	$0, "PinFlag-204."(%rip)
	movl	$0, "PinFlag-205."(%rip)
	movl	$0, "PinFlag-206."(%rip)
	movl	$0, "PinFlag-207."(%rip)
	movl	$0, "PinFlag-208."(%rip)
	movl	$0, "PinFlag-209."(%rip)
	movl	$0, "PinFlag-210."(%rip)
	movl	$0, "PinFlag-211."(%rip)
	movl	$0, "PinFlag-212."(%rip)
	movl	$0, "PinFlag-213."(%rip)
	movl	$0, "PinFlag-214."(%rip)
	movl	$0, "PinFlag-215."(%rip)
	movl	$0, "PinFlag-216."(%rip)
	movl	$0, "PinFlag-217."(%rip)
	movl	$0, "PinFlag-218."(%rip)
	movl	$0, "PinFlag-219."(%rip)
	movl	$0, "PinFlag-220."(%rip)
	movl	$0, "PinFlag-221."(%rip)
	movl	$0, "PinFlag-222."(%rip)
	movl	$0, "PinFlag-223."(%rip)
	movl	$0, "PinFlag-224."(%rip)
	movl	$0, "PinFlag-225."(%rip)
	movl	$0, "PinFlag-226."(%rip)
	movl	$0, "PinFlag-227."(%rip)
	movl	$0, "PinFlag-228."(%rip)
	movl	$0, "PinFlag-229."(%rip)
	movl	$0, "PinFlag-230."(%rip)
	movl	$0, "PinFlag-231."(%rip)
	movl	$0, "PinFlag-232."(%rip)
	movl	$0, "PinFlag-233."(%rip)
	movl	$0, "PinFlag-234."(%rip)
	movl	$0, "PinFlag-235."(%rip)
	movl	$0, "PinFlag-236."(%rip)
	movl	$0, "PinFlag-237."(%rip)
	movl	$0, "PinFlag-238."(%rip)
	movl	$0, "PinFlag-239."(%rip)
	movl	$0, "PinFlag-240."(%rip)
	movl	$0, "PinFlag-241."(%rip)
	movl	$0, "PinFlag-242."(%rip)
	movl	$0, "PinFlag-243."(%rip)
	movl	$0, "PinFlag-244."(%rip)
	movl	$0, "PinFlag-245."(%rip)
	movl	$0, "PinFlag-246."(%rip)
	movl	$0, "PinFlag-247."(%rip)
	movl	$0, "PinFlag-248."(%rip)
	movl	$0, "PinFlag-249."(%rip)
	movl	$0, "PinFlag-250."(%rip)
	movl	$0, "PinFlag-251."(%rip)
	movl	$0, "PinFlag-252."(%rip)
	movl	$0, "PinFlag-253."(%rip)
	movl	$0, "PinFlag-254."(%rip)
	movl	$0, "PinFlag-255."(%rip)
	movl	$0, "PinFlag-256."(%rip)
	movl	$0, "PinFlag-257."(%rip)
	movl	$0, "PinFlag-258."(%rip)
	movl	$0, "PinFlag-259."(%rip)
	movl	$0, "PinFlag-260."(%rip)
	movl	$0, "PinFlag-261."(%rip)
	movl	$0, "PinFlag-262."(%rip)
	movl	$0, "PinFlag-263."(%rip)
	movl	$0, "PinFlag-264."(%rip)
	movl	$0, "PinFlag-265."(%rip)
	movl	$0, "PinFlag-266."(%rip)
	movl	$0, "PinFlag-267."(%rip)
	movl	$0, "PinFlag-268."(%rip)
	movl	$0, "PinFlag-269."(%rip)
	movl	$0, "PinFlag-270."(%rip)
	movl	$0, "PinFlag-271."(%rip)
	movl	$0, "PinFlag-272."(%rip)
	movl	$0, "PinFlag-273."(%rip)
	movl	$0, "PinFlag-274."(%rip)
	movl	$0, "PinFlag-275."(%rip)
	movl	$0, "PinFlag-276."(%rip)
	movl	$0, "PinFlag-277."(%rip)
	movl	$0, "PinFlag-278."(%rip)
	movl	$0, "PinFlag-279."(%rip)
	movl	$0, "PinFlag-280."(%rip)
	movl	$0, "PinFlag-281."(%rip)
	movl	$0, "PinFlag-282."(%rip)
	movl	$0, "PinFlag-283."(%rip)
	movl	$0, "PinFlag-284."(%rip)
	movl	$0, "PinFlag-285."(%rip)
	movl	$0, "PinFlag-286."(%rip)
	movl	$0, "PinFlag-287."(%rip)
	movl	$0, "PinFlag-288."(%rip)
	movl	$0, "PinFlag-289."(%rip)
	movl	$0, "PinFlag-290."(%rip)
	movl	$0, "PinFlag-291."(%rip)
	movl	$0, "PinFlag-292."(%rip)
	movl	$0, "PinFlag-293."(%rip)
	movl	$0, "PinFlag-294."(%rip)
	movl	$0, "PinFlag-295."(%rip)
	movl	$0, "PinFlag-296."(%rip)
	movl	$0, "PinFlag-297."(%rip)
	movl	$0, "PinFlag-298."(%rip)
	movl	$0, "PinFlag-299."(%rip)
	movl	$0, "PinFlag-300."(%rip)
	movl	$0, "PinFlag-301."(%rip)
	movl	$0, "PinFlag-302."(%rip)
	movl	$0, "PinFlag-303."(%rip)
	movl	$0, "PinFlag-304."(%rip)
	movl	$0, "PinFlag-305."(%rip)
	movl	$0, "PinFlag-98."(%rip)
	movl	$0, "PinFlag-306."(%rip)
	movl	$0, "PinFlag-100."(%rip)
	movl	$0, "PinFlag-101."(%rip)
	movl	$0, "PinFlag-102."(%rip)
	movl	$0, "PinFlag-103."(%rip)
	movl	$0, "PinFlag-104."(%rip)
	movl	$0, "PinFlag-105."(%rip)
	movl	$0, "PinFlag-106."(%rip)
	movl	$0, "PinFlag-107."(%rip)
	movl	$0, "PinFlag-108."(%rip)
	movl	$0, "PinFlag-109."(%rip)
	movl	$0, "PinFlag-110."(%rip)
	movl	$0, "PinFlag-110.0"(%rip)
	movl	$0, "PinFlag-111."(%rip)
	movl	$0, "PinFlag-112."(%rip)
	movl	$0, "PinFlag-113."(%rip)
	movl	$0, "PinFlag-114."(%rip)
	movl	$0, "PinFlag-115."(%rip)
	movl	$0, "PinFlag-116."(%rip)
	movl	$0, "PinFlag-117."(%rip)
	movl	$0, "PinFlag-120."(%rip)
	movl	$0, "PinFlag-122."(%rip)
	movl	$0, "PinFlag-123."(%rip)
	movl	$0, "PinFlag-124."(%rip)
	movl	$0, "PinFlag-125."(%rip)
	movl	$0, "PinFlag-126."(%rip)
	movl	$0, "PinFlag-127."(%rip)
	movl	$0, "PinFlag-128."(%rip)
	movl	$0, "PinFlag-129."(%rip)
	movl	$0, "PinFlag-130."(%rip)
	movl	$0, "PinFlag-131."(%rip)
	movl	$0, "PinFlag-132."(%rip)
	movl	$0, "PinFlag-133."(%rip)
	movl	$0, "PinFlag-134."(%rip)
	movl	$0, "PinFlag-136."(%rip)
	movl	$0, "PinFlag-136.0"(%rip)
	movl	$0, "PinFlag-136.1"(%rip)
	movl	$0, "PinFlag-138."(%rip)
	movl	$0, "PinFlag-138.0"(%rip)
	movl	$0, "PinFlag-138.1"(%rip)
	movl	$0, "PinFlag-140."(%rip)
	movl	$0, "PinFlag-141."(%rip)
	movl	$0, "PinFlag-142."(%rip)
	movl	$0, "PinFlag-143."(%rip)
	movl	$0, "PinFlag-144."(%rip)
	movl	$0, "PinFlag-145."(%rip)
	movl	$0, "PinFlag-146."(%rip)
	movl	$0, "PinFlag-147."(%rip)
	movl	$0, "PinFlag-148."(%rip)
	movl	$0, "PinFlag-149."(%rip)
	movl	$0, "PinFlag-150."(%rip)
	movl	$0, "PinFlag-151."(%rip)
	movl	$0, "PinFlag-152."(%rip)
	movl	$0, "PinFlag-153."(%rip)
	movl	$0, "PinFlag-154."(%rip)
	movl	$0, "PinFlag-155."(%rip)
	movl	$0, "PinFlag-156."(%rip)
	movl	$0, "PinFlag-157."(%rip)
	movl	$0, "PinFlag-158."(%rip)
	movl	$0, "PinFlag-159."(%rip)
	movl	$0, "PinFlag-160."(%rip)
	movl	$0, "PinFlag-99."(%rip)
	movl	$0, "PinFlag-307."(%rip)
	movl	$0, "PinFlag-308."(%rip)
	movl	$0, "PinFlag-161."(%rip)
	movl	$0, "PinFlag-161.0"(%rip)
	movl	$0, "PinFlag-161.1"(%rip)
	movl	$0, "PinFlag-161.10"(%rip)
	movl	$0, "PinFlag-161.11"(%rip)
	movl	$0, "PinFlag-161.12"(%rip)
	movl	$0, "PinFlag-161.2"(%rip)
	movl	$0, "PinFlag-161.3"(%rip)
	movl	$0, "PinFlag-161.30"(%rip)
	movl	$0, "PinFlag-161.31"(%rip)
	movl	$0, "PinFlag-161.4"(%rip)
	movl	$0, "PinFlag-161.5"(%rip)
	movl	$0, "PinFlag-309."(%rip)
	movl	$0, "PinFlag-310."(%rip)
	movl	$0, "PinFlag-311."(%rip)
	movl	$0, "PinFlag-312."(%rip)
	movl	$0, "PinFlag-313."(%rip)
	movl	$0, "PinFlag-164."(%rip)
	movl	$0, "PinFlag-164.0"(%rip)
	movl	$0, "PinFlag-314."(%rip)
	movl	$0, "PinFlag-315."(%rip)
	movl	$0, "PinFlag-316."(%rip)
	movl	$0, "PinFlag-165."(%rip)
	movl	$0, "PinFlag-166."(%rip)
	movl	$0, "PinFlag-167."(%rip)
	movl	$0, "PinFlag-168."(%rip)
	movl	$0, "PinFlag-169."(%rip)
	movl	$0, "PinFlag-169.0"(%rip)
	movl	$318, %edi              # imm = 0x13E
	callq	UnPin
	movl	$0, "PinFlag-318.0"(%rip)
	movl	$0, "PinFlag-318."(%rip)
	jmp	.LBB13_31
.LBB13_13:                              # %for.end.thread
	movb	$0, smallMode(%rip)
	movl	$0, verbosity(%rip)
	movl	$9, blockSize100k(%rip)
	movl	$30, workFactor(%rip)
.LBB13_18:                              # %for.body42.preheader
	movl	$5, %ebx
	cmpl	$0, "PinFlag-319."(%rip)
	jne	.LBB13_20
# BB#19:
	movl	$.L__unnamed_9, %edi
	movl	$2, %esi
	xorl	%edx, %edx
	movl	$48, %ecx
	xorl	%r8d, %r8d
	callq	Pin
	movl	$1, "PinFlag-319."(%rip)
	.align	16, 0x90
.LBB13_20:                              # %for.body42
                                        # =>This Inner Loop Header: Depth=1
	cmpl	$3, dbglvl(%rip)
	jl	.LBB13_22
# BB#21:                                # %if.then46
                                        #   in Loop: Header=BB13_20 Depth=1
	movl	$.L.str.27, %edi
	xorl	%eax, %eax
	movl	%ebx, %esi
	callq	printf
.LBB13_22:                              # %if.end48
                                        #   in Loop: Header=BB13_20 Depth=1
	movl	%ebx, blockSize100k(%rip)
	xorl	%edi, %edi
	movl	$1, %esi
	callq	compressStream
	cmpl	$4, dbglvl(%rip)
	jl	.LBB13_24
# BB#23:                                # %if.then52
                                        #   in Loop: Header=BB13_20 Depth=1
	movl	spec_fd+28(%rip), %esi
	movl	$.L.str.28, %edi
	xorl	%eax, %eax
	callq	printf
.LBB13_24:                              # %if.end54
                                        #   in Loop: Header=BB13_20 Depth=1
	movq	spec_fd+16(%rip), %rdi
	movslq	spec_fd+4(%rip), %rdx
	xorl	%esi, %esi
	callq	memset
	movq	$0, spec_fd+4(%rip)
	movl	$0, spec_fd+32(%rip)
	cmpl	$3, dbglvl(%rip)
	jl	.LBB13_26
# BB#25:                                # %if.then60
                                        #   in Loop: Header=BB13_20 Depth=1
	movl	$.Lstr.41, %edi
	callq	puts
.LBB13_26:                              # %if.end62
                                        #   in Loop: Header=BB13_20 Depth=1
	movl	$0, blockSize100k(%rip)
	movl	$1, %edi
	xorl	%esi, %esi
	callq	uncompressStream
	cmpl	$3, dbglvl(%rip)
	jle	.LBB13_29
# BB#27:                                # %for.end89
                                        #   in Loop: Header=BB13_20 Depth=1
	movl	spec_fd+4(%rip), %esi
	movl	$.L.str.30, %edi
	xorl	%eax, %eax
	callq	printf
	cmpl	$4, dbglvl(%rip)
	jl	.LBB13_29
# BB#28:                                # %if.then93
                                        #   in Loop: Header=BB13_20 Depth=1
	movl	$.Lstr.40, %edi
	callq	puts
.LBB13_29:                              # %if.end95
                                        #   in Loop: Header=BB13_20 Depth=1
	movq	spec_fd+40(%rip), %rdi
	movslq	spec_fd+28(%rip), %rdx
	xorl	%esi, %esi
	callq	memset
	movl	$0, spec_fd+28(%rip)
	movl	$0, spec_fd+32(%rip)
	movl	$0, spec_fd+8(%rip)
	addl	$2, %ebx
	cmpl	$10, %ebx
	jl	.LBB13_20
# BB#30:                                # %for.end99.loopexit162
	movl	$0, "PinFlag-171."(%rip)
	movl	$0, "PinFlag-172."(%rip)
	movl	$0, "PinFlag-14."(%rip)
	movl	$0, "PinFlag-14.0"(%rip)
	movl	$0, "PinFlag-14.00"(%rip)
	movl	$0, "PinFlag-14.000"(%rip)
	movl	$0, "PinFlag-14.0000"(%rip)
	movl	$0, "PinFlag-14.00000"(%rip)
	movl	$0, "PinFlag-14.000000"(%rip)
	movl	$0, "PinFlag-14.00001"(%rip)
	movl	$0, "PinFlag-14.000010"(%rip)
	movl	$0, "PinFlag-14.001"(%rip)
	movl	$0, "PinFlag-14.0010"(%rip)
	movl	$0, "PinFlag-14.00100"(%rip)
	movl	$0, "PinFlag-14.001000"(%rip)
	movl	$0, "PinFlag-14.00101"(%rip)
	movl	$0, "PinFlag-14.001010"(%rip)
	movl	$0, "PinFlag-14.002"(%rip)
	movl	$0, "PinFlag-14.003"(%rip)
	movl	$0, "PinFlag-14.004"(%rip)
	movl	$0, "PinFlag-14.005"(%rip)
	movl	$0, "PinFlag-14.006"(%rip)
	movl	$0, "PinFlag-14.007"(%rip)
	movl	$0, "PinFlag-14.0070"(%rip)
	movl	$0, "PinFlag-14.00700"(%rip)
	movl	$0, "PinFlag-14.00701"(%rip)
	movl	$0, "PinFlag-14.00702"(%rip)
	movl	$0, "PinFlag-14.1"(%rip)
	movl	$0, "PinFlag-14.2"(%rip)
	movl	$0, "PinFlag-14.3"(%rip)
	movl	$0, "PinFlag-14.4"(%rip)
	movl	$0, "PinFlag-14.5"(%rip)
	movl	$0, "PinFlag-14.6"(%rip)
	movl	$0, "PinFlag-15."(%rip)
	movl	$0, "PinFlag-15.0"(%rip)
	movl	$0, "PinFlag-15.00"(%rip)
	movl	$0, "PinFlag-17."(%rip)
	movl	$0, "PinFlag-18."(%rip)
	movl	$0, "PinFlag-19."(%rip)
	movl	$0, "PinFlag-20."(%rip)
	movl	$0, "PinFlag-21."(%rip)
	movl	$0, "PinFlag-22."(%rip)
	movl	$0, "PinFlag-23."(%rip)
	movl	$0, "PinFlag-173."(%rip)
	movl	$0, "PinFlag-174."(%rip)
	movl	$0, "PinFlag-175."(%rip)
	movl	$0, "PinFlag-176."(%rip)
	movl	$0, "PinFlag-24."(%rip)
	movl	$0, "PinFlag-24.0"(%rip)
	movl	$0, "PinFlag-24.1"(%rip)
	movl	$0, "PinFlag-26."(%rip)
	movl	$0, "PinFlag-26.0"(%rip)
	movl	$0, "PinFlag-26.1"(%rip)
	movl	$0, "PinFlag-26.10"(%rip)
	movl	$0, "PinFlag-26.100"(%rip)
	movl	$0, "PinFlag-26.101"(%rip)
	movl	$0, "PinFlag-26.102"(%rip)
	movl	$0, "PinFlag-26.103"(%rip)
	movl	$0, "PinFlag-26.104"(%rip)
	movl	$0, "PinFlag-26.11"(%rip)
	movl	$0, "PinFlag-26.110"(%rip)
	movl	$0, "PinFlag-26.1100"(%rip)
	movl	$0, "PinFlag-26.11000"(%rip)
	movl	$0, "PinFlag-26.1101"(%rip)
	movl	$0, "PinFlag-26.11010"(%rip)
	movl	$0, "PinFlag-26.111"(%rip)
	movl	$0, "PinFlag-26.1110"(%rip)
	movl	$0, "PinFlag-26.11100"(%rip)
	movl	$0, "PinFlag-26.1111"(%rip)
	movl	$0, "PinFlag-26.11110"(%rip)
	movl	$0, "PinFlag-26.112"(%rip)
	movl	$0, "PinFlag-26.113"(%rip)
	movl	$0, "PinFlag-26.114"(%rip)
	movl	$0, "PinFlag-26.115"(%rip)
	movl	$0, "PinFlag-26.12"(%rip)
	movl	$0, "PinFlag-27."(%rip)
	movl	$0, "PinFlag-28."(%rip)
	movl	$0, "PinFlag-29."(%rip)
	movl	$0, "PinFlag-30."(%rip)
	movl	$0, "PinFlag-31."(%rip)
	movl	$0, "PinFlag-32."(%rip)
	movl	$0, "PinFlag-177."(%rip)
	movl	$0, "PinFlag-178."(%rip)
	movl	$0, "PinFlag-179."(%rip)
	movl	$0, "PinFlag-180."(%rip)
	movl	$0, "PinFlag-181."(%rip)
	movl	$0, "PinFlag-182."(%rip)
	movl	$0, "PinFlag-33."(%rip)
	movl	$0, "PinFlag-39."(%rip)
	movl	$0, "PinFlag-39.0"(%rip)
	movl	$0, "PinFlag-39.1"(%rip)
	movl	$0, "PinFlag-39.2"(%rip)
	movl	$0, "PinFlag-39.3"(%rip)
	movl	$0, "PinFlag-183."(%rip)
	movl	$0, "PinFlag-43."(%rip)
	movl	$0, "PinFlag-43.0"(%rip)
	movl	$0, "PinFlag-43.1"(%rip)
	movl	$0, "PinFlag-43.2"(%rip)
	movl	$0, "PinFlag-184."(%rip)
	movl	$0, "PinFlag-185."(%rip)
	movl	$0, "PinFlag-186."(%rip)
	movl	$0, "PinFlag-44."(%rip)
	movl	$0, "PinFlag-187."(%rip)
	movl	$0, "PinFlag-188."(%rip)
	movl	$0, "PinFlag-45."(%rip)
	movl	$0, "PinFlag-189."(%rip)
	movl	$0, "PinFlag-47."(%rip)
	movl	$0, "PinFlag-47.0"(%rip)
	movl	$0, "PinFlag-47.00"(%rip)
	movl	$0, "PinFlag-47.01"(%rip)
	movl	$0, "PinFlag-47.02"(%rip)
	movl	$0, "PinFlag-47.03"(%rip)
	movl	$0, "PinFlag-47.04"(%rip)
	movl	$0, "PinFlag-47.1"(%rip)
	movl	$0, "PinFlag-47.10"(%rip)
	movl	$0, "PinFlag-47.11"(%rip)
	movl	$0, "PinFlag-47.12"(%rip)
	movl	$0, "PinFlag-47.13"(%rip)
	movl	$0, "PinFlag-47.14"(%rip)
	movl	$0, "PinFlag-47.2"(%rip)
	movl	$0, "PinFlag-47.3"(%rip)
	movl	$0, "PinFlag-47.30"(%rip)
	movl	$0, "PinFlag-190."(%rip)
	movl	$0, "PinFlag-48."(%rip)
	movl	$0, "PinFlag-49."(%rip)
	movl	$0, "PinFlag-49.0"(%rip)
	movl	$0, "PinFlag-50."(%rip)
	movl	$0, "PinFlag-191."(%rip)
	movl	$0, "PinFlag-192."(%rip)
	movl	$0, "PinFlag-55."(%rip)
	movl	$0, "PinFlag-56."(%rip)
	movl	$0, "PinFlag-57."(%rip)
	movl	$0, "PinFlag-58."(%rip)
	movl	$0, "PinFlag-59."(%rip)
	movl	$0, "PinFlag-60."(%rip)
	movl	$0, "PinFlag-61."(%rip)
	movl	$0, "PinFlag-62."(%rip)
	movl	$0, "PinFlag-63."(%rip)
	movl	$0, "PinFlag-63.0"(%rip)
	movl	$0, "PinFlag-63.1"(%rip)
	movl	$0, "PinFlag-67."(%rip)
	movl	$0, "PinFlag-68."(%rip)
	movl	$0, "PinFlag-69."(%rip)
	movl	$0, "PinFlag-70."(%rip)
	movl	$0, "PinFlag-71."(%rip)
	movl	$0, "PinFlag-72."(%rip)
	movl	$0, "PinFlag-73."(%rip)
	movl	$0, "PinFlag-74."(%rip)
	movl	$0, "PinFlag-75."(%rip)
	movl	$0, "PinFlag-76."(%rip)
	movl	$0, "PinFlag-77."(%rip)
	movl	$0, "PinFlag-193."(%rip)
	movl	$0, "PinFlag-194."(%rip)
	movl	$0, "PinFlag-195."(%rip)
	movl	$0, "PinFlag-196."(%rip)
	movl	$0, "PinFlag-78."(%rip)
	movl	$0, "PinFlag-79."(%rip)
	movl	$0, "PinFlag-80."(%rip)
	movl	$0, "PinFlag-81."(%rip)
	movl	$0, "PinFlag-197."(%rip)
	movl	$0, "PinFlag-198."(%rip)
	movl	$0, "PinFlag-82."(%rip)
	movl	$0, "PinFlag-82.0"(%rip)
	movl	$0, "PinFlag-82.00"(%rip)
	movl	$0, "PinFlag-82.1"(%rip)
	movl	$0, "PinFlag-82.10"(%rip)
	movl	$0, "PinFlag-82.2"(%rip)
	movl	$0, "PinFlag-82.3"(%rip)
	movl	$0, "PinFlag-82.4"(%rip)
	movl	$0, "PinFlag-82.5"(%rip)
	movl	$0, "PinFlag-82.6"(%rip)
	movl	$0, "PinFlag-82.7"(%rip)
	movl	$0, "PinFlag-82.8"(%rip)
	movl	$0, "PinFlag-82.9"(%rip)
	movl	$0, "PinFlag-83."(%rip)
	movl	$0, "PinFlag-83.0"(%rip)
	movl	$0, "PinFlag-83.00"(%rip)
	movl	$0, "PinFlag-83.01"(%rip)
	movl	$0, "PinFlag-85."(%rip)
	movl	$0, "PinFlag-85.0"(%rip)
	movl	$0, "PinFlag-87."(%rip)
	movl	$0, "PinFlag-87.0"(%rip)
	movl	$0, "PinFlag-88."(%rip)
	movl	$0, "PinFlag-89."(%rip)
	movl	$0, "PinFlag-89.0"(%rip)
	movl	$0, "PinFlag-89.1"(%rip)
	movl	$0, "PinFlag-91."(%rip)
	movl	$0, "PinFlag-91.0"(%rip)
	movl	$0, "PinFlag-91.1"(%rip)
	movl	$0, "PinFlag-92."(%rip)
	movl	$0, "PinFlag-95."(%rip)
	movl	$0, "PinFlag-95.0"(%rip)
	movl	$0, "PinFlag-95.1"(%rip)
	movl	$0, "PinFlag-95.2"(%rip)
	movl	$0, "PinFlag-95.20"(%rip)
	movl	$0, "PinFlag-95.21"(%rip)
	movl	$0, "PinFlag-95.210"(%rip)
	movl	$0, "PinFlag-95.211"(%rip)
	movl	$0, "PinFlag-95.22"(%rip)
	movl	$0, "PinFlag-95.23"(%rip)
	movl	$0, "PinFlag-95.3"(%rip)
	movl	$0, "PinFlag-95.4"(%rip)
	movl	$0, "PinFlag-96."(%rip)
	movl	$0, "PinFlag-96.0"(%rip)
	movl	$0, "PinFlag-96.1"(%rip)
	movl	$0, "PinFlag-96.2"(%rip)
	movl	$0, "PinFlag-97."(%rip)
	movl	$0, "PinFlag-97.0"(%rip)
	movl	$0, "PinFlag-199."(%rip)
	movl	$0, "PinFlag-200."(%rip)
	movl	$0, "PinFlag-201."(%rip)
	movl	$0, "PinFlag-202."(%rip)
	movl	$0, "PinFlag-203."(%rip)
	movl	$0, "PinFlag-204."(%rip)
	movl	$0, "PinFlag-205."(%rip)
	movl	$0, "PinFlag-206."(%rip)
	movl	$0, "PinFlag-207."(%rip)
	movl	$0, "PinFlag-208."(%rip)
	movl	$0, "PinFlag-209."(%rip)
	movl	$0, "PinFlag-210."(%rip)
	movl	$0, "PinFlag-211."(%rip)
	movl	$0, "PinFlag-212."(%rip)
	movl	$0, "PinFlag-213."(%rip)
	movl	$0, "PinFlag-214."(%rip)
	movl	$0, "PinFlag-215."(%rip)
	movl	$0, "PinFlag-216."(%rip)
	movl	$0, "PinFlag-217."(%rip)
	movl	$0, "PinFlag-218."(%rip)
	movl	$0, "PinFlag-219."(%rip)
	movl	$0, "PinFlag-220."(%rip)
	movl	$0, "PinFlag-221."(%rip)
	movl	$0, "PinFlag-222."(%rip)
	movl	$0, "PinFlag-223."(%rip)
	movl	$0, "PinFlag-224."(%rip)
	movl	$0, "PinFlag-225."(%rip)
	movl	$0, "PinFlag-226."(%rip)
	movl	$0, "PinFlag-227."(%rip)
	movl	$0, "PinFlag-228."(%rip)
	movl	$0, "PinFlag-229."(%rip)
	movl	$0, "PinFlag-230."(%rip)
	movl	$0, "PinFlag-231."(%rip)
	movl	$0, "PinFlag-232."(%rip)
	movl	$0, "PinFlag-233."(%rip)
	movl	$0, "PinFlag-234."(%rip)
	movl	$0, "PinFlag-235."(%rip)
	movl	$0, "PinFlag-236."(%rip)
	movl	$0, "PinFlag-237."(%rip)
	movl	$0, "PinFlag-238."(%rip)
	movl	$0, "PinFlag-239."(%rip)
	movl	$0, "PinFlag-240."(%rip)
	movl	$0, "PinFlag-241."(%rip)
	movl	$0, "PinFlag-242."(%rip)
	movl	$0, "PinFlag-243."(%rip)
	movl	$0, "PinFlag-244."(%rip)
	movl	$0, "PinFlag-245."(%rip)
	movl	$0, "PinFlag-246."(%rip)
	movl	$0, "PinFlag-247."(%rip)
	movl	$0, "PinFlag-248."(%rip)
	movl	$0, "PinFlag-249."(%rip)
	movl	$0, "PinFlag-250."(%rip)
	movl	$0, "PinFlag-251."(%rip)
	movl	$0, "PinFlag-252."(%rip)
	movl	$0, "PinFlag-253."(%rip)
	movl	$0, "PinFlag-254."(%rip)
	movl	$0, "PinFlag-255."(%rip)
	movl	$0, "PinFlag-256."(%rip)
	movl	$0, "PinFlag-257."(%rip)
	movl	$0, "PinFlag-258."(%rip)
	movl	$0, "PinFlag-259."(%rip)
	movl	$0, "PinFlag-260."(%rip)
	movl	$0, "PinFlag-261."(%rip)
	movl	$0, "PinFlag-262."(%rip)
	movl	$0, "PinFlag-263."(%rip)
	movl	$0, "PinFlag-264."(%rip)
	movl	$0, "PinFlag-265."(%rip)
	movl	$0, "PinFlag-266."(%rip)
	movl	$0, "PinFlag-267."(%rip)
	movl	$0, "PinFlag-268."(%rip)
	movl	$0, "PinFlag-269."(%rip)
	movl	$0, "PinFlag-270."(%rip)
	movl	$0, "PinFlag-271."(%rip)
	movl	$0, "PinFlag-272."(%rip)
	movl	$0, "PinFlag-273."(%rip)
	movl	$0, "PinFlag-274."(%rip)
	movl	$0, "PinFlag-275."(%rip)
	movl	$0, "PinFlag-276."(%rip)
	movl	$0, "PinFlag-277."(%rip)
	movl	$0, "PinFlag-278."(%rip)
	movl	$0, "PinFlag-279."(%rip)
	movl	$0, "PinFlag-280."(%rip)
	movl	$0, "PinFlag-281."(%rip)
	movl	$0, "PinFlag-282."(%rip)
	movl	$0, "PinFlag-283."(%rip)
	movl	$0, "PinFlag-284."(%rip)
	movl	$0, "PinFlag-285."(%rip)
	movl	$0, "PinFlag-286."(%rip)
	movl	$0, "PinFlag-287."(%rip)
	movl	$0, "PinFlag-288."(%rip)
	movl	$0, "PinFlag-289."(%rip)
	movl	$0, "PinFlag-290."(%rip)
	movl	$0, "PinFlag-291."(%rip)
	movl	$0, "PinFlag-292."(%rip)
	movl	$0, "PinFlag-293."(%rip)
	movl	$0, "PinFlag-294."(%rip)
	movl	$0, "PinFlag-295."(%rip)
	movl	$0, "PinFlag-296."(%rip)
	movl	$0, "PinFlag-297."(%rip)
	movl	$0, "PinFlag-298."(%rip)
	movl	$0, "PinFlag-299."(%rip)
	movl	$0, "PinFlag-300."(%rip)
	movl	$0, "PinFlag-301."(%rip)
	movl	$0, "PinFlag-302."(%rip)
	movl	$0, "PinFlag-303."(%rip)
	movl	$0, "PinFlag-304."(%rip)
	movl	$0, "PinFlag-305."(%rip)
	movl	$0, "PinFlag-98."(%rip)
	movl	$0, "PinFlag-306."(%rip)
	movl	$0, "PinFlag-100."(%rip)
	movl	$0, "PinFlag-101."(%rip)
	movl	$0, "PinFlag-102."(%rip)
	movl	$0, "PinFlag-103."(%rip)
	movl	$0, "PinFlag-104."(%rip)
	movl	$0, "PinFlag-105."(%rip)
	movl	$0, "PinFlag-106."(%rip)
	movl	$0, "PinFlag-107."(%rip)
	movl	$0, "PinFlag-108."(%rip)
	movl	$0, "PinFlag-109."(%rip)
	movl	$0, "PinFlag-110."(%rip)
	movl	$0, "PinFlag-110.0"(%rip)
	movl	$0, "PinFlag-111."(%rip)
	movl	$0, "PinFlag-112."(%rip)
	movl	$0, "PinFlag-113."(%rip)
	movl	$0, "PinFlag-114."(%rip)
	movl	$0, "PinFlag-115."(%rip)
	movl	$0, "PinFlag-116."(%rip)
	movl	$0, "PinFlag-117."(%rip)
	movl	$0, "PinFlag-120."(%rip)
	movl	$0, "PinFlag-122."(%rip)
	movl	$0, "PinFlag-123."(%rip)
	movl	$0, "PinFlag-124."(%rip)
	movl	$0, "PinFlag-125."(%rip)
	movl	$0, "PinFlag-126."(%rip)
	movl	$0, "PinFlag-127."(%rip)
	movl	$0, "PinFlag-128."(%rip)
	movl	$0, "PinFlag-129."(%rip)
	movl	$0, "PinFlag-130."(%rip)
	movl	$0, "PinFlag-131."(%rip)
	movl	$0, "PinFlag-132."(%rip)
	movl	$0, "PinFlag-133."(%rip)
	movl	$0, "PinFlag-134."(%rip)
	movl	$0, "PinFlag-136."(%rip)
	movl	$0, "PinFlag-136.0"(%rip)
	movl	$0, "PinFlag-136.1"(%rip)
	movl	$0, "PinFlag-138."(%rip)
	movl	$0, "PinFlag-138.0"(%rip)
	movl	$0, "PinFlag-138.1"(%rip)
	movl	$0, "PinFlag-140."(%rip)
	movl	$0, "PinFlag-141."(%rip)
	movl	$0, "PinFlag-142."(%rip)
	movl	$0, "PinFlag-143."(%rip)
	movl	$0, "PinFlag-144."(%rip)
	movl	$0, "PinFlag-145."(%rip)
	movl	$0, "PinFlag-146."(%rip)
	movl	$0, "PinFlag-147."(%rip)
	movl	$0, "PinFlag-148."(%rip)
	movl	$0, "PinFlag-149."(%rip)
	movl	$0, "PinFlag-150."(%rip)
	movl	$0, "PinFlag-151."(%rip)
	movl	$0, "PinFlag-152."(%rip)
	movl	$0, "PinFlag-153."(%rip)
	movl	$0, "PinFlag-154."(%rip)
	movl	$0, "PinFlag-155."(%rip)
	movl	$0, "PinFlag-156."(%rip)
	movl	$0, "PinFlag-157."(%rip)
	movl	$0, "PinFlag-158."(%rip)
	movl	$0, "PinFlag-159."(%rip)
	movl	$0, "PinFlag-160."(%rip)
	movl	$0, "PinFlag-99."(%rip)
	movl	$0, "PinFlag-307."(%rip)
	movl	$0, "PinFlag-308."(%rip)
	movl	$0, "PinFlag-161."(%rip)
	movl	$0, "PinFlag-161.0"(%rip)
	movl	$0, "PinFlag-161.1"(%rip)
	movl	$0, "PinFlag-161.10"(%rip)
	movl	$0, "PinFlag-161.11"(%rip)
	movl	$0, "PinFlag-161.12"(%rip)
	movl	$0, "PinFlag-161.2"(%rip)
	movl	$0, "PinFlag-161.3"(%rip)
	movl	$0, "PinFlag-161.30"(%rip)
	movl	$0, "PinFlag-161.31"(%rip)
	movl	$0, "PinFlag-161.4"(%rip)
	movl	$0, "PinFlag-161.5"(%rip)
	movl	$0, "PinFlag-309."(%rip)
	movl	$0, "PinFlag-310."(%rip)
	movl	$0, "PinFlag-311."(%rip)
	movl	$0, "PinFlag-312."(%rip)
	movl	$0, "PinFlag-313."(%rip)
	movl	$0, "PinFlag-164."(%rip)
	movl	$0, "PinFlag-164.0"(%rip)
	movl	$0, "PinFlag-314."(%rip)
	movl	$0, "PinFlag-315."(%rip)
	movl	$0, "PinFlag-316."(%rip)
	movl	$0, "PinFlag-165."(%rip)
	movl	$0, "PinFlag-166."(%rip)
	movl	$0, "PinFlag-167."(%rip)
	movl	$0, "PinFlag-168."(%rip)
	movl	$0, "PinFlag-169."(%rip)
	movl	$0, "PinFlag-169.0"(%rip)
	movl	$319, %edi              # imm = 0x13F
	callq	UnPin
	movl	$0, "PinFlag-319."(%rip)
.LBB13_31:                              # %for.end99
	movl	$.L.str.33, %edi
	xorl	%eax, %eax
	movl	%r14d, %esi
	callq	printf
	callq	PinFree
	xorl	%eax, %eax
	addq	$8, %rsp
	popq	%rbx
	popq	%r12
	popq	%r13
	popq	%r14
	popq	%r15
	popq	%rbp
	retq
.LBB13_50:                              # %if.then84
	movl	$.L.str.31, %edi
	xorl	%eax, %eax
	movl	%r14d, %esi
	callq	printf
	xorl	%edi, %edi
	callq	exit
	movl	$0, "PinFlag-171."(%rip)
	movl	$0, "PinFlag-172."(%rip)
	movl	$0, "PinFlag-14."(%rip)
	movl	$0, "PinFlag-14.0"(%rip)
	movl	$0, "PinFlag-14.00"(%rip)
	movl	$0, "PinFlag-14.000"(%rip)
	movl	$0, "PinFlag-14.0000"(%rip)
	movl	$0, "PinFlag-14.00000"(%rip)
	movl	$0, "PinFlag-14.000000"(%rip)
	movl	$0, "PinFlag-14.00001"(%rip)
	movl	$0, "PinFlag-14.000010"(%rip)
	movl	$0, "PinFlag-14.001"(%rip)
	movl	$0, "PinFlag-14.0010"(%rip)
	movl	$0, "PinFlag-14.00100"(%rip)
	movl	$0, "PinFlag-14.001000"(%rip)
	movl	$0, "PinFlag-14.00101"(%rip)
	movl	$0, "PinFlag-14.001010"(%rip)
	movl	$0, "PinFlag-14.002"(%rip)
	movl	$0, "PinFlag-14.003"(%rip)
	movl	$0, "PinFlag-14.004"(%rip)
	movl	$0, "PinFlag-14.005"(%rip)
	movl	$0, "PinFlag-14.006"(%rip)
	movl	$0, "PinFlag-14.007"(%rip)
	movl	$0, "PinFlag-14.0070"(%rip)
	movl	$0, "PinFlag-14.00700"(%rip)
	movl	$0, "PinFlag-14.00701"(%rip)
	movl	$0, "PinFlag-14.00702"(%rip)
	movl	$0, "PinFlag-14.1"(%rip)
	movl	$0, "PinFlag-14.2"(%rip)
	movl	$0, "PinFlag-14.3"(%rip)
	movl	$0, "PinFlag-14.4"(%rip)
	movl	$0, "PinFlag-14.5"(%rip)
	movl	$0, "PinFlag-14.6"(%rip)
	movl	$0, "PinFlag-15."(%rip)
	movl	$0, "PinFlag-15.0"(%rip)
	movl	$0, "PinFlag-15.00"(%rip)
	movl	$0, "PinFlag-17."(%rip)
	movl	$0, "PinFlag-18."(%rip)
	movl	$0, "PinFlag-19."(%rip)
	movl	$0, "PinFlag-20."(%rip)
	movl	$0, "PinFlag-21."(%rip)
	movl	$0, "PinFlag-22."(%rip)
	movl	$0, "PinFlag-23."(%rip)
	movl	$0, "PinFlag-173."(%rip)
	movl	$0, "PinFlag-174."(%rip)
	movl	$0, "PinFlag-175."(%rip)
	movl	$0, "PinFlag-176."(%rip)
	movl	$0, "PinFlag-24."(%rip)
	movl	$0, "PinFlag-24.0"(%rip)
	movl	$0, "PinFlag-24.1"(%rip)
	movl	$0, "PinFlag-26."(%rip)
	movl	$0, "PinFlag-26.0"(%rip)
	movl	$0, "PinFlag-26.1"(%rip)
	movl	$0, "PinFlag-26.10"(%rip)
	movl	$0, "PinFlag-26.100"(%rip)
	movl	$0, "PinFlag-26.101"(%rip)
	movl	$0, "PinFlag-26.102"(%rip)
	movl	$0, "PinFlag-26.103"(%rip)
	movl	$0, "PinFlag-26.104"(%rip)
	movl	$0, "PinFlag-26.11"(%rip)
	movl	$0, "PinFlag-26.110"(%rip)
	movl	$0, "PinFlag-26.1100"(%rip)
	movl	$0, "PinFlag-26.11000"(%rip)
	movl	$0, "PinFlag-26.1101"(%rip)
	movl	$0, "PinFlag-26.11010"(%rip)
	movl	$0, "PinFlag-26.111"(%rip)
	movl	$0, "PinFlag-26.1110"(%rip)
	movl	$0, "PinFlag-26.11100"(%rip)
	movl	$0, "PinFlag-26.1111"(%rip)
	movl	$0, "PinFlag-26.11110"(%rip)
	movl	$0, "PinFlag-26.112"(%rip)
	movl	$0, "PinFlag-26.113"(%rip)
	movl	$0, "PinFlag-26.114"(%rip)
	movl	$0, "PinFlag-26.115"(%rip)
	movl	$0, "PinFlag-26.12"(%rip)
	movl	$0, "PinFlag-27."(%rip)
	movl	$0, "PinFlag-28."(%rip)
	movl	$0, "PinFlag-29."(%rip)
	movl	$0, "PinFlag-30."(%rip)
	movl	$0, "PinFlag-31."(%rip)
	movl	$0, "PinFlag-32."(%rip)
	movl	$0, "PinFlag-177."(%rip)
	movl	$0, "PinFlag-178."(%rip)
	movl	$0, "PinFlag-179."(%rip)
	movl	$0, "PinFlag-180."(%rip)
	movl	$0, "PinFlag-181."(%rip)
	movl	$0, "PinFlag-182."(%rip)
	movl	$0, "PinFlag-33."(%rip)
	movl	$0, "PinFlag-39."(%rip)
	movl	$0, "PinFlag-39.0"(%rip)
	movl	$0, "PinFlag-39.1"(%rip)
	movl	$0, "PinFlag-39.2"(%rip)
	movl	$0, "PinFlag-39.3"(%rip)
	movl	$0, "PinFlag-183."(%rip)
	movl	$0, "PinFlag-43."(%rip)
	movl	$0, "PinFlag-43.0"(%rip)
	movl	$0, "PinFlag-43.1"(%rip)
	movl	$0, "PinFlag-43.2"(%rip)
	movl	$0, "PinFlag-184."(%rip)
	movl	$0, "PinFlag-185."(%rip)
	movl	$0, "PinFlag-186."(%rip)
	movl	$0, "PinFlag-44."(%rip)
	movl	$0, "PinFlag-187."(%rip)
	movl	$0, "PinFlag-188."(%rip)
	movl	$0, "PinFlag-45."(%rip)
	movl	$0, "PinFlag-189."(%rip)
	movl	$0, "PinFlag-47."(%rip)
	movl	$0, "PinFlag-47.0"(%rip)
	movl	$0, "PinFlag-47.00"(%rip)
	movl	$0, "PinFlag-47.01"(%rip)
	movl	$0, "PinFlag-47.02"(%rip)
	movl	$0, "PinFlag-47.03"(%rip)
	movl	$0, "PinFlag-47.04"(%rip)
	movl	$0, "PinFlag-47.1"(%rip)
	movl	$0, "PinFlag-47.10"(%rip)
	movl	$0, "PinFlag-47.11"(%rip)
	movl	$0, "PinFlag-47.12"(%rip)
	movl	$0, "PinFlag-47.13"(%rip)
	movl	$0, "PinFlag-47.14"(%rip)
	movl	$0, "PinFlag-47.2"(%rip)
	movl	$0, "PinFlag-47.3"(%rip)
	movl	$0, "PinFlag-47.30"(%rip)
	movl	$0, "PinFlag-190."(%rip)
	movl	$0, "PinFlag-48."(%rip)
	movl	$0, "PinFlag-49."(%rip)
	movl	$0, "PinFlag-49.0"(%rip)
	movl	$0, "PinFlag-50."(%rip)
	movl	$0, "PinFlag-191."(%rip)
	movl	$0, "PinFlag-192."(%rip)
	movl	$0, "PinFlag-55."(%rip)
	movl	$0, "PinFlag-56."(%rip)
	movl	$0, "PinFlag-57."(%rip)
	movl	$0, "PinFlag-58."(%rip)
	movl	$0, "PinFlag-59."(%rip)
	movl	$0, "PinFlag-60."(%rip)
	movl	$0, "PinFlag-61."(%rip)
	movl	$0, "PinFlag-62."(%rip)
	movl	$0, "PinFlag-63."(%rip)
	movl	$0, "PinFlag-63.0"(%rip)
	movl	$0, "PinFlag-63.1"(%rip)
	movl	$0, "PinFlag-67."(%rip)
	movl	$0, "PinFlag-68."(%rip)
	movl	$0, "PinFlag-69."(%rip)
	movl	$0, "PinFlag-70."(%rip)
	movl	$0, "PinFlag-71."(%rip)
	movl	$0, "PinFlag-72."(%rip)
	movl	$0, "PinFlag-73."(%rip)
	movl	$0, "PinFlag-74."(%rip)
	movl	$0, "PinFlag-75."(%rip)
	movl	$0, "PinFlag-76."(%rip)
	movl	$0, "PinFlag-77."(%rip)
	movl	$0, "PinFlag-193."(%rip)
	movl	$0, "PinFlag-194."(%rip)
	movl	$0, "PinFlag-195."(%rip)
	movl	$0, "PinFlag-196."(%rip)
	movl	$0, "PinFlag-78."(%rip)
	movl	$0, "PinFlag-79."(%rip)
	movl	$0, "PinFlag-80."(%rip)
	movl	$0, "PinFlag-81."(%rip)
	movl	$0, "PinFlag-197."(%rip)
	movl	$0, "PinFlag-198."(%rip)
	movl	$0, "PinFlag-82."(%rip)
	movl	$0, "PinFlag-82.0"(%rip)
	movl	$0, "PinFlag-82.00"(%rip)
	movl	$0, "PinFlag-82.1"(%rip)
	movl	$0, "PinFlag-82.10"(%rip)
	movl	$0, "PinFlag-82.2"(%rip)
	movl	$0, "PinFlag-82.3"(%rip)
	movl	$0, "PinFlag-82.4"(%rip)
	movl	$0, "PinFlag-82.5"(%rip)
	movl	$0, "PinFlag-82.6"(%rip)
	movl	$0, "PinFlag-82.7"(%rip)
	movl	$0, "PinFlag-82.8"(%rip)
	movl	$0, "PinFlag-82.9"(%rip)
	movl	$0, "PinFlag-83."(%rip)
	movl	$0, "PinFlag-83.0"(%rip)
	movl	$0, "PinFlag-83.00"(%rip)
	movl	$0, "PinFlag-83.01"(%rip)
	movl	$0, "PinFlag-85."(%rip)
	movl	$0, "PinFlag-85.0"(%rip)
	movl	$0, "PinFlag-87."(%rip)
	movl	$0, "PinFlag-87.0"(%rip)
	movl	$0, "PinFlag-88."(%rip)
	movl	$0, "PinFlag-89."(%rip)
	movl	$0, "PinFlag-89.0"(%rip)
	movl	$0, "PinFlag-89.1"(%rip)
	movl	$0, "PinFlag-91."(%rip)
	movl	$0, "PinFlag-91.0"(%rip)
	movl	$0, "PinFlag-91.1"(%rip)
	movl	$0, "PinFlag-92."(%rip)
	movl	$0, "PinFlag-95."(%rip)
	movl	$0, "PinFlag-95.0"(%rip)
	movl	$0, "PinFlag-95.1"(%rip)
	movl	$0, "PinFlag-95.2"(%rip)
	movl	$0, "PinFlag-95.20"(%rip)
	movl	$0, "PinFlag-95.21"(%rip)
	movl	$0, "PinFlag-95.210"(%rip)
	movl	$0, "PinFlag-95.211"(%rip)
	movl	$0, "PinFlag-95.22"(%rip)
	movl	$0, "PinFlag-95.23"(%rip)
	movl	$0, "PinFlag-95.3"(%rip)
	movl	$0, "PinFlag-95.4"(%rip)
	movl	$0, "PinFlag-96."(%rip)
	movl	$0, "PinFlag-96.0"(%rip)
	movl	$0, "PinFlag-96.1"(%rip)
	movl	$0, "PinFlag-96.2"(%rip)
	movl	$0, "PinFlag-97."(%rip)
	movl	$0, "PinFlag-97.0"(%rip)
	movl	$0, "PinFlag-199."(%rip)
	movl	$0, "PinFlag-200."(%rip)
	movl	$0, "PinFlag-201."(%rip)
	movl	$0, "PinFlag-202."(%rip)
	movl	$0, "PinFlag-203."(%rip)
	movl	$0, "PinFlag-204."(%rip)
	movl	$0, "PinFlag-205."(%rip)
	movl	$0, "PinFlag-206."(%rip)
	movl	$0, "PinFlag-207."(%rip)
	movl	$0, "PinFlag-208."(%rip)
	movl	$0, "PinFlag-209."(%rip)
	movl	$0, "PinFlag-210."(%rip)
	movl	$0, "PinFlag-211."(%rip)
	movl	$0, "PinFlag-212."(%rip)
	movl	$0, "PinFlag-213."(%rip)
	movl	$0, "PinFlag-214."(%rip)
	movl	$0, "PinFlag-215."(%rip)
	movl	$0, "PinFlag-216."(%rip)
	movl	$0, "PinFlag-217."(%rip)
	movl	$0, "PinFlag-218."(%rip)
	movl	$0, "PinFlag-219."(%rip)
	movl	$0, "PinFlag-220."(%rip)
	movl	$0, "PinFlag-221."(%rip)
	movl	$0, "PinFlag-222."(%rip)
	movl	$0, "PinFlag-223."(%rip)
	movl	$0, "PinFlag-224."(%rip)
	movl	$0, "PinFlag-225."(%rip)
	movl	$0, "PinFlag-226."(%rip)
	movl	$0, "PinFlag-227."(%rip)
	movl	$0, "PinFlag-228."(%rip)
	movl	$0, "PinFlag-229."(%rip)
	movl	$0, "PinFlag-230."(%rip)
	movl	$0, "PinFlag-231."(%rip)
	movl	$0, "PinFlag-232."(%rip)
	movl	$0, "PinFlag-233."(%rip)
	movl	$0, "PinFlag-234."(%rip)
	movl	$0, "PinFlag-235."(%rip)
	movl	$0, "PinFlag-236."(%rip)
	movl	$0, "PinFlag-237."(%rip)
	movl	$0, "PinFlag-238."(%rip)
	movl	$0, "PinFlag-239."(%rip)
	movl	$0, "PinFlag-240."(%rip)
	movl	$0, "PinFlag-241."(%rip)
	movl	$0, "PinFlag-242."(%rip)
	movl	$0, "PinFlag-243."(%rip)
	movl	$0, "PinFlag-244."(%rip)
	movl	$0, "PinFlag-245."(%rip)
	movl	$0, "PinFlag-246."(%rip)
	movl	$0, "PinFlag-247."(%rip)
	movl	$0, "PinFlag-248."(%rip)
	movl	$0, "PinFlag-249."(%rip)
	movl	$0, "PinFlag-250."(%rip)
	movl	$0, "PinFlag-251."(%rip)
	movl	$0, "PinFlag-252."(%rip)
	movl	$0, "PinFlag-253."(%rip)
	movl	$0, "PinFlag-254."(%rip)
	movl	$0, "PinFlag-255."(%rip)
	movl	$0, "PinFlag-256."(%rip)
	movl	$0, "PinFlag-257."(%rip)
	movl	$0, "PinFlag-258."(%rip)
	movl	$0, "PinFlag-259."(%rip)
	movl	$0, "PinFlag-260."(%rip)
	movl	$0, "PinFlag-261."(%rip)
	movl	$0, "PinFlag-262."(%rip)
	movl	$0, "PinFlag-263."(%rip)
	movl	$0, "PinFlag-264."(%rip)
	movl	$0, "PinFlag-265."(%rip)
	movl	$0, "PinFlag-266."(%rip)
	movl	$0, "PinFlag-267."(%rip)
	movl	$0, "PinFlag-268."(%rip)
	movl	$0, "PinFlag-269."(%rip)
	movl	$0, "PinFlag-270."(%rip)
	movl	$0, "PinFlag-271."(%rip)
	movl	$0, "PinFlag-272."(%rip)
	movl	$0, "PinFlag-273."(%rip)
	movl	$0, "PinFlag-274."(%rip)
	movl	$0, "PinFlag-275."(%rip)
	movl	$0, "PinFlag-276."(%rip)
	movl	$0, "PinFlag-277."(%rip)
	movl	$0, "PinFlag-278."(%rip)
	movl	$0, "PinFlag-279."(%rip)
	movl	$0, "PinFlag-280."(%rip)
	movl	$0, "PinFlag-281."(%rip)
	movl	$0, "PinFlag-282."(%rip)
	movl	$0, "PinFlag-283."(%rip)
	movl	$0, "PinFlag-284."(%rip)
	movl	$0, "PinFlag-285."(%rip)
	movl	$0, "PinFlag-286."(%rip)
	movl	$0, "PinFlag-287."(%rip)
	movl	$0, "PinFlag-288."(%rip)
	movl	$0, "PinFlag-289."(%rip)
	movl	$0, "PinFlag-290."(%rip)
	movl	$0, "PinFlag-291."(%rip)
	movl	$0, "PinFlag-292."(%rip)
	movl	$0, "PinFlag-293."(%rip)
	movl	$0, "PinFlag-294."(%rip)
	movl	$0, "PinFlag-295."(%rip)
	movl	$0, "PinFlag-296."(%rip)
	movl	$0, "PinFlag-297."(%rip)
	movl	$0, "PinFlag-298."(%rip)
	movl	$0, "PinFlag-299."(%rip)
	movl	$0, "PinFlag-300."(%rip)
	movl	$0, "PinFlag-301."(%rip)
	movl	$0, "PinFlag-302."(%rip)
	movl	$0, "PinFlag-303."(%rip)
	movl	$0, "PinFlag-304."(%rip)
	movl	$0, "PinFlag-305."(%rip)
	movl	$0, "PinFlag-98."(%rip)
	movl	$0, "PinFlag-306."(%rip)
	movl	$0, "PinFlag-100."(%rip)
	movl	$0, "PinFlag-101."(%rip)
	movl	$0, "PinFlag-102."(%rip)
	movl	$0, "PinFlag-103."(%rip)
	movl	$0, "PinFlag-104."(%rip)
	movl	$0, "PinFlag-105."(%rip)
	movl	$0, "PinFlag-106."(%rip)
	movl	$0, "PinFlag-107."(%rip)
	movl	$0, "PinFlag-108."(%rip)
	movl	$0, "PinFlag-109."(%rip)
	movl	$0, "PinFlag-110."(%rip)
	movl	$0, "PinFlag-110.0"(%rip)
	movl	$0, "PinFlag-111."(%rip)
	movl	$0, "PinFlag-112."(%rip)
	movl	$0, "PinFlag-113."(%rip)
	movl	$0, "PinFlag-114."(%rip)
	movl	$0, "PinFlag-115."(%rip)
	movl	$0, "PinFlag-116."(%rip)
	movl	$0, "PinFlag-117."(%rip)
	movl	$0, "PinFlag-120."(%rip)
	movl	$0, "PinFlag-122."(%rip)
	movl	$0, "PinFlag-123."(%rip)
	movl	$0, "PinFlag-124."(%rip)
	movl	$0, "PinFlag-125."(%rip)
	movl	$0, "PinFlag-126."(%rip)
	movl	$0, "PinFlag-127."(%rip)
	movl	$0, "PinFlag-128."(%rip)
	movl	$0, "PinFlag-129."(%rip)
	movl	$0, "PinFlag-130."(%rip)
	movl	$0, "PinFlag-131."(%rip)
	movl	$0, "PinFlag-132."(%rip)
	movl	$0, "PinFlag-133."(%rip)
	movl	$0, "PinFlag-134."(%rip)
	movl	$0, "PinFlag-136."(%rip)
	movl	$0, "PinFlag-136.0"(%rip)
	movl	$0, "PinFlag-136.1"(%rip)
	movl	$0, "PinFlag-138."(%rip)
	movl	$0, "PinFlag-138.0"(%rip)
	movl	$0, "PinFlag-138.1"(%rip)
	movl	$0, "PinFlag-140."(%rip)
	movl	$0, "PinFlag-141."(%rip)
	movl	$0, "PinFlag-142."(%rip)
	movl	$0, "PinFlag-143."(%rip)
	movl	$0, "PinFlag-144."(%rip)
	movl	$0, "PinFlag-145."(%rip)
	movl	$0, "PinFlag-146."(%rip)
	movl	$0, "PinFlag-147."(%rip)
	movl	$0, "PinFlag-148."(%rip)
	movl	$0, "PinFlag-149."(%rip)
	movl	$0, "PinFlag-150."(%rip)
	movl	$0, "PinFlag-151."(%rip)
	movl	$0, "PinFlag-152."(%rip)
	movl	$0, "PinFlag-153."(%rip)
	movl	$0, "PinFlag-154."(%rip)
	movl	$0, "PinFlag-155."(%rip)
	movl	$0, "PinFlag-156."(%rip)
	movl	$0, "PinFlag-157."(%rip)
	movl	$0, "PinFlag-158."(%rip)
	movl	$0, "PinFlag-159."(%rip)
	movl	$0, "PinFlag-160."(%rip)
	movl	$0, "PinFlag-99."(%rip)
	movl	$0, "PinFlag-307."(%rip)
	movl	$0, "PinFlag-308."(%rip)
	movl	$0, "PinFlag-161."(%rip)
	movl	$0, "PinFlag-161.0"(%rip)
	movl	$0, "PinFlag-161.1"(%rip)
	movl	$0, "PinFlag-161.10"(%rip)
	movl	$0, "PinFlag-161.11"(%rip)
	movl	$0, "PinFlag-161.12"(%rip)
	movl	$0, "PinFlag-161.2"(%rip)
	movl	$0, "PinFlag-161.3"(%rip)
	movl	$0, "PinFlag-161.30"(%rip)
	movl	$0, "PinFlag-161.31"(%rip)
	movl	$0, "PinFlag-161.4"(%rip)
	movl	$0, "PinFlag-161.5"(%rip)
	movl	$0, "PinFlag-309."(%rip)
	movl	$0, "PinFlag-310."(%rip)
	movl	$0, "PinFlag-311."(%rip)
	movl	$0, "PinFlag-312."(%rip)
	movl	$0, "PinFlag-313."(%rip)
	movl	$0, "PinFlag-164."(%rip)
	movl	$0, "PinFlag-164.0"(%rip)
	movl	$0, "PinFlag-314."(%rip)
	movl	$0, "PinFlag-315."(%rip)
	movl	$0, "PinFlag-316."(%rip)
	movl	$0, "PinFlag-165."(%rip)
	movl	$0, "PinFlag-166."(%rip)
	movl	$0, "PinFlag-167."(%rip)
	movl	$0, "PinFlag-168."(%rip)
	movl	$0, "PinFlag-169."(%rip)
	movl	$0, "PinFlag-169.0"(%rip)
	movl	$318, %edi              # imm = 0x13E
	callq	UnPin
	movl	$0, "PinFlag-318.0"(%rip)
	movl	$0, "PinFlag-318."(%rip)
	callq	PinFree
.LBB13_14:                              # %if.then28
	movl	$.Lstr.42, %edi
	callq	puts
	xorl	%edi, %edi
	callq	exit
	callq	PinFree
.Lfunc_end13:
	.size	main, .Lfunc_end13-main
	.cfi_endproc

	.globl	spec_compress
	.align	16, 0x90
	.type	spec_compress,@function
spec_compress:                          # @spec_compress
	.cfi_startproc
# BB#0:                                 # %entry
	pushq	%rax
.Ltmp91:
	.cfi_def_cfa_offset 16
	movl	%edx, blockSize100k(%rip)
	callq	compressStream
	movl	$0, "PinFlag-164."(%rip)
	movl	$0, "PinFlag-164.0"(%rip)
	movl	$0, "PinFlag-313."(%rip)
	movl	$0, "PinFlag-312."(%rip)
	movl	$0, "PinFlag-311."(%rip)
	movl	$0, "PinFlag-310."(%rip)
	movl	$0, "PinFlag-309."(%rip)
	movl	$0, "PinFlag-161."(%rip)
	movl	$0, "PinFlag-161.0"(%rip)
	movl	$0, "PinFlag-161.1"(%rip)
	movl	$0, "PinFlag-161.10"(%rip)
	movl	$0, "PinFlag-161.11"(%rip)
	movl	$0, "PinFlag-161.12"(%rip)
	movl	$0, "PinFlag-161.2"(%rip)
	movl	$0, "PinFlag-161.3"(%rip)
	movl	$0, "PinFlag-161.30"(%rip)
	movl	$0, "PinFlag-161.31"(%rip)
	movl	$0, "PinFlag-161.4"(%rip)
	movl	$0, "PinFlag-161.5"(%rip)
	movl	$0, "PinFlag-308."(%rip)
	movl	$0, "PinFlag-307."(%rip)
	movl	$0, "PinFlag-98."(%rip)
	movl	$0, "PinFlag-305."(%rip)
	movl	$0, "PinFlag-304."(%rip)
	movl	$0, "PinFlag-303."(%rip)
	movl	$0, "PinFlag-302."(%rip)
	movl	$0, "PinFlag-301."(%rip)
	movl	$0, "PinFlag-300."(%rip)
	movl	$0, "PinFlag-299."(%rip)
	movl	$0, "PinFlag-298."(%rip)
	movl	$0, "PinFlag-297."(%rip)
	movl	$0, "PinFlag-296."(%rip)
	movl	$0, "PinFlag-295."(%rip)
	movl	$0, "PinFlag-294."(%rip)
	movl	$0, "PinFlag-293."(%rip)
	movl	$0, "PinFlag-292."(%rip)
	movl	$0, "PinFlag-291."(%rip)
	movl	$0, "PinFlag-290."(%rip)
	movl	$0, "PinFlag-289."(%rip)
	movl	$0, "PinFlag-288."(%rip)
	movl	$0, "PinFlag-287."(%rip)
	movl	$0, "PinFlag-286."(%rip)
	movl	$0, "PinFlag-285."(%rip)
	movl	$0, "PinFlag-284."(%rip)
	movl	$0, "PinFlag-283."(%rip)
	movl	$0, "PinFlag-282."(%rip)
	movl	$0, "PinFlag-281."(%rip)
	movl	$0, "PinFlag-280."(%rip)
	movl	$0, "PinFlag-279."(%rip)
	movl	$0, "PinFlag-278."(%rip)
	movl	$0, "PinFlag-277."(%rip)
	movl	$0, "PinFlag-276."(%rip)
	movl	$0, "PinFlag-275."(%rip)
	movl	$0, "PinFlag-274."(%rip)
	movl	$0, "PinFlag-273."(%rip)
	movl	$0, "PinFlag-272."(%rip)
	movl	$0, "PinFlag-271."(%rip)
	movl	$0, "PinFlag-270."(%rip)
	movl	$0, "PinFlag-269."(%rip)
	movl	$0, "PinFlag-268."(%rip)
	movl	$0, "PinFlag-267."(%rip)
	movl	$0, "PinFlag-266."(%rip)
	movl	$0, "PinFlag-265."(%rip)
	movl	$0, "PinFlag-264."(%rip)
	movl	$0, "PinFlag-263."(%rip)
	movl	$0, "PinFlag-262."(%rip)
	movl	$0, "PinFlag-261."(%rip)
	movl	$0, "PinFlag-260."(%rip)
	movl	$0, "PinFlag-259."(%rip)
	movl	$0, "PinFlag-258."(%rip)
	movl	$0, "PinFlag-257."(%rip)
	movl	$0, "PinFlag-256."(%rip)
	movl	$0, "PinFlag-255."(%rip)
	movl	$0, "PinFlag-254."(%rip)
	movl	$0, "PinFlag-253."(%rip)
	movl	$0, "PinFlag-252."(%rip)
	movl	$0, "PinFlag-251."(%rip)
	movl	$0, "PinFlag-250."(%rip)
	movl	$0, "PinFlag-249."(%rip)
	movl	$0, "PinFlag-248."(%rip)
	movl	$0, "PinFlag-247."(%rip)
	movl	$0, "PinFlag-246."(%rip)
	movl	$0, "PinFlag-245."(%rip)
	movl	$0, "PinFlag-244."(%rip)
	movl	$0, "PinFlag-243."(%rip)
	movl	$0, "PinFlag-242."(%rip)
	movl	$0, "PinFlag-241."(%rip)
	movl	$0, "PinFlag-240."(%rip)
	movl	$0, "PinFlag-239."(%rip)
	movl	$0, "PinFlag-238."(%rip)
	movl	$0, "PinFlag-237."(%rip)
	movl	$0, "PinFlag-236."(%rip)
	movl	$0, "PinFlag-235."(%rip)
	movl	$0, "PinFlag-234."(%rip)
	movl	$0, "PinFlag-233."(%rip)
	movl	$0, "PinFlag-232."(%rip)
	movl	$0, "PinFlag-231."(%rip)
	movl	$0, "PinFlag-230."(%rip)
	movl	$0, "PinFlag-229."(%rip)
	movl	$0, "PinFlag-228."(%rip)
	movl	$0, "PinFlag-227."(%rip)
	movl	$0, "PinFlag-226."(%rip)
	movl	$0, "PinFlag-225."(%rip)
	movl	$0, "PinFlag-224."(%rip)
	movl	$0, "PinFlag-223."(%rip)
	movl	$0, "PinFlag-222."(%rip)
	movl	$0, "PinFlag-221."(%rip)
	movl	$0, "PinFlag-220."(%rip)
	movl	$0, "PinFlag-219."(%rip)
	movl	$0, "PinFlag-218."(%rip)
	movl	$0, "PinFlag-217."(%rip)
	movl	$0, "PinFlag-216."(%rip)
	movl	$0, "PinFlag-215."(%rip)
	movl	$0, "PinFlag-214."(%rip)
	movl	$0, "PinFlag-213."(%rip)
	movl	$0, "PinFlag-212."(%rip)
	movl	$0, "PinFlag-211."(%rip)
	movl	$0, "PinFlag-210."(%rip)
	movl	$0, "PinFlag-209."(%rip)
	movl	$0, "PinFlag-208."(%rip)
	movl	$0, "PinFlag-207."(%rip)
	movl	$0, "PinFlag-206."(%rip)
	movl	$0, "PinFlag-205."(%rip)
	movl	$0, "PinFlag-204."(%rip)
	movl	$0, "PinFlag-203."(%rip)
	movl	$0, "PinFlag-202."(%rip)
	movl	$0, "PinFlag-201."(%rip)
	movl	$0, "PinFlag-200."(%rip)
	movl	$0, "PinFlag-199."(%rip)
	movl	$0, "PinFlag-82."(%rip)
	movl	$0, "PinFlag-82.0"(%rip)
	movl	$0, "PinFlag-82.00"(%rip)
	movl	$0, "PinFlag-82.1"(%rip)
	movl	$0, "PinFlag-82.10"(%rip)
	movl	$0, "PinFlag-82.2"(%rip)
	movl	$0, "PinFlag-82.3"(%rip)
	movl	$0, "PinFlag-82.4"(%rip)
	movl	$0, "PinFlag-82.5"(%rip)
	movl	$0, "PinFlag-82.6"(%rip)
	movl	$0, "PinFlag-82.7"(%rip)
	movl	$0, "PinFlag-82.8"(%rip)
	movl	$0, "PinFlag-82.9"(%rip)
	movl	$0, "PinFlag-83."(%rip)
	movl	$0, "PinFlag-83.0"(%rip)
	movl	$0, "PinFlag-83.00"(%rip)
	movl	$0, "PinFlag-83.01"(%rip)
	movl	$0, "PinFlag-85."(%rip)
	movl	$0, "PinFlag-85.0"(%rip)
	movl	$0, "PinFlag-87."(%rip)
	movl	$0, "PinFlag-87.0"(%rip)
	movl	$0, "PinFlag-88."(%rip)
	movl	$0, "PinFlag-89."(%rip)
	movl	$0, "PinFlag-89.0"(%rip)
	movl	$0, "PinFlag-89.1"(%rip)
	movl	$0, "PinFlag-91."(%rip)
	movl	$0, "PinFlag-91.0"(%rip)
	movl	$0, "PinFlag-91.1"(%rip)
	movl	$0, "PinFlag-92."(%rip)
	movl	$0, "PinFlag-95."(%rip)
	movl	$0, "PinFlag-95.0"(%rip)
	movl	$0, "PinFlag-95.1"(%rip)
	movl	$0, "PinFlag-95.2"(%rip)
	movl	$0, "PinFlag-95.20"(%rip)
	movl	$0, "PinFlag-95.21"(%rip)
	movl	$0, "PinFlag-95.210"(%rip)
	movl	$0, "PinFlag-95.211"(%rip)
	movl	$0, "PinFlag-95.22"(%rip)
	movl	$0, "PinFlag-95.23"(%rip)
	movl	$0, "PinFlag-95.3"(%rip)
	movl	$0, "PinFlag-95.4"(%rip)
	movl	$0, "PinFlag-96."(%rip)
	movl	$0, "PinFlag-96.0"(%rip)
	movl	$0, "PinFlag-96.1"(%rip)
	movl	$0, "PinFlag-96.2"(%rip)
	movl	$0, "PinFlag-97."(%rip)
	movl	$0, "PinFlag-97.0"(%rip)
	movl	$0, "PinFlag-198."(%rip)
	movl	$0, "PinFlag-197."(%rip)
	movl	$0, "PinFlag-78."(%rip)
	movl	$0, "PinFlag-79."(%rip)
	movl	$0, "PinFlag-80."(%rip)
	movl	$0, "PinFlag-81."(%rip)
	movl	$0, "PinFlag-196."(%rip)
	movl	$0, "PinFlag-195."(%rip)
	movl	$0, "PinFlag-194."(%rip)
	movl	$0, "PinFlag-193."(%rip)
	movl	$0, "PinFlag-55."(%rip)
	movl	$0, "PinFlag-56."(%rip)
	movl	$0, "PinFlag-57."(%rip)
	movl	$0, "PinFlag-58."(%rip)
	movl	$0, "PinFlag-59."(%rip)
	movl	$0, "PinFlag-60."(%rip)
	movl	$0, "PinFlag-61."(%rip)
	movl	$0, "PinFlag-62."(%rip)
	movl	$0, "PinFlag-63."(%rip)
	movl	$0, "PinFlag-63.0"(%rip)
	movl	$0, "PinFlag-63.1"(%rip)
	movl	$0, "PinFlag-67."(%rip)
	movl	$0, "PinFlag-68."(%rip)
	movl	$0, "PinFlag-69."(%rip)
	movl	$0, "PinFlag-70."(%rip)
	movl	$0, "PinFlag-71."(%rip)
	movl	$0, "PinFlag-72."(%rip)
	movl	$0, "PinFlag-73."(%rip)
	movl	$0, "PinFlag-74."(%rip)
	movl	$0, "PinFlag-75."(%rip)
	movl	$0, "PinFlag-76."(%rip)
	movl	$0, "PinFlag-77."(%rip)
	movl	$0, "PinFlag-192."(%rip)
	movl	$0, "PinFlag-191."(%rip)
	movl	$0, "PinFlag-49."(%rip)
	movl	$0, "PinFlag-49.0"(%rip)
	movl	$0, "PinFlag-48."(%rip)
	movl	$0, "PinFlag-190."(%rip)
	movl	$0, "PinFlag-44."(%rip)
	movl	$0, "PinFlag-186."(%rip)
	movl	$0, "PinFlag-185."(%rip)
	movl	$0, "PinFlag-184."(%rip)
	movl	$0, "PinFlag-43."(%rip)
	movl	$0, "PinFlag-43.0"(%rip)
	movl	$0, "PinFlag-43.1"(%rip)
	movl	$0, "PinFlag-43.2"(%rip)
	movl	$0, "PinFlag-183."(%rip)
	movl	$0, "PinFlag-33."(%rip)
	movl	$0, "PinFlag-182."(%rip)
	movl	$0, "PinFlag-181."(%rip)
	movl	$0, "PinFlag-180."(%rip)
	movl	$0, "PinFlag-179."(%rip)
	movl	$0, "PinFlag-178."(%rip)
	movl	$0, "PinFlag-177."(%rip)
	movl	$0, "PinFlag-24."(%rip)
	movl	$0, "PinFlag-24.0"(%rip)
	movl	$0, "PinFlag-24.1"(%rip)
	movl	$0, "PinFlag-26."(%rip)
	movl	$0, "PinFlag-26.0"(%rip)
	movl	$0, "PinFlag-26.1"(%rip)
	movl	$0, "PinFlag-26.10"(%rip)
	movl	$0, "PinFlag-26.100"(%rip)
	movl	$0, "PinFlag-26.101"(%rip)
	movl	$0, "PinFlag-26.102"(%rip)
	movl	$0, "PinFlag-26.103"(%rip)
	movl	$0, "PinFlag-26.104"(%rip)
	movl	$0, "PinFlag-26.11"(%rip)
	movl	$0, "PinFlag-26.110"(%rip)
	movl	$0, "PinFlag-26.1100"(%rip)
	movl	$0, "PinFlag-26.11000"(%rip)
	movl	$0, "PinFlag-26.1101"(%rip)
	movl	$0, "PinFlag-26.11010"(%rip)
	movl	$0, "PinFlag-26.111"(%rip)
	movl	$0, "PinFlag-26.1110"(%rip)
	movl	$0, "PinFlag-26.11100"(%rip)
	movl	$0, "PinFlag-26.1111"(%rip)
	movl	$0, "PinFlag-26.11110"(%rip)
	movl	$0, "PinFlag-26.112"(%rip)
	movl	$0, "PinFlag-26.113"(%rip)
	movl	$0, "PinFlag-26.114"(%rip)
	movl	$0, "PinFlag-26.115"(%rip)
	movl	$0, "PinFlag-26.12"(%rip)
	movl	$0, "PinFlag-27."(%rip)
	movl	$0, "PinFlag-28."(%rip)
	movl	$0, "PinFlag-29."(%rip)
	movl	$0, "PinFlag-30."(%rip)
	movl	$0, "PinFlag-31."(%rip)
	movl	$0, "PinFlag-32."(%rip)
	movl	$0, "PinFlag-176."(%rip)
	movl	$0, "PinFlag-175."(%rip)
	movl	$0, "PinFlag-174."(%rip)
	movl	$0, "PinFlag-173."(%rip)
	movl	$0, "PinFlag-14."(%rip)
	movl	$0, "PinFlag-14.0"(%rip)
	movl	$0, "PinFlag-14.00"(%rip)
	movl	$0, "PinFlag-14.000"(%rip)
	movl	$0, "PinFlag-14.0000"(%rip)
	movl	$0, "PinFlag-14.00000"(%rip)
	movl	$0, "PinFlag-14.000000"(%rip)
	movl	$0, "PinFlag-14.00001"(%rip)
	movl	$0, "PinFlag-14.000010"(%rip)
	movl	$0, "PinFlag-14.001"(%rip)
	movl	$0, "PinFlag-14.0010"(%rip)
	movl	$0, "PinFlag-14.00100"(%rip)
	movl	$0, "PinFlag-14.001000"(%rip)
	movl	$0, "PinFlag-14.00101"(%rip)
	movl	$0, "PinFlag-14.001010"(%rip)
	movl	$0, "PinFlag-14.002"(%rip)
	movl	$0, "PinFlag-14.003"(%rip)
	movl	$0, "PinFlag-14.004"(%rip)
	movl	$0, "PinFlag-14.005"(%rip)
	movl	$0, "PinFlag-14.006"(%rip)
	movl	$0, "PinFlag-14.007"(%rip)
	movl	$0, "PinFlag-14.0070"(%rip)
	movl	$0, "PinFlag-14.00700"(%rip)
	movl	$0, "PinFlag-14.00701"(%rip)
	movl	$0, "PinFlag-14.00702"(%rip)
	movl	$0, "PinFlag-14.1"(%rip)
	movl	$0, "PinFlag-14.2"(%rip)
	movl	$0, "PinFlag-14.3"(%rip)
	movl	$0, "PinFlag-14.4"(%rip)
	movl	$0, "PinFlag-14.5"(%rip)
	movl	$0, "PinFlag-14.6"(%rip)
	movl	$0, "PinFlag-15."(%rip)
	movl	$0, "PinFlag-15.0"(%rip)
	movl	$0, "PinFlag-15.00"(%rip)
	movl	$0, "PinFlag-17."(%rip)
	movl	$0, "PinFlag-18."(%rip)
	movl	$0, "PinFlag-19."(%rip)
	movl	$0, "PinFlag-20."(%rip)
	movl	$0, "PinFlag-21."(%rip)
	movl	$0, "PinFlag-22."(%rip)
	movl	$0, "PinFlag-23."(%rip)
	movl	$0, "PinFlag-172."(%rip)
	movl	$0, "PinFlag-171."(%rip)
	popq	%rax
	retq
.Lfunc_end14:
	.size	spec_compress, .Lfunc_end14-spec_compress
	.cfi_endproc

	.globl	spec_uncompress
	.align	16, 0x90
	.type	spec_uncompress,@function
spec_uncompress:                        # @spec_uncompress
	.cfi_startproc
# BB#0:                                 # %entry
	pushq	%rax
.Ltmp92:
	.cfi_def_cfa_offset 16
	movl	$0, blockSize100k(%rip)
	callq	uncompressStream
	movl	$0, "PinFlag-165."(%rip)
	movl	$0, "PinFlag-166."(%rip)
	movl	$0, "PinFlag-167."(%rip)
	movl	$0, "PinFlag-168."(%rip)
	movl	$0, "PinFlag-169."(%rip)
	movl	$0, "PinFlag-169.0"(%rip)
	movl	$0, "PinFlag-316."(%rip)
	movl	$0, "PinFlag-315."(%rip)
	movl	$0, "PinFlag-314."(%rip)
	movl	$0, "PinFlag-100."(%rip)
	movl	$0, "PinFlag-101."(%rip)
	movl	$0, "PinFlag-102."(%rip)
	movl	$0, "PinFlag-103."(%rip)
	movl	$0, "PinFlag-104."(%rip)
	movl	$0, "PinFlag-105."(%rip)
	movl	$0, "PinFlag-106."(%rip)
	movl	$0, "PinFlag-107."(%rip)
	movl	$0, "PinFlag-108."(%rip)
	movl	$0, "PinFlag-109."(%rip)
	movl	$0, "PinFlag-110."(%rip)
	movl	$0, "PinFlag-110.0"(%rip)
	movl	$0, "PinFlag-111."(%rip)
	movl	$0, "PinFlag-112."(%rip)
	movl	$0, "PinFlag-113."(%rip)
	movl	$0, "PinFlag-114."(%rip)
	movl	$0, "PinFlag-115."(%rip)
	movl	$0, "PinFlag-116."(%rip)
	movl	$0, "PinFlag-117."(%rip)
	movl	$0, "PinFlag-120."(%rip)
	movl	$0, "PinFlag-122."(%rip)
	movl	$0, "PinFlag-123."(%rip)
	movl	$0, "PinFlag-124."(%rip)
	movl	$0, "PinFlag-125."(%rip)
	movl	$0, "PinFlag-126."(%rip)
	movl	$0, "PinFlag-127."(%rip)
	movl	$0, "PinFlag-128."(%rip)
	movl	$0, "PinFlag-129."(%rip)
	movl	$0, "PinFlag-130."(%rip)
	movl	$0, "PinFlag-131."(%rip)
	movl	$0, "PinFlag-132."(%rip)
	movl	$0, "PinFlag-133."(%rip)
	movl	$0, "PinFlag-134."(%rip)
	movl	$0, "PinFlag-136."(%rip)
	movl	$0, "PinFlag-136.0"(%rip)
	movl	$0, "PinFlag-136.1"(%rip)
	movl	$0, "PinFlag-138."(%rip)
	movl	$0, "PinFlag-138.0"(%rip)
	movl	$0, "PinFlag-138.1"(%rip)
	movl	$0, "PinFlag-140."(%rip)
	movl	$0, "PinFlag-141."(%rip)
	movl	$0, "PinFlag-142."(%rip)
	movl	$0, "PinFlag-143."(%rip)
	movl	$0, "PinFlag-144."(%rip)
	movl	$0, "PinFlag-145."(%rip)
	movl	$0, "PinFlag-146."(%rip)
	movl	$0, "PinFlag-147."(%rip)
	movl	$0, "PinFlag-148."(%rip)
	movl	$0, "PinFlag-149."(%rip)
	movl	$0, "PinFlag-150."(%rip)
	movl	$0, "PinFlag-151."(%rip)
	movl	$0, "PinFlag-152."(%rip)
	movl	$0, "PinFlag-153."(%rip)
	movl	$0, "PinFlag-154."(%rip)
	movl	$0, "PinFlag-155."(%rip)
	movl	$0, "PinFlag-156."(%rip)
	movl	$0, "PinFlag-157."(%rip)
	movl	$0, "PinFlag-158."(%rip)
	movl	$0, "PinFlag-159."(%rip)
	movl	$0, "PinFlag-160."(%rip)
	movl	$0, "PinFlag-99."(%rip)
	movl	$0, "PinFlag-306."(%rip)
	movl	$0, "PinFlag-50."(%rip)
	movl	$0, "PinFlag-47."(%rip)
	movl	$0, "PinFlag-47.0"(%rip)
	movl	$0, "PinFlag-47.00"(%rip)
	movl	$0, "PinFlag-47.01"(%rip)
	movl	$0, "PinFlag-47.02"(%rip)
	movl	$0, "PinFlag-47.03"(%rip)
	movl	$0, "PinFlag-47.04"(%rip)
	movl	$0, "PinFlag-47.1"(%rip)
	movl	$0, "PinFlag-47.10"(%rip)
	movl	$0, "PinFlag-47.11"(%rip)
	movl	$0, "PinFlag-47.12"(%rip)
	movl	$0, "PinFlag-47.13"(%rip)
	movl	$0, "PinFlag-47.14"(%rip)
	movl	$0, "PinFlag-47.2"(%rip)
	movl	$0, "PinFlag-47.3"(%rip)
	movl	$0, "PinFlag-47.30"(%rip)
	movl	$0, "PinFlag-189."(%rip)
	movl	$0, "PinFlag-45."(%rip)
	movl	$0, "PinFlag-188."(%rip)
	movl	$0, "PinFlag-187."(%rip)
	movl	$0, "PinFlag-39."(%rip)
	movl	$0, "PinFlag-39.0"(%rip)
	movl	$0, "PinFlag-39.1"(%rip)
	movl	$0, "PinFlag-39.2"(%rip)
	movl	$0, "PinFlag-39.3"(%rip)
	popq	%rax
	retq
.Lfunc_end15:
	.size	spec_uncompress, .Lfunc_end15-spec_uncompress
	.cfi_endproc

	.globl	spec_initbufs
	.align	16, 0x90
	.type	spec_initbufs,@function
spec_initbufs:                          # @spec_initbufs
	.cfi_startproc
# BB#0:                                 # %entry
	movb	$0, smallMode(%rip)
	movl	$0, verbosity(%rip)
	movl	$9, blockSize100k(%rip)
	movl	$30, workFactor(%rip)
	retq
.Lfunc_end16:
	.size	spec_initbufs, .Lfunc_end16-spec_initbufs
	.cfi_endproc

	.globl	debug_time
	.align	16, 0x90
	.type	debug_time,@function
debug_time:                             # @debug_time
	.cfi_startproc
# BB#0:                                 # %entry
	xorl	%eax, %eax
	retq
.Lfunc_end17:
	.size	debug_time, .Lfunc_end17-debug_time
	.cfi_endproc

	.section	.rodata.cst16,"aM",@progbits,16
	.align	16
.LCPI18_0:
	.long	0                       # 0x0
	.long	1                       # 0x1
	.long	2                       # 0x2
	.long	3                       # 0x3
.LCPI18_1:
	.long	4                       # 0x4
	.long	5                       # 0x5
	.long	6                       # 0x6
	.long	7                       # 0x7
	.section	.rodata.cst4,"aM",@progbits,4
	.align	4
.LCPI18_2:
	.long	1065353216              # float 1
	.text
	.globl	BZ2_blockSort
	.align	16, 0x90
	.type	BZ2_blockSort,@function
BZ2_blockSort:                          # @BZ2_blockSort
	.cfi_startproc
# BB#0:                                 # %entry
	pushq	%rbp
.Ltmp93:
	.cfi_def_cfa_offset 16
	pushq	%r15
.Ltmp94:
	.cfi_def_cfa_offset 24
	pushq	%r14
.Ltmp95:
	.cfi_def_cfa_offset 32
	pushq	%r13
.Ltmp96:
	.cfi_def_cfa_offset 40
	pushq	%r12
.Ltmp97:
	.cfi_def_cfa_offset 48
	pushq	%rbx
.Ltmp98:
	.cfi_def_cfa_offset 56
	subq	$4824, %rsp             # imm = 0x12D8
.Ltmp99:
	.cfi_def_cfa_offset 4880
.Ltmp100:
	.cfi_offset %rbx, -56
.Ltmp101:
	.cfi_offset %r12, -48
.Ltmp102:
	.cfi_offset %r13, -40
.Ltmp103:
	.cfi_offset %r14, -32
.Ltmp104:
	.cfi_offset %r15, -24
.Ltmp105:
	.cfi_offset %rbp, -16
	movq	%rdi, %rax
	movq	40(%rax), %r13
	movq	56(%rax), %r14
	movslq	108(%rax), %rcx
	cmpq	$9999, %rcx             # imm = 0x270F
	movl	656(%rax), %r8d
	jg	.LBB18_2
# BB#1:                                 # %if.then
	movq	24(%rax), %rdi
	movq	32(%rax), %rsi
	movq	%r13, %rdx
	jmp	.LBB18_301
.LBB18_2:                               # %if.else
	movq	64(%rax), %r12
	movq	%rax, 8(%rsp)           # 8-byte Spill
	movl	88(%rax), %eax
	leal	34(%rcx), %edx
	leal	35(%rcx), %ebx
	testb	$1, %dl
	cmovel	%edx, %ebx
	testl	%eax, %eax
	movl	$1, %edx
	cmovgl	%eax, %edx
	cmpl	$100, %edx
	movl	$100, %eax
	cmovlel	%edx, %eax
	decl	%eax
	cltq
	imulq	$1431655766, %rax, %rdx # imm = 0x55555556
	movq	%rdx, %rax
	shrq	$63, %rax
	shrq	$32, %rdx
	addl	%eax, %edx
	imull	%ecx, %edx
	movq	%rdx, 16(%rsp)          # 8-byte Spill
	movl	%edx, 284(%rsp)
	cmpl	$4, %r8d
	movl	%r8d, 76(%rsp)          # 4-byte Spill
	movq	%rcx, %r15
	jge	.LBB18_3
.LBB18_4:                               # %for.body.preheader.i
	movslq	%ebx, %rax
	movq	%rax, 248(%rsp)         # 8-byte Spill
	xorl	%esi, %esi
	movl	$262148, %edx           # imm = 0x40004
	movq	%r13, %rdi
	callq	memset
	movzbl	(%r12), %ebx
	shll	$8, %ebx
	leal	-1(%r15), %ecx
	cmpl	$3, %ecx
	movq	%r15, %r11
	jl	.LBB18_5
# BB#6:                                 # %for.body6.preheader.i
	movl	%ecx, 36(%rsp)          # 4-byte Spill
	movq	%r14, 168(%rsp)         # 8-byte Spill
	leal	-4(%r11), %r15d
	movl	%r15d, %esi
	shrl	$2, %esi
	cmpl	$0, "PinFlag-23."(%rip)
	jne	.LBB18_8
# BB#7:
	movl	$.L__unnamed_10, %edi
	movl	$64, %edx
	movl	$65, %ecx
	movl	$1, %r8d
	movq	%r11, %rbp
	callq	Pin
	movq	%rbp, %r11
	movl	$1, "PinFlag-23."(%rip)
.LBB18_8:
	movq	%r11, 256(%rsp)         # 8-byte Spill
	leal	-1(%r11), %r9d
	movslq	%r9d, %rax
	leaq	(%r12,%rax), %r8
	movq	248(%rsp), %rcx         # 8-byte Reload
	movq	%rcx, %rsi
	leaq	(%rsi,%rax,2), %r10
	addq	%r12, %r10
	leal	-4(%r11), %eax
	cltq
	movq	%r11, %rdx
	leaq	(%r12,%rax), %r11
	leaq	(%rsi,%rax,2), %r14
	addq	%r12, %r14
	leal	-3(%rdx), %eax
	cltq
	leaq	(%r12,%rax), %rbp
	leaq	(%rsi,%rax,2), %rcx
	addq	%r12, %rcx
	leal	-2(%rdx), %eax
	movslq	%eax, %rdx
	leaq	(%r12,%rdx), %rax
	leaq	(%rsi,%rdx,2), %rdx
	addq	%r12, %rdx
	xorl	%esi, %esi
	.align	16, 0x90
.LBB18_9:                               # %for.body6.i
                                        # =>This Inner Loop Header: Depth=1
	movw	$0, (%r10,%rsi,2)
	sarl	$8, %ebx
	movzbl	(%r8,%rsi), %edi
	shll	$8, %edi
	orl	%ebx, %edi
	movslq	%edi, %rdi
	incl	(%r13,%rdi,4)
	movw	$0, (%rdx,%rsi,2)
	sarl	$8, %edi
	movzbl	(%rax,%rsi), %ebx
	shll	$8, %ebx
	orl	%edi, %ebx
	movslq	%ebx, %rdi
	incl	(%r13,%rdi,4)
	movw	$0, (%rcx,%rsi,2)
	sarl	$8, %edi
	movzbl	(%rbp,%rsi), %ebx
	shll	$8, %ebx
	orl	%edi, %ebx
	movslq	%ebx, %rdi
	incl	(%r13,%rdi,4)
	movw	$0, (%r14,%rsi,2)
	sarl	$8, %edi
	movzbl	(%r11,%rsi), %ebx
	shll	$8, %ebx
	orl	%edi, %ebx
	movslq	%ebx, %rdi
	incl	(%r13,%rdi,4)
	addq	$-4, %rsi
	leal	(%r9,%rsi), %edi
	cmpl	$2, %edi
	jg	.LBB18_9
# BB#10:                                # %for.cond61.preheader.loopexit.i
	andl	$-4, %r15d
	movq	256(%rsp), %r11         # 8-byte Reload
	leal	-5(%r11), %eax
	subl	%r15d, %eax
	movq	168(%rsp), %r14         # 8-byte Reload
	jmp	.LBB18_11
.LBB18_5:
	movl	%ecx, %eax
	movl	%ecx, 36(%rsp)          # 4-byte Spill
.LBB18_11:                              # %for.cond61.preheader.i
	movq	%r14, 168(%rsp)         # 8-byte Spill
	movq	248(%rsp), %rcx         # 8-byte Reload
	leaq	(%r12,%rcx), %rcx
	testl	%eax, %eax
	movq	%r13, %r10
	movq	%rcx, %r13
	js	.LBB18_16
# BB#12:                                # %for.body64.preheader.i
	movslq	%eax, %rbp
	movq	%rbp, %rcx
	notq	%rcx
	cmpq	$-2, %rcx
	movq	$-1, %rax
	cmovgq	%rcx, %rax
	cmpl	$0, "PinFlag-22."(%rip)
	jne	.LBB18_14
# BB#13:
	leaq	1(%rax,%rbp), %rsi
	movl	$.L__unnamed_11, %edi
	movl	$4, %edx
	movl	$18, %ecx
	movl	$1, %r8d
	movq	%r10, %r14
	movq	%r11, %r15
	callq	Pin
	movq	%r15, %r11
	movq	%r14, %r10
	movl	$1, "PinFlag-22."(%rip)
.LBB18_14:
	incq	%rbp
	.align	16, 0x90
.LBB18_15:                              # %for.body64.i
                                        # =>This Inner Loop Header: Depth=1
	movw	$0, -2(%r13,%rbp,2)
	sarl	$8, %ebx
	movzbl	-1(%r12,%rbp), %eax
	shll	$8, %eax
	orl	%eax, %ebx
	movslq	%ebx, %rax
	incl	(%r10,%rax,4)
	decq	%rbp
	jg	.LBB18_15
.LBB18_16:                              # %for.body83.preheader.i
	leaq	(%r12,%r11), %r14
	leaq	33(%r12,%r11), %rcx
	movq	248(%rsp), %rax         # 8-byte Reload
	leaq	(%rax,%r11,2), %rax
	leaq	(%r12,%rax), %rsi
	leaq	66(%r12,%rax), %rdi
	leaq	33(%r12), %rbp
	cmpq	%rdi, %r14
	setbe	%r9b
	cmpq	%rcx, %rsi
	setbe	%bl
	cmpq	%rbp, %r14
	setbe	%al
	cmpq	%rcx, %r12
	setbe	%r8b
	cmpq	%rbp, %rsi
	setbe	%cl
	cmpq	%rdi, %r12
	setbe	%sil
	xorl	%ebp, %ebp
	testb	%bl, %r9b
	jne	.LBB18_20
# BB#17:                                # %for.body83.preheader.i
	andb	%r8b, %al
	jne	.LBB18_20
# BB#18:                                # %for.body83.preheader.i
	andb	%sil, %cl
	jne	.LBB18_20
# BB#19:                                # %vector.body
	movq	(%r12), %rax
	movq	%rax, (%r12,%r11)
	xorps	%xmm0, %xmm0
	movups	%xmm0, (%r13,%r11,2)
	movq	8(%r12), %rax
	movq	%rax, 8(%r12,%r11)
	movups	%xmm0, 16(%r13,%r11,2)
	movq	16(%r12), %rax
	movq	%rax, 16(%r12,%r11)
	movups	%xmm0, 32(%r13,%r11,2)
	movq	24(%r12), %rax
	movq	%rax, 24(%r12,%r11)
	movups	%xmm0, 48(%r13,%r11,2)
	movl	$32, %ebp
.LBB18_20:                              # %for.body83.i.prol.preheader
	movq	%r13, 264(%rsp)         # 8-byte Spill
	movl	$33, %r13d
	cmpl	$0, "PinFlag-21."(%rip)
	jne	.LBB18_22
# BB#21:
	movl	$.L__unnamed_12, %edi
	movl	$1, %esi
	movl	$3, %edx
	movl	$13, %ecx
	movl	$1, %r8d
	movq	%r10, %r15
	movq	%r11, %rbx
	callq	Pin
	movq	%rbx, %r11
	movq	%r15, %r10
	movl	$1, "PinFlag-21."(%rip)
.LBB18_22:
	subq	%rbp, %r13
	leaq	(%r11,%r11), %r15
	leaq	(%r15,%rbp,2), %rax
	addq	248(%rsp), %rax         # 8-byte Folded Reload
	movq	%r12, 272(%rsp)         # 8-byte Spill
	addq	%r12, %rax
	leaq	(%r12,%rbp), %rdx
	xorl	%esi, %esi
	.align	16, 0x90
.LBB18_23:                              # %for.body83.i.prol
                                        # =>This Inner Loop Header: Depth=1
	movq	%rsi, %rcx
	movb	(%rdx,%rcx), %bl
	leaq	(%rbp,%rcx), %rsi
	movb	%bl, (%r14,%rsi)
	movw	$0, (%rax,%rcx,2)
	leaq	1(%rcx), %rsi
	cmpq	$2, %rsi
	jne	.LBB18_23
# BB#24:                                # %for.body83.i.preheader.split
	cmpq	$3, %r13
	movq	168(%rsp), %r14         # 8-byte Reload
	jb	.LBB18_29
# BB#25:                                # %for.body83.i.preheader.split.split
	leaq	1(%rbp,%rcx), %rbx
	movl	$30, %esi
	cmpl	$0, "PinFlag-20."(%rip)
	jne	.LBB18_27
# BB#26:
	subq	%rbx, %rsi
	shrq	$2, %rsi
	movl	$.L__unnamed_13, %edi
	movl	$48, %edx
	movl	$35, %ecx
	movl	$1, %r8d
	movq	%r10, %rbp
	movq	%r11, %r13
	callq	Pin
	movq	%r13, %r11
	movq	%rbp, %r10
	movl	$1, "PinFlag-20."(%rip)
.LBB18_27:
	movl	$34, %eax
	subq	%rbx, %rax
	leaq	(%r15,%rbx,2), %rcx
	addq	248(%rsp), %rcx         # 8-byte Folded Reload
	movq	272(%rsp), %rsi         # 8-byte Reload
	leaq	6(%rsi,%rcx), %rcx
	leaq	(%rbx,%r11), %rdx
	leaq	3(%rsi,%rdx), %rdx
	leaq	3(%rbx,%rsi), %rsi
	xorl	%edi, %edi
	.align	16, 0x90
.LBB18_28:                              # %for.body83.i
                                        # =>This Inner Loop Header: Depth=1
	movb	-3(%rsi,%rdi), %bl
	movb	%bl, -3(%rdx,%rdi)
	movw	$0, -6(%rcx,%rdi,2)
	movb	-2(%rsi,%rdi), %bl
	movb	%bl, -2(%rdx,%rdi)
	movw	$0, -4(%rcx,%rdi,2)
	movb	-1(%rsi,%rdi), %bl
	movb	%bl, -1(%rdx,%rdi)
	movw	$0, -2(%rcx,%rdi,2)
	movb	(%rsi,%rdi), %bl
	movb	%bl, (%rdx,%rdi)
	movw	$0, (%rcx,%rdi,2)
	addq	$4, %rdi
	cmpq	%rdi, %rax
	jne	.LBB18_28
.LBB18_29:                              # %for.end93.i
	cmpl	$4, 76(%rsp)            # 4-byte Folded Reload
	jge	.LBB18_30
.LBB18_31:                              # %for.body102.preheader.i
	movq	%r11, %r12
	movl	(%r10), %ebx
	movl	$4, %ebp
	cmpl	$0, "PinFlag-19."(%rip)
	jne	.LBB18_33
# BB#32:
	movl	$4, %ebp
	movl	$.L__unnamed_14, %edi
	movl	$16383, %esi            # imm = 0x3FFF
	movl	$4, %edx
	movl	$24, %ecx
	movl	$1, %r8d
	movq	%r10, %r15
	callq	Pin
	movq	%r15, %r10
	movl	$1, "PinFlag-19."(%rip)
.LBB18_33:                              # %for.body102.i
	movq	%r12, %r11
	movl	36(%rsp), %ecx          # 4-byte Reload
	.align	16, 0x90
.LBB18_34:                              # %for.body102.i
                                        # =>This Inner Loop Header: Depth=1
	addl	-12(%r10,%rbp,4), %ebx
	movl	%ebx, -12(%r10,%rbp,4)
	addl	-8(%r10,%rbp,4), %ebx
	movl	%ebx, -8(%r10,%rbp,4)
	addl	-4(%r10,%rbp,4), %ebx
	movl	%ebx, -4(%r10,%rbp,4)
	addl	(%r10,%rbp,4), %ebx
	movl	%ebx, (%r10,%rbp,4)
	addq	$4, %rbp
	cmpq	$65540, %rbp            # imm = 0x10004
	jne	.LBB18_34
# BB#35:                                # %for.end111.i
	movq	272(%rsp), %rax         # 8-byte Reload
	movzbl	(%rax), %ebx
	shll	$8, %ebx
	cmpl	$3, %ecx
	jl	.LBB18_36
# BB#37:                                # %for.body120.preheader.i
	movl	%ecx, 36(%rsp)          # 4-byte Spill
	movq	%r10, 176(%rsp)         # 8-byte Spill
	leal	-4(%r11), %r15d
	movl	%r15d, %esi
	shrl	$2, %esi
	cmpl	$0, "PinFlag-18."(%rip)
	jne	.LBB18_39
# BB#38:
	movl	$.L__unnamed_15, %edi
	movl	$52, %edx
	movl	$67, %ecx
	movl	$1, %r8d
	movq	%r11, %rbp
	callq	Pin
	movq	%rbp, %r11
	movl	$1, "PinFlag-18."(%rip)
.LBB18_39:
	movq	%r11, 256(%rsp)         # 8-byte Spill
	leal	-1(%r11), %eax
	movslq	%eax, %r8
	movq	272(%rsp), %rdx         # 8-byte Reload
	addq	%rdx, %r8
	leal	-4(%r11), %r9d
	movslq	%r9d, %r10
	addq	%rdx, %r10
	movq	%r11, %rcx
	leal	-3(%rcx), %r11d
	movslq	%r11d, %r14
	addq	%rdx, %r14
	leal	-2(%rcx), %r12d
	movslq	%r12d, %r13
	addq	%rdx, %r13
	xorl	%esi, %esi
	movq	168(%rsp), %rcx         # 8-byte Reload
	movq	176(%rsp), %rdx         # 8-byte Reload
	.align	16, 0x90
.LBB18_40:                              # %for.body120.i
                                        # =>This Inner Loop Header: Depth=1
	movzbl	(%r8,%rsi), %edi
	shrdw	$8, %di, %bx
	movzwl	%bx, %ebx
	movl	(%rdx,%rbx,4), %ebp
	decl	%ebp
	movl	%ebp, (%rdx,%rbx,4)
	movslq	%ebp, %rbx
	leal	(%rax,%rsi), %ebp
	movl	%ebp, (%rcx,%rbx,4)
	movzbl	(%r13,%rsi), %ebx
	movl	%ebx, %ebp
	shll	$8, %ebp
	orl	%edi, %ebp
	movzwl	%bp, %edi
	movl	(%rdx,%rdi,4), %ebp
	decl	%ebp
	movl	%ebp, (%rdx,%rdi,4)
	movslq	%ebp, %rdi
	leal	(%r12,%rsi), %ebp
	movl	%ebp, (%rcx,%rdi,4)
	movzbl	(%r14,%rsi), %edi
	movl	%edi, %ebp
	shll	$8, %ebp
	orl	%ebx, %ebp
	movzwl	%bp, %ebx
	movl	(%rdx,%rbx,4), %ebp
	decl	%ebp
	movl	%ebp, (%rdx,%rbx,4)
	movslq	%ebp, %rbx
	leal	(%r11,%rsi), %ebp
	movl	%ebp, (%rcx,%rbx,4)
	movzbl	(%r10,%rsi), %ebx
	shll	$8, %ebx
	orl	%edi, %ebx
	movzwl	%bx, %edi
	movl	(%rdx,%rdi,4), %ebp
	decl	%ebp
	movl	%ebp, (%rdx,%rdi,4)
	movslq	%ebp, %rdi
	leal	(%r9,%rsi), %ebp
	movl	%ebp, (%rcx,%rdi,4)
	addq	$-4, %rsi
	leal	(%rax,%rsi), %edi
	cmpl	$2, %edi
	jg	.LBB18_40
# BB#41:                                # %for.cond190.preheader.loopexit.i
	andl	$-4, %r15d
	movq	256(%rsp), %r11         # 8-byte Reload
	leal	-5(%r11), %r12d
	subl	%r15d, %r12d
	movq	%rcx, %r14
	movq	%rdx, %r10
	jmp	.LBB18_42
.LBB18_36:
	movl	%ecx, %r12d
	movl	%ecx, 36(%rsp)          # 4-byte Spill
.LBB18_42:                              # %for.cond190.preheader.i
	testl	%r12d, %r12d
	movq	272(%rsp), %r13         # 8-byte Reload
	js	.LBB18_47
# BB#43:                                # %for.body193.preheader.i
	movslq	%r12d, %rbp
	movq	%rbp, %rcx
	notq	%rcx
	cmpq	$-2, %rcx
	movq	$-1, %rax
	cmovgq	%rcx, %rax
	cmpl	$0, "PinFlag-17."(%rip)
	jne	.LBB18_45
# BB#44:
	leaq	1(%rax,%rbp), %rsi
	movl	$.L__unnamed_16, %edi
	movl	$4, %edx
	movl	$20, %ecx
	movl	$1, %r8d
	movq	%r10, %r15
	movq	%r11, 256(%rsp)         # 8-byte Spill
	callq	Pin
	movq	256(%rsp), %r11         # 8-byte Reload
	movq	%r15, %r10
	movl	$1, "PinFlag-17."(%rip)
.LBB18_45:
	incq	%rbp
	.align	16, 0x90
.LBB18_46:                              # %for.body193.i
                                        # =>This Inner Loop Header: Depth=1
	movzbl	-1(%r13,%rbp), %eax
	shrdw	$8, %ax, %bx
	movzwl	%bx, %eax
	movl	(%r10,%rax,4), %ecx
	decl	%ecx
	movl	%ecx, (%r10,%rax,4)
	movslq	%ecx, %rax
	movl	%r12d, (%r14,%rax,4)
	decl	%r12d
	decq	%rbp
	jg	.LBB18_46
.LBB18_47:                              # %for.body215.preheader.i
	movq	%r13, 272(%rsp)         # 8-byte Spill
	xorps	%xmm0, %xmm0
	movaps	%xmm0, 2576(%rsp)
	movaps	%xmm0, 2560(%rsp)
	movaps	%xmm0, 2544(%rsp)
	movaps	%xmm0, 2528(%rsp)
	movaps	%xmm0, 2512(%rsp)
	movaps	%xmm0, 2496(%rsp)
	movaps	%xmm0, 2480(%rsp)
	movaps	%xmm0, 2464(%rsp)
	movaps	%xmm0, 2448(%rsp)
	movaps	%xmm0, 2432(%rsp)
	movaps	%xmm0, 2416(%rsp)
	movaps	%xmm0, 2400(%rsp)
	movaps	%xmm0, 2384(%rsp)
	movaps	%xmm0, 2368(%rsp)
	movaps	%xmm0, 2352(%rsp)
	movaps	%xmm0, 2336(%rsp)
	xorl	%eax, %eax
	movdqa	.LCPI18_0(%rip), %xmm0  # xmm0 = [0,1,2,3]
	movdqa	.LCPI18_1(%rip), %xmm1  # xmm1 = [4,5,6,7]
	.align	16, 0x90
.LBB18_48:                              # %vector.body453
                                        # =>This Inner Loop Header: Depth=1
	movd	%eax, %xmm2
	pshufd	$0, %xmm2, %xmm2        # xmm2 = xmm2[0,0,0,0]
	movdqa	%xmm2, %xmm3
	paddd	%xmm0, %xmm3
	paddd	%xmm1, %xmm2
	movdqa	%xmm3, 2592(%rsp,%rax,4)
	movdqa	%xmm2, 2608(%rsp,%rax,4)
	leal	8(%rax), %ecx
	movd	%ecx, %xmm2
	pshufd	$0, %xmm2, %xmm2        # xmm2 = xmm2[0,0,0,0]
	movdqa	%xmm2, %xmm3
	paddd	%xmm0, %xmm3
	paddd	%xmm1, %xmm2
	movdqa	%xmm3, 2624(%rsp,%rax,4)
	movdqa	%xmm2, 2640(%rsp,%rax,4)
	addq	$16, %rax
	cmpq	$256, %rax              # imm = 0x100
	jne	.LBB18_48
# BB#49:                                # %do.body226.i.preheader
	movq	%r10, %rbx
	movl	$364, %ebp              # imm = 0x16C
	cmpl	$0, "PinFlag-15."(%rip)
	je	.LBB18_51
# BB#50:
	movq	%r11, 256(%rsp)         # 8-byte Spill
	jmp	.LBB18_52
.LBB18_51:
	movq	%r11, 256(%rsp)         # 8-byte Spill
	movl	$.L__unnamed_17, %edi
	movl	$4, %esi
	xorl	%edx, %edx
	movl	$22, %ecx
	xorl	%r8d, %r8d
	callq	Pin
	movl	$1, "PinFlag-15."(%rip)
.LBB18_52:                              # %do.body226.i
	movq	%rbx, %r10
	.align	16, 0x90
.LBB18_53:                              # %do.body226.i
                                        # =>This Loop Header: Depth=1
                                        #     Child Loop BB18_56 Depth 2
                                        #       Child Loop BB18_58 Depth 3
	movl	%ebp, 248(%rsp)         # 4-byte Spill
	movslq	%ebp, %rax
	imulq	$1431655766, %rax, %rbp # imm = 0x55555556
	movq	%rbp, %rcx
	shrq	$63, %rcx
	shrq	$32, %rbp
	addl	%ecx, %ebp
	cmpl	$767, %eax              # imm = 0x2FF
	jg	.LBB18_62
# BB#54:                                # %for.body230.preheader.i
                                        #   in Loop: Header=BB18_53 Depth=1
	movslq	%ebp, %r12
	leaq	1(%r12), %rax
	cmpq	$255, %rax
	movl	$256, %esi              # imm = 0x100
	cmovgq	%rax, %rsi
	xorl	%ebx, %ebx
	cmpl	$0, "PinFlag-15.0"(%rip)
	jne	.LBB18_56
# BB#55:                                #   in Loop: Header=BB18_53 Depth=1
	decq	%rsi
	subq	%r12, %rsi
	xorl	%ebx, %ebx
	movl	$.L__unnamed_18, %edi
	movl	$62, %edx
	movl	$27, %ecx
	xorl	%r8d, %r8d
	movq	%r10, %r15
	callq	Pin
	movq	%r15, %r10
	movl	$1, "PinFlag-15.0"(%rip)
	.align	16, 0x90
.LBB18_56:                              # %for.body230.i
                                        #   Parent Loop BB18_53 Depth=1
                                        # =>  This Loop Header: Depth=2
                                        #       Child Loop BB18_58 Depth 3
	movl	2592(%rsp,%r12,4), %r13d
	movl	%r13d, %eax
	shll	$8, %eax
	leal	256(%rax), %ecx
	movslq	%ecx, %rcx
	movl	(%r10,%rcx,4), %r15d
	cltq
	subl	(%r10,%rax,4), %r15d
	cmpl	$0, "PinFlag-15.00"(%rip)
	movl	%ebx, %eax
	jne	.LBB18_58
# BB#57:                                #   in Loop: Header=BB18_56 Depth=2
	movl	$.L__unnamed_19, %edi
	movl	$1, %esi
	movl	$36, %edx
	movl	$21, %ecx
	movl	$1, %r8d
	movq	%r10, 176(%rsp)         # 8-byte Spill
	callq	Pin
	movq	176(%rsp), %r10         # 8-byte Reload
	movl	$1, "PinFlag-15.00"(%rip)
	movl	%ebx, %eax
	.align	16, 0x90
.LBB18_58:                              # %while.cond.i
                                        #   Parent Loop BB18_53 Depth=1
                                        #     Parent Loop BB18_56 Depth=2
                                        # =>    This Inner Loop Header: Depth=3
	leal	(%rbp,%rax), %ecx
	movslq	%eax, %rdx
	movl	2592(%rsp,%rdx,4), %edx
	movl	%edx, %esi
	shll	$8, %esi
	leal	256(%rsi), %edi
	movslq	%edi, %rdi
	movl	(%r10,%rdi,4), %edi
	movslq	%esi, %rsi
	subl	(%r10,%rsi,4), %edi
	cmpl	%r15d, %edi
	jbe	.LBB18_61
# BB#59:                                # %while.body.i
                                        #   in Loop: Header=BB18_58 Depth=3
	movslq	%ecx, %rcx
	movl	%edx, 2592(%rsp,%rcx,4)
	subl	%ebp, %eax
	jge	.LBB18_58
# BB#60:                                # %zero.isplit
                                        #   in Loop: Header=BB18_56 Depth=2
	addl	%ebp, %eax
	movl	%eax, %ecx
.LBB18_61:                              # %zero.i
                                        #   in Loop: Header=BB18_56 Depth=2
	movslq	%ecx, %rax
	movl	%r13d, 2592(%rsp,%rax,4)
	incq	%r12
	incl	%ebx
	cmpq	$256, %r12              # imm = 0x100
	jl	.LBB18_56
.LBB18_62:                              # %do.cond273.i
                                        #   in Loop: Header=BB18_53 Depth=1
	movl	248(%rsp), %eax         # 4-byte Reload
	addl	$-3, %eax
	cmpl	$2, %eax
	ja	.LBB18_53
# BB#63:                                # %for.cond277.preheader.i
	cmpl	$0, "PinFlag-14."(%rip)
	jne	.LBB18_65
# BB#64:
	movl	$.L__unnamed_20, %edi
	movl	$1, %esi
	movl	$93, %edx
	movl	$129, %ecx
	xorl	%r8d, %r8d
	movq	%r10, %rbx
	callq	Pin
	movq	%rbx, %r10
	movl	$1, "PinFlag-14."(%rip)
.LBB18_65:
	leaq	16(%r14), %rax
	movq	%rax, 24(%rsp)          # 8-byte Spill
	leaq	1028(%r10), %rax
	movq	%rax, 48(%rsp)          # 8-byte Spill
	leaq	3072(%r10), %rax
	movq	%rax, 40(%rsp)          # 8-byte Spill
	movl	$-2097153, %r15d        # imm = 0xFFFFFFFFFFDFFFFF
	movq	16(%rsp), %rax          # 8-byte Reload
	movl	%eax, 160(%rsp)         # 4-byte Spill
	xorl	%eax, %eax
	movl	$0, 128(%rsp)           # 4-byte Folded Spill
	.align	16, 0x90
.LBB18_66:                              # %for.body280.i
                                        # =>This Loop Header: Depth=1
                                        #     Child Loop BB18_70 Depth 2
                                        #       Child Loop BB18_79 Depth 3
                                        #         Child Loop BB18_172 Depth 4
                                        #           Child Loop BB18_181 Depth 5
                                        #             Child Loop BB18_184 Depth 6
                                        #               Child Loop BB18_187 Depth 7
                                        #             Child Loop BB18_197 Depth 6
                                        #               Child Loop BB18_195 Depth 7
                                        #         Child Loop BB18_93 Depth 4
                                        #           Child Loop BB18_102 Depth 5
                                        #             Child Loop BB18_106 Depth 6
                                        #               Child Loop BB18_109 Depth 7
                                        #             Child Loop BB18_117 Depth 6
                                        #               Child Loop BB18_120 Depth 7
                                        #         Child Loop BB18_216 Depth 4
                                        #         Child Loop BB18_222 Depth 4
                                        #         Child Loop BB18_234 Depth 4
                                        #         Child Loop BB18_240 Depth 4
                                        #         Child Loop BB18_133 Depth 4
                                        #         Child Loop BB18_139 Depth 4
                                        #           Child Loop BB18_143 Depth 5
                                        #             Child Loop BB18_146 Depth 6
                                        #             Child Loop BB18_153 Depth 6
                                        #             Child Loop BB18_160 Depth 6
                                        #     Child Loop BB18_250 Depth 2
                                        #     Child Loop BB18_257 Depth 2
                                        #     Child Loop BB18_263 Depth 2
                                        #     Child Loop BB18_272 Depth 2
                                        #     Child Loop BB18_278 Depth 2
                                        #     Child Loop BB18_283 Depth 2
	movl	2592(%rsp,%rax,4), %ebp
	movq	%rbp, 96(%rsp)          # 8-byte Spill
	movslq	%ebp, %rdi
	movq	%rdi, 80(%rsp)          # 8-byte Spill
	movl	%edi, %ecx
	shll	$8, %ecx
	movslq	%ecx, %rsi
	movq	%rsi, 88(%rsp)          # 8-byte Spill
	cmpl	$0, "PinFlag-14.0"(%rip)
	je	.LBB18_68
# BB#67:                                #   in Loop: Header=BB18_66 Depth=1
	movl	%ecx, 60(%rsp)          # 4-byte Spill
	movq	%rax, 64(%rsp)          # 8-byte Spill
	jmp	.LBB18_69
	.align	16, 0x90
.LBB18_68:                              #   in Loop: Header=BB18_66 Depth=1
	movl	%ecx, 60(%rsp)          # 4-byte Spill
	movq	%rax, 64(%rsp)          # 8-byte Spill
	movq	%rdi, %r12
	movl	$.L__unnamed_21, %edi
	movq	%rsi, %r13
	movl	$1, %esi
	movl	$126, %edx
	movl	$65, %ecx
	xorl	%r8d, %r8d
	movq	%r10, %rbx
	callq	Pin
	movq	%r13, %rsi
	movq	%r12, %rdi
	movq	%rbx, %r10
	movl	$1, "PinFlag-14.0"(%rip)
.LBB18_69:                              # %for.body286.i
                                        #   in Loop: Header=BB18_66 Depth=1
	xorl	%ebx, %ebx
	jmp	.LBB18_70
.LBB18_74:                              # %if.then308.i
                                        #   in Loop: Header=BB18_70 Depth=2
	movq	stderr(%rip), %rdi
	movl	$1, %r9d
	subl	%r12d, %r9d
	addl	%ecx, %r9d
	movl	$.L.str.7.4, %esi
	xorl	%eax, %eax
	movl	%ecx, 132(%rsp)         # 4-byte Spill
	movl	%ebp, %edx
	movl	%ebx, %ecx
	movl	128(%rsp), %r8d         # 4-byte Reload
	movq	%r10, %r15
	callq	fprintf
	movl	132(%rsp), %ecx         # 4-byte Reload
	movq	%r15, %r10
	jmp	.LBB18_75
	.align	16, 0x90
.LBB18_70:                              # %for.body286.i
                                        #   Parent Loop BB18_66 Depth=1
                                        # =>  This Loop Header: Depth=2
                                        #       Child Loop BB18_79 Depth 3
                                        #         Child Loop BB18_172 Depth 4
                                        #           Child Loop BB18_181 Depth 5
                                        #             Child Loop BB18_184 Depth 6
                                        #               Child Loop BB18_187 Depth 7
                                        #             Child Loop BB18_197 Depth 6
                                        #               Child Loop BB18_195 Depth 7
                                        #         Child Loop BB18_93 Depth 4
                                        #           Child Loop BB18_102 Depth 5
                                        #             Child Loop BB18_106 Depth 6
                                        #               Child Loop BB18_109 Depth 7
                                        #             Child Loop BB18_117 Depth 6
                                        #               Child Loop BB18_120 Depth 7
                                        #         Child Loop BB18_216 Depth 4
                                        #         Child Loop BB18_222 Depth 4
                                        #         Child Loop BB18_234 Depth 4
                                        #         Child Loop BB18_240 Depth 4
                                        #         Child Loop BB18_133 Depth 4
                                        #         Child Loop BB18_139 Depth 4
                                        #           Child Loop BB18_143 Depth 5
                                        #             Child Loop BB18_146 Depth 6
                                        #             Child Loop BB18_153 Depth 6
                                        #             Child Loop BB18_160 Depth 6
	cmpq	%rbp, %rbx
	je	.LBB18_244
# BB#71:                                # %if.then289.i
                                        #   in Loop: Header=BB18_70 Depth=2
	leaq	(%rbx,%rsi), %r13
	movl	(%r10,%r13,4), %eax
	testl	$2097152, %eax          # imm = 0x200000
	jne	.LBB18_243
# BB#72:                                # %if.then294.i
                                        #   in Loop: Header=BB18_70 Depth=2
	movl	%eax, %r12d
	andl	$-2097153, %r12d        # imm = 0xFFFFFFFFFFDFFFFF
	movl	4(%r10,%r13,4), %ecx
	andl	%r15d, %ecx
	decl	%ecx
	cmpl	%r12d, %ecx
	jle	.LBB18_243
# BB#73:                                # %if.then305.i
                                        #   in Loop: Header=BB18_70 Depth=2
	cmpl	$4, 76(%rsp)            # 4-byte Folded Reload
	jge	.LBB18_74
.LBB18_75:                              # %if.end312.i
                                        #   in Loop: Header=BB18_70 Depth=2
	movl	%r12d, 4416(%rsp)
	movl	%ecx, 4016(%rsp)
	movl	$2, 3616(%rsp)
	movl	$1, %ebp
	cmpl	$0, "PinFlag-14.00"(%rip)
	je	.LBB18_77
# BB#76:                                #   in Loop: Header=BB18_70 Depth=2
	movl	%ecx, 132(%rsp)         # 4-byte Spill
	movl	%r12d, 108(%rsp)        # 4-byte Spill
	movq	%r13, 112(%rsp)         # 8-byte Spill
	movq	%rbx, 120(%rsp)         # 8-byte Spill
	movq	%r10, 176(%rsp)         # 8-byte Spill
	jmp	.LBB18_78
.LBB18_77:                              #   in Loop: Header=BB18_70 Depth=2
	movl	%ecx, 132(%rsp)         # 4-byte Spill
	movl	%r12d, 108(%rsp)        # 4-byte Spill
	movq	%r13, 112(%rsp)         # 8-byte Spill
	movq	%rbx, 120(%rsp)         # 8-byte Spill
	movq	%r10, 176(%rsp)         # 8-byte Spill
	movl	$.L__unnamed_22, %edi
	movl	$1, %esi
	movl	$10654, %edx            # imm = 0x299E
	movl	$389, %ecx              # imm = 0x185
	xorl	%r8d, %r8d
	callq	Pin
	movl	$1, "PinFlag-14.00"(%rip)
.LBB18_78:                              # %while.body.lr.ph.i.i
                                        #   in Loop: Header=BB18_70 Depth=2
	movl	160(%rsp), %edx         # 4-byte Reload
.LBB18_79:                              # %while.body.lr.ph.i.i
                                        #   Parent Loop BB18_66 Depth=1
                                        #     Parent Loop BB18_70 Depth=2
                                        # =>    This Loop Header: Depth=3
                                        #         Child Loop BB18_172 Depth 4
                                        #           Child Loop BB18_181 Depth 5
                                        #             Child Loop BB18_184 Depth 6
                                        #               Child Loop BB18_187 Depth 7
                                        #             Child Loop BB18_197 Depth 6
                                        #               Child Loop BB18_195 Depth 7
                                        #         Child Loop BB18_93 Depth 4
                                        #           Child Loop BB18_102 Depth 5
                                        #             Child Loop BB18_106 Depth 6
                                        #               Child Loop BB18_109 Depth 7
                                        #             Child Loop BB18_117 Depth 6
                                        #               Child Loop BB18_120 Depth 7
                                        #         Child Loop BB18_216 Depth 4
                                        #         Child Loop BB18_222 Depth 4
                                        #         Child Loop BB18_234 Depth 4
                                        #         Child Loop BB18_240 Depth 4
                                        #         Child Loop BB18_133 Depth 4
                                        #         Child Loop BB18_139 Depth 4
                                        #           Child Loop BB18_143 Depth 5
                                        #             Child Loop BB18_146 Depth 6
                                        #             Child Loop BB18_153 Depth 6
                                        #             Child Loop BB18_160 Depth 6
	movl	%ebp, %ecx
	movslq	%ecx, %r12
	leaq	-1(%r12), %rax
	movq	%rax, 200(%rsp)         # 8-byte Spill
	movl	4412(%rsp,%r12,4), %esi
	movq	%rsi, 192(%rsp)         # 8-byte Spill
	movl	4012(%rsp,%r12,4), %edi
	movq	%rdi, 224(%rsp)         # 8-byte Spill
	movl	%edi, %ebp
	subl	%esi, %ebp
	leal	(%rdi,%rsi), %eax
	sarl	%eax
	cmpl	$100, %ecx
	movslq	%esi, %rbx
	movq	%rbx, 184(%rsp)         # 8-byte Spill
	movslq	%edi, %rsi
	movq	%rsi, 232(%rsp)         # 8-byte Spill
	cltq
	movq	%rax, 208(%rsp)         # 8-byte Spill
	movl	3612(%rsp,%r12,4), %r15d
	jge	.LBB18_80
# BB#86:                                # %if.end.i.us.i.preheader
                                        #   in Loop: Header=BB18_79 Depth=3
	cmpl	$20, %ebp
	movq	272(%rsp), %r9          # 8-byte Reload
	jl	.LBB18_87
# BB#88:                                # %if.end.i.us.i.preheader
                                        #   in Loop: Header=BB18_79 Depth=3
	movq	%rbp, 144(%rsp)         # 8-byte Spill
	cmpl	$14, %r15d
	jg	.LBB18_89
# BB#90:                                # %if.end18.i.us.i.preheader
                                        #   in Loop: Header=BB18_79 Depth=3
	cmpl	$0, "PinFlag-14.001"(%rip)
	je	.LBB18_92
# BB#91:                                #   in Loop: Header=BB18_79 Depth=3
	movq	%r12, 136(%rsp)         # 8-byte Spill
	movl	%ecx, 156(%rsp)         # 4-byte Spill
	movl	%edx, 160(%rsp)         # 4-byte Spill
	jmp	.LBB18_93
	.align	16, 0x90
.LBB18_80:                              # %if.then.i.i.preheader
                                        #   in Loop: Header=BB18_79 Depth=3
	movl	%ecx, 156(%rsp)         # 4-byte Spill
	movl	%edx, 160(%rsp)         # 4-byte Spill
	movl	$1001, %edi             # imm = 0x3E9
	callq	BZ2_bz__AssertH__fail
	cmpl	$20, %ebp
	jl	.LBB18_81
# BB#82:                                # %if.then.i.i.preheader
                                        #   in Loop: Header=BB18_79 Depth=3
	movq	%rbp, 144(%rsp)         # 8-byte Spill
	cmpl	$14, %r15d
	movq	272(%rsp), %rbp         # 8-byte Reload
	jg	.LBB18_83
# BB#84:                                # %if.end18.i.i.preheader
                                        #   in Loop: Header=BB18_79 Depth=3
	cmpl	$0, "PinFlag-14.000"(%rip)
	je	.LBB18_171
# BB#85:                                #   in Loop: Header=BB18_79 Depth=3
	movq	%r12, 136(%rsp)         # 8-byte Spill
	jmp	.LBB18_172
.LBB18_87:                              #   in Loop: Header=BB18_79 Depth=3
	movq	%rbp, 144(%rsp)         # 8-byte Spill
.LBB18_89:                              #   in Loop: Header=BB18_79 Depth=3
	movl	%ecx, 156(%rsp)         # 4-byte Spill
	movl	%edx, 160(%rsp)         # 4-byte Spill
	movl	%r15d, %ecx
	jmp	.LBB18_128
.LBB18_81:                              #   in Loop: Header=BB18_79 Depth=3
	movq	%rbp, 144(%rsp)         # 8-byte Spill
	movl	%r15d, %ecx
	jmp	.LBB18_128
.LBB18_83:                              #   in Loop: Header=BB18_79 Depth=3
	movl	%r15d, %ecx
	jmp	.LBB18_128
.LBB18_92:                              #   in Loop: Header=BB18_79 Depth=3
	movq	%r12, 136(%rsp)         # 8-byte Spill
	movl	%ecx, 156(%rsp)         # 4-byte Spill
	movl	%edx, 160(%rsp)         # 4-byte Spill
	movl	$.L__unnamed_23, %edi
	movl	$1, %esi
	movl	$1762, %edx             # imm = 0x6E2
	movl	$56, %ecx
	xorl	%r8d, %r8d
	movq	%r9, %rbp
	callq	Pin
	movq	%rbp, %r9
	movl	$1, "PinFlag-14.001"(%rip)
	.align	16, 0x90
.LBB18_93:                              # %if.end18.i.us.i
                                        #   Parent Loop BB18_66 Depth=1
                                        #     Parent Loop BB18_70 Depth=2
                                        #       Parent Loop BB18_79 Depth=3
                                        # =>      This Loop Header: Depth=4
                                        #           Child Loop BB18_102 Depth 5
                                        #             Child Loop BB18_106 Depth 6
                                        #               Child Loop BB18_109 Depth 7
                                        #             Child Loop BB18_117 Depth 6
                                        #               Child Loop BB18_120 Depth 7
	movl	(%r14,%rbx,4), %eax
	addl	%r15d, %eax
	movzbl	(%r9,%rax), %r13d
	movq	232(%rsp), %rax         # 8-byte Reload
	movl	(%r14,%rax,4), %eax
	addl	%r15d, %eax
	movzbl	(%r9,%rax), %edx
	movq	208(%rsp), %rax         # 8-byte Reload
	movl	(%r14,%rax,4), %eax
	addl	%r15d, %eax
	movzbl	(%r9,%rax), %eax
	cmpl	%edx, %r13d
	ja	.LBB18_94
# BB#95:                                # %if.end18.i.us.i
                                        #   in Loop: Header=BB18_93 Depth=4
	movb	%dl, %cl
	jmp	.LBB18_96
	.align	16, 0x90
.LBB18_94:                              #   in Loop: Header=BB18_93 Depth=4
	movb	%r13b, %cl
	movb	%dl, %r13b
.LBB18_96:                              # %if.end18.i.us.i
                                        #   in Loop: Header=BB18_93 Depth=4
	movzbl	%cl, %edx
	movzbl	%r13b, %esi
	cmpl	%eax, %esi
	ja	.LBB18_98
# BB#97:                                # %if.end18.i.us.i
                                        #   in Loop: Header=BB18_93 Depth=4
	movb	%al, %r13b
.LBB18_98:                              # %if.end18.i.us.i
                                        #   in Loop: Header=BB18_93 Depth=4
	cmpl	%eax, %edx
	ja	.LBB18_100
# BB#99:                                # %if.end18.i.us.i
                                        #   in Loop: Header=BB18_93 Depth=4
	movb	%cl, %r13b
.LBB18_100:                             # %if.end18.i.us.i
                                        #   in Loop: Header=BB18_93 Depth=4
	cmpl	$0, "PinFlag-14.0010"(%rip)
	movq	224(%rsp), %rax         # 8-byte Reload
	movq	%rax, %rcx
	movl	%ecx, %r8d
	movq	192(%rsp), %rax         # 8-byte Reload
	movl	%eax, %r12d
	movl	%ecx, %r11d
	movl	%eax, %r10d
	jne	.LBB18_102
# BB#101:                               #   in Loop: Header=BB18_93 Depth=4
	movl	$.L__unnamed_24, %edi
	movl	$1, %esi
	movl	$2041, %edx             # imm = 0x7F9
	movl	$48, %ecx
	xorl	%r8d, %r8d
	movq	%r9, %rbx
	callq	Pin
	movq	%rbx, %r9
	movl	$1, "PinFlag-14.0010"(%rip)
	movq	224(%rsp), %rax         # 8-byte Reload
	movq	%rax, %rcx
	movl	%ecx, %r8d
	movq	192(%rsp), %rax         # 8-byte Reload
	movl	%eax, %r12d
	movl	%ecx, %r11d
	movl	%eax, %r10d
	jmp	.LBB18_102
	.align	16, 0x90
.LBB18_124:                             # %if.end105.i.us.i
                                        #   in Loop: Header=BB18_102 Depth=5
	movl	(%r14,%rbx,4), %edx
	movl	%ecx, (%r14,%rbx,4)
	movl	%edx, (%rax)
	incl	%r10d
	decl	%ebp
	movl	%ebp, %r11d
.LBB18_102:                             # %while.body37.outer.i.us.i
                                        #   Parent Loop BB18_66 Depth=1
                                        #     Parent Loop BB18_70 Depth=2
                                        #       Parent Loop BB18_79 Depth=3
                                        #         Parent Loop BB18_93 Depth=4
                                        # =>        This Loop Header: Depth=5
                                        #             Child Loop BB18_106 Depth 6
                                        #               Child Loop BB18_109 Depth 7
                                        #             Child Loop BB18_117 Depth 6
                                        #               Child Loop BB18_120 Depth 7
	cmpl	%r11d, %r10d
	jg	.LBB18_114
# BB#103:                               # %if.end41.lr.ph.preheader.i.us.i
                                        #   in Loop: Header=BB18_102 Depth=5
	movq	%r9, %rbp
	movslq	%r11d, %rbx
	movslq	%r12d, %r12
	cmpl	$0, "PinFlag-14.00100"(%rip)
	jne	.LBB18_105
# BB#104:                               #   in Loop: Header=BB18_102 Depth=5
	movl	$.L__unnamed_25, %edi
	movl	$1, %esi
	movl	$766, %edx              # imm = 0x2FE
	movl	$24, %ecx
	movq	%r8, 248(%rsp)          # 8-byte Spill
	xorl	%r8d, %r8d
	movq	%r12, 240(%rsp)         # 8-byte Spill
	movq	%r10, %r12
	movl	%r11d, 216(%rsp)        # 4-byte Spill
	callq	Pin
	movl	216(%rsp), %r11d        # 4-byte Reload
	movq	%r12, %r10
	movq	240(%rsp), %r12         # 8-byte Reload
	movq	248(%rsp), %r8          # 8-byte Reload
	movl	$1, "PinFlag-14.00100"(%rip)
.LBB18_105:                             # %if.end41.lr.ph.i.us.i
                                        #   in Loop: Header=BB18_102 Depth=5
	movq	%rbp, %r9
.LBB18_106:                             # %if.end41.lr.ph.i.us.i
                                        #   Parent Loop BB18_66 Depth=1
                                        #     Parent Loop BB18_70 Depth=2
                                        #       Parent Loop BB18_79 Depth=3
                                        #         Parent Loop BB18_93 Depth=4
                                        #           Parent Loop BB18_102 Depth=5
                                        # =>          This Loop Header: Depth=6
                                        #               Child Loop BB18_109 Depth 7
	movslq	%r10d, %rbp
	cmpl	$0, "PinFlag-14.001000"(%rip)
	jne	.LBB18_108
# BB#107:                               #   in Loop: Header=BB18_106 Depth=6
	movl	$.L__unnamed_26, %edi
	movl	$1, %esi
	xorl	%edx, %edx
	movl	$17, %ecx
	movq	%r8, 248(%rsp)          # 8-byte Spill
	movl	$1, %r8d
	movq	%r12, 240(%rsp)         # 8-byte Spill
	movl	%r11d, %r12d
	callq	Pin
	movl	%r12d, %r11d
	movq	248(%rsp), %r8          # 8-byte Reload
	movq	272(%rsp), %r9          # 8-byte Reload
	movq	240(%rsp), %r12         # 8-byte Reload
	movl	$1, "PinFlag-14.001000"(%rip)
.LBB18_108:                             #   in Loop: Header=BB18_106 Depth=6
	leaq	(%r14,%rbp,4), %rax
	.align	16, 0x90
.LBB18_109:                             # %if.end41.i.us.i
                                        #   Parent Loop BB18_66 Depth=1
                                        #     Parent Loop BB18_70 Depth=2
                                        #       Parent Loop BB18_79 Depth=3
                                        #         Parent Loop BB18_93 Depth=4
                                        #           Parent Loop BB18_102 Depth=5
                                        #             Parent Loop BB18_106 Depth=6
                                        # =>            This Inner Loop Header: Depth=7
	movl	(%rax), %ecx
	leal	(%rcx,%r15), %edx
	movzbl	(%r9,%rdx), %edx
	movzbl	%r13b, %esi
	cmpl	%esi, %edx
	je	.LBB18_113
# BB#110:                               # %if.end62.i.us.i
                                        #   in Loop: Header=BB18_109 Depth=7
	movzbl	%dl, %ecx
	cmpl	%esi, %ecx
	ja	.LBB18_112
# BB#111:                               # %if.end66.i.us.i
                                        #   in Loop: Header=BB18_109 Depth=7
	addq	$4, %rax
	cmpq	%rbx, %rbp
	leaq	1(%rbp), %rbp
	jl	.LBB18_109
	jmp	.LBB18_112
	.align	16, 0x90
.LBB18_113:                             # %if.then51.i.us.i
                                        #   in Loop: Header=BB18_106 Depth=6
	movl	(%r14,%r12,4), %edx
	movl	%edx, (%rax)
	movl	%ecx, (%r14,%r12,4)
	incq	%r12
	leal	1(%rbp), %r10d
	cmpl	%r11d, %ebp
	jl	.LBB18_106
	jmp	.LBB18_114
	.align	16, 0x90
.LBB18_112:                             # %if.end62.i.us.i.while.body69.preheader.loopexit.i.us.i_crit_edge
                                        #   in Loop: Header=BB18_102 Depth=5
	movl	%ebp, %r10d
.LBB18_114:                             # %while.body69.preheader.i.us.i
                                        #   in Loop: Header=BB18_102 Depth=5
	cmpl	%r11d, %r10d
	jg	.LBB18_126
# BB#115:                               # %if.end73.lr.ph.preheader.i.us.i
                                        #   in Loop: Header=BB18_102 Depth=5
	movslq	%r10d, %rbx
	movslq	%r8d, %r8
	cmpl	$0, "PinFlag-14.00101"(%rip)
	jne	.LBB18_117
# BB#116:                               #   in Loop: Header=BB18_102 Depth=5
	movl	$.L__unnamed_27, %edi
	movl	$1, %esi
	movl	$766, %edx              # imm = 0x2FE
	movl	$24, %ecx
	movq	%r8, 248(%rsp)          # 8-byte Spill
	xorl	%r8d, %r8d
	movq	%r12, 240(%rsp)         # 8-byte Spill
	movq	%r10, %r12
	movl	%r11d, %ebp
	callq	Pin
	movl	%ebp, %r11d
	movq	%r12, %r10
	movq	240(%rsp), %r12         # 8-byte Reload
	movq	248(%rsp), %r8          # 8-byte Reload
	movq	272(%rsp), %r9          # 8-byte Reload
	movl	$1, "PinFlag-14.00101"(%rip)
.LBB18_117:                             # %if.end73.lr.ph.i.us.i
                                        #   Parent Loop BB18_66 Depth=1
                                        #     Parent Loop BB18_70 Depth=2
                                        #       Parent Loop BB18_79 Depth=3
                                        #         Parent Loop BB18_93 Depth=4
                                        #           Parent Loop BB18_102 Depth=5
                                        # =>          This Loop Header: Depth=6
                                        #               Child Loop BB18_120 Depth 7
	movslq	%r11d, %rbp
	cmpl	$0, "PinFlag-14.001010"(%rip)
	jne	.LBB18_119
# BB#118:                               #   in Loop: Header=BB18_117 Depth=6
	movl	$.L__unnamed_28, %edi
	movl	$1, %esi
	xorl	%edx, %edx
	movl	$16, %ecx
	movq	%r8, 248(%rsp)          # 8-byte Spill
	movl	$1, %r8d
	movq	%r12, 240(%rsp)         # 8-byte Spill
	movq	%r9, %r12
	movq	%r10, %r14
	callq	Pin
	movq	%r14, %r10
	movq	248(%rsp), %r8          # 8-byte Reload
	movq	%r12, %r9
	movq	240(%rsp), %r12         # 8-byte Reload
	movq	168(%rsp), %r14         # 8-byte Reload
	movl	$1, "PinFlag-14.001010"(%rip)
.LBB18_119:                             #   in Loop: Header=BB18_117 Depth=6
	leaq	(%r14,%rbp,4), %rax
	.align	16, 0x90
.LBB18_120:                             # %if.end73.i.us.i
                                        #   Parent Loop BB18_66 Depth=1
                                        #     Parent Loop BB18_70 Depth=2
                                        #       Parent Loop BB18_79 Depth=3
                                        #         Parent Loop BB18_93 Depth=4
                                        #           Parent Loop BB18_102 Depth=5
                                        #             Parent Loop BB18_117 Depth=6
                                        # =>            This Inner Loop Header: Depth=7
	movl	(%rax), %ecx
	leal	(%rcx,%r15), %edx
	movzbl	(%r9,%rdx), %edx
	movzbl	%r13b, %esi
	cmpl	%esi, %edx
	je	.LBB18_125
# BB#121:                               # %if.end95.i.us.i
                                        #   in Loop: Header=BB18_120 Depth=7
	movzbl	%dl, %edx
	cmpl	%esi, %edx
	jb	.LBB18_124
# BB#122:                               # %if.end99.i.us.i
                                        #   in Loop: Header=BB18_120 Depth=7
	addq	$-4, %rax
	cmpq	%rbp, %rbx
	leaq	-1(%rbp), %rbp
	jl	.LBB18_120
	jmp	.LBB18_123
	.align	16, 0x90
.LBB18_125:                             # %if.then83.i.us.i
                                        #   in Loop: Header=BB18_117 Depth=6
	movl	(%r14,%r8,4), %edx
	movl	%edx, (%rax)
	movl	%ecx, (%r14,%r8,4)
	decq	%r8
	leal	-1(%rbp), %r11d
	cmpl	%ebp, %r10d
	jl	.LBB18_117
	jmp	.LBB18_126
	.align	16, 0x90
.LBB18_123:                             # %while.end117.loopexit.i.us.i
                                        #   in Loop: Header=BB18_93 Depth=4
	movl	%ebp, %r11d
.LBB18_126:                             # %while.end117.i.us.i
                                        #   in Loop: Header=BB18_93 Depth=4
	cmpl	%r12d, %r8d
	jge	.LBB18_205
# BB#127:                               # %if.then120.i.us.i
                                        #   in Loop: Header=BB18_93 Depth=4
	leal	1(%r15), %ecx
	movq	200(%rsp), %rax         # 8-byte Reload
	movl	%ecx, 3616(%rsp,%rax,4)
	cmpl	$14, %r15d
	movl	%ecx, %r15d
	movq	184(%rsp), %rbx         # 8-byte Reload
	jl	.LBB18_93
	jmp	.LBB18_128
.LBB18_171:                             #   in Loop: Header=BB18_79 Depth=3
	movq	%r12, 136(%rsp)         # 8-byte Spill
	movl	$.L__unnamed_29, %edi
	movl	$1, %esi
	movl	$1762, %edx             # imm = 0x6E2
	movl	$57, %ecx
	xorl	%r8d, %r8d
	callq	Pin
	movl	$1, "PinFlag-14.000"(%rip)
	.align	16, 0x90
.LBB18_172:                             # %if.end18.i.i
                                        #   Parent Loop BB18_66 Depth=1
                                        #     Parent Loop BB18_70 Depth=2
                                        #       Parent Loop BB18_79 Depth=3
                                        # =>      This Loop Header: Depth=4
                                        #           Child Loop BB18_181 Depth 5
                                        #             Child Loop BB18_184 Depth 6
                                        #               Child Loop BB18_187 Depth 7
                                        #             Child Loop BB18_197 Depth 6
                                        #               Child Loop BB18_195 Depth 7
	movl	(%r14,%rbx,4), %eax
	addl	%r15d, %eax
	movzbl	(%rbp,%rax), %r12d
	movq	232(%rsp), %rax         # 8-byte Reload
	movl	(%r14,%rax,4), %eax
	addl	%r15d, %eax
	movzbl	(%rbp,%rax), %edx
	movq	208(%rsp), %rax         # 8-byte Reload
	movl	(%r14,%rax,4), %eax
	addl	%r15d, %eax
	movzbl	(%rbp,%rax), %eax
	cmpl	%edx, %r12d
	ja	.LBB18_173
# BB#174:                               # %if.end18.i.i
                                        #   in Loop: Header=BB18_172 Depth=4
	movb	%dl, %cl
	jmp	.LBB18_175
	.align	16, 0x90
.LBB18_173:                             #   in Loop: Header=BB18_172 Depth=4
	movb	%r12b, %cl
	movb	%dl, %r12b
.LBB18_175:                             # %if.end18.i.i
                                        #   in Loop: Header=BB18_172 Depth=4
	movzbl	%cl, %edx
	movzbl	%r12b, %esi
	cmpl	%eax, %esi
	ja	.LBB18_177
# BB#176:                               # %if.end18.i.i
                                        #   in Loop: Header=BB18_172 Depth=4
	movb	%al, %r12b
.LBB18_177:                             # %if.end18.i.i
                                        #   in Loop: Header=BB18_172 Depth=4
	cmpl	%eax, %edx
	ja	.LBB18_179
# BB#178:                               # %if.end18.i.i
                                        #   in Loop: Header=BB18_172 Depth=4
	movb	%cl, %r12b
.LBB18_179:                             # %if.end18.i.i
                                        #   in Loop: Header=BB18_172 Depth=4
	cmpl	$0, "PinFlag-14.0000"(%rip)
	movq	224(%rsp), %rax         # 8-byte Reload
	movq	%rax, %rcx
	movl	%ecx, %r8d
	movq	192(%rsp), %rax         # 8-byte Reload
	movl	%eax, %edx
	movq	%rdx, 240(%rsp)         # 8-byte Spill
	movl	%ecx, %r11d
	movl	%eax, %r10d
	jne	.LBB18_181
# BB#180:                               #   in Loop: Header=BB18_172 Depth=4
	movl	$.L__unnamed_30, %edi
	movl	$1, %esi
	movl	$2041, %edx             # imm = 0x7F9
	movl	$48, %ecx
	xorl	%r8d, %r8d
	movq	%rbp, %rbx
	callq	Pin
	movq	%rbx, %rbp
	movl	$1, "PinFlag-14.0000"(%rip)
	movq	224(%rsp), %rax         # 8-byte Reload
	movq	%rax, %rcx
	movl	%ecx, %r8d
	movq	192(%rsp), %rax         # 8-byte Reload
	movl	%eax, %edx
	movq	%rdx, 240(%rsp)         # 8-byte Spill
	movl	%ecx, %r11d
	movl	%eax, %r10d
	jmp	.LBB18_181
	.align	16, 0x90
.LBB18_309:                             # %if.end105.i.i
                                        #   in Loop: Header=BB18_181 Depth=5
	movl	(%r14,%rbx,4), %edx
	movl	%ecx, (%r14,%rbx,4)
	movl	%edx, (%rax)
	incl	%r10d
	decl	%r13d
	movl	%r13d, %r11d
.LBB18_181:                             # %while.body37.outer.i.i
                                        #   Parent Loop BB18_66 Depth=1
                                        #     Parent Loop BB18_70 Depth=2
                                        #       Parent Loop BB18_79 Depth=3
                                        #         Parent Loop BB18_172 Depth=4
                                        # =>        This Loop Header: Depth=5
                                        #             Child Loop BB18_184 Depth 6
                                        #               Child Loop BB18_187 Depth 7
                                        #             Child Loop BB18_197 Depth 6
                                        #               Child Loop BB18_195 Depth 7
	cmpl	%r11d, %r10d
	jg	.LBB18_190
# BB#182:                               # %if.end41.lr.ph.preheader.i.i
                                        #   in Loop: Header=BB18_181 Depth=5
	movslq	%r11d, %r13
	movq	240(%rsp), %rax         # 8-byte Reload
	cltq
	movq	%rax, 240(%rsp)         # 8-byte Spill
	cmpl	$0, "PinFlag-14.00000"(%rip)
	jne	.LBB18_184
# BB#183:                               #   in Loop: Header=BB18_181 Depth=5
	movl	$.L__unnamed_31, %edi
	movl	$1, %esi
	movl	$766, %edx              # imm = 0x2FE
	movl	$24, %ecx
	movq	%r8, 248(%rsp)          # 8-byte Spill
	xorl	%r8d, %r8d
	movq	%rbp, %rbx
	movq	%r10, %rbp
	movl	%r11d, 216(%rsp)        # 4-byte Spill
	callq	Pin
	movl	216(%rsp), %r11d        # 4-byte Reload
	movq	%rbp, %r10
	movq	248(%rsp), %r8          # 8-byte Reload
	movq	%rbx, %rbp
	movl	$1, "PinFlag-14.00000"(%rip)
.LBB18_184:                             # %if.end41.lr.ph.i.i
                                        #   Parent Loop BB18_66 Depth=1
                                        #     Parent Loop BB18_70 Depth=2
                                        #       Parent Loop BB18_79 Depth=3
                                        #         Parent Loop BB18_172 Depth=4
                                        #           Parent Loop BB18_181 Depth=5
                                        # =>          This Loop Header: Depth=6
                                        #               Child Loop BB18_187 Depth 7
	movslq	%r10d, %rbx
	cmpl	$0, "PinFlag-14.000000"(%rip)
	jne	.LBB18_186
# BB#185:                               #   in Loop: Header=BB18_184 Depth=6
	movl	$.L__unnamed_32, %edi
	movl	$1, %esi
	xorl	%edx, %edx
	movl	$17, %ecx
	movq	%r8, 248(%rsp)          # 8-byte Spill
	movl	$1, %r8d
	movl	%r11d, %ebp
	callq	Pin
	movl	%ebp, %r11d
	movq	248(%rsp), %r8          # 8-byte Reload
	movq	272(%rsp), %rbp         # 8-byte Reload
	movl	$1, "PinFlag-14.000000"(%rip)
.LBB18_186:                             #   in Loop: Header=BB18_184 Depth=6
	leaq	(%r14,%rbx,4), %rax
	.align	16, 0x90
.LBB18_187:                             # %if.end41.i.i
                                        #   Parent Loop BB18_66 Depth=1
                                        #     Parent Loop BB18_70 Depth=2
                                        #       Parent Loop BB18_79 Depth=3
                                        #         Parent Loop BB18_172 Depth=4
                                        #           Parent Loop BB18_181 Depth=5
                                        #             Parent Loop BB18_184 Depth=6
                                        # =>            This Inner Loop Header: Depth=7
	movl	(%rax), %ecx
	leal	(%rcx,%r15), %edx
	movzbl	(%rbp,%rdx), %edx
	movzbl	%r12b, %esi
	cmpl	%esi, %edx
	je	.LBB18_188
# BB#193:                               # %if.end62.i.i
                                        #   in Loop: Header=BB18_187 Depth=7
	movzbl	%dl, %ecx
	cmpl	%esi, %ecx
	ja	.LBB18_189
# BB#194:                               # %if.end66.i.i
                                        #   in Loop: Header=BB18_187 Depth=7
	addq	$4, %rax
	cmpq	%r13, %rbx
	leaq	1(%rbx), %rbx
	jl	.LBB18_187
	jmp	.LBB18_189
	.align	16, 0x90
.LBB18_188:                             # %if.then51.i.i
                                        #   in Loop: Header=BB18_184 Depth=6
	movq	240(%rsp), %rsi         # 8-byte Reload
	movl	(%r14,%rsi,4), %edx
	movl	%edx, (%rax)
	movl	%ecx, (%r14,%rsi,4)
	incq	%rsi
	movq	%rsi, 240(%rsp)         # 8-byte Spill
	leal	1(%rbx), %r10d
	cmpl	%r11d, %ebx
	jl	.LBB18_184
	jmp	.LBB18_190
	.align	16, 0x90
.LBB18_189:                             # %if.end62.i.i.while.body69.preheader.loopexit.i.i_crit_edge
                                        #   in Loop: Header=BB18_181 Depth=5
	movl	%ebx, %r10d
.LBB18_190:                             # %while.body69.preheader.i.i
                                        #   in Loop: Header=BB18_181 Depth=5
	cmpl	%r11d, %r10d
	jg	.LBB18_203
# BB#191:                               # %if.end73.lr.ph.preheader.i.i
                                        #   in Loop: Header=BB18_181 Depth=5
	movslq	%r10d, %rbx
	movslq	%r8d, %r8
	cmpl	$0, "PinFlag-14.00001"(%rip)
	jne	.LBB18_197
# BB#192:                               #   in Loop: Header=BB18_181 Depth=5
	movl	$.L__unnamed_33, %edi
	movl	$1, %esi
	movl	$766, %edx              # imm = 0x2FE
	movl	$24, %ecx
	movq	%r8, 248(%rsp)          # 8-byte Spill
	xorl	%r8d, %r8d
	movq	%r10, %r13
	movl	%r11d, 216(%rsp)        # 4-byte Spill
	callq	Pin
	movl	216(%rsp), %r11d        # 4-byte Reload
	movq	%r13, %r10
	movq	248(%rsp), %r8          # 8-byte Reload
	movl	$1, "PinFlag-14.00001"(%rip)
.LBB18_197:                             # %if.end73.lr.ph.i.i
                                        #   Parent Loop BB18_66 Depth=1
                                        #     Parent Loop BB18_70 Depth=2
                                        #       Parent Loop BB18_79 Depth=3
                                        #         Parent Loop BB18_172 Depth=4
                                        #           Parent Loop BB18_181 Depth=5
                                        # =>          This Loop Header: Depth=6
                                        #               Child Loop BB18_195 Depth 7
	movslq	%r11d, %r13
	cmpl	$0, "PinFlag-14.000010"(%rip)
	jne	.LBB18_199
# BB#198:                               #   in Loop: Header=BB18_197 Depth=6
	movl	$.L__unnamed_34, %edi
	movl	$1, %esi
	xorl	%edx, %edx
	movl	$16, %ecx
	movq	%r8, 248(%rsp)          # 8-byte Spill
	movl	$1, %r8d
	movq	%r10, %rbp
	callq	Pin
	movq	%rbp, %r10
	movq	248(%rsp), %r8          # 8-byte Reload
	movq	272(%rsp), %rbp         # 8-byte Reload
	movl	$1, "PinFlag-14.000010"(%rip)
.LBB18_199:                             #   in Loop: Header=BB18_197 Depth=6
	leaq	(%r14,%r13,4), %rax
	.align	16, 0x90
.LBB18_195:                             # %if.end73.i.i
                                        #   Parent Loop BB18_66 Depth=1
                                        #     Parent Loop BB18_70 Depth=2
                                        #       Parent Loop BB18_79 Depth=3
                                        #         Parent Loop BB18_172 Depth=4
                                        #           Parent Loop BB18_181 Depth=5
                                        #             Parent Loop BB18_197 Depth=6
                                        # =>            This Inner Loop Header: Depth=7
	movl	(%rax), %ecx
	leal	(%rcx,%r15), %edx
	movzbl	(%rbp,%rdx), %edx
	movzbl	%r12b, %esi
	cmpl	%esi, %edx
	je	.LBB18_196
# BB#200:                               # %if.end95.i.i
                                        #   in Loop: Header=BB18_195 Depth=7
	movzbl	%dl, %edx
	cmpl	%esi, %edx
	jb	.LBB18_309
# BB#201:                               # %if.end99.i.i
                                        #   in Loop: Header=BB18_195 Depth=7
	addq	$-4, %rax
	cmpq	%r13, %rbx
	leaq	-1(%r13), %r13
	jl	.LBB18_195
	jmp	.LBB18_202
	.align	16, 0x90
.LBB18_196:                             # %if.then83.i.i
                                        #   in Loop: Header=BB18_197 Depth=6
	movl	(%r14,%r8,4), %edx
	movl	%edx, (%rax)
	movl	%ecx, (%r14,%r8,4)
	decq	%r8
	leal	-1(%r13), %r11d
	cmpl	%r13d, %r10d
	jl	.LBB18_197
	jmp	.LBB18_203
	.align	16, 0x90
.LBB18_202:                             # %while.end117.loopexit.i.i
                                        #   in Loop: Header=BB18_172 Depth=4
	movl	%r13d, %r11d
.LBB18_203:                             # %while.end117.i.i
                                        #   in Loop: Header=BB18_172 Depth=4
	movq	%rbp, %rbx
	movq	240(%rsp), %r12         # 8-byte Reload
	cmpl	%r12d, %r8d
	jge	.LBB18_205
# BB#204:                               # %if.then120.i.i
                                        #   in Loop: Header=BB18_172 Depth=4
	leal	1(%r15), %ebp
	movq	200(%rsp), %rax         # 8-byte Reload
	movl	%ebp, 3616(%rsp,%rax,4)
	movl	$1001, %edi             # imm = 0x3E9
	callq	BZ2_bz__AssertH__fail
	movq	%rbp, %rcx
	cmpl	$13, %r15d
	movl	%ecx, %r15d
	movq	%rbx, %rbp
	movq	184(%rsp), %rbx         # 8-byte Reload
	jle	.LBB18_172
	.align	16, 0x90
.LBB18_128:                             # %if.then14.i.i
                                        #   in Loop: Header=BB18_79 Depth=3
	movq	144(%rsp), %rbx         # 8-byte Reload
	leal	1(%rbx), %eax
	cmpl	$2, %eax
	jl	.LBB18_168
# BB#129:                               # %while.cond.i.i.i.preheader
                                        #   in Loop: Header=BB18_79 Depth=3
	movq	$-1, %rbp
	cmpl	$0, "PinFlag-14.006"(%rip)
	je	.LBB18_131
# BB#130:                               #   in Loop: Header=BB18_79 Depth=3
	movq	%rcx, %r12
	jmp	.LBB18_132
	.align	16, 0x90
.LBB18_205:                             # %if.end129.i.i
                                        #   in Loop: Header=BB18_79 Depth=3
	movl	%r12d, %eax
	movq	192(%rsp), %rcx         # 8-byte Reload
	subl	%ecx, %eax
	movl	%r10d, %ebx
	subl	%r12d, %ebx
	cmpl	%ebx, %eax
	cmovlel	%eax, %ebx
	testl	%ebx, %ebx
	jle	.LBB18_223
# BB#206:                               # %while.body140.preheader.i.i
                                        #   in Loop: Header=BB18_79 Depth=3
	movq	192(%rsp), %rax         # 8-byte Reload
	leal	-1(%rax), %esi
	subl	%r12d, %esi
	leal	-1(%r12), %ebp
	subl	%r10d, %ebp
	cmpl	%ebp, %esi
	movl	%ebp, %eax
	cmovgel	%esi, %eax
	leal	1(%r10,%rax), %eax
	movslq	%eax, %r9
	cmpl	%esi, %ebp
	movl	%esi, %eax
	cmovgel	%ebp, %eax
	cmpl	$-3, %eax
	movl	$-2, %edx
	cmovgl	%eax, %edx
	subl	%eax, %edx
	incq	%rdx
	cmpq	$4, %rdx
	jb	.LBB18_219
# BB#207:                               # %min.iters.checked523
                                        #   in Loop: Header=BB18_79 Depth=3
	movq	%rdx, %rcx
	movabsq	$8589934588, %rax       # imm = 0x1FFFFFFFC
	andq	%rax, %rcx
	je	.LBB18_219
# BB#208:                               # %vector.memcheck543
                                        #   in Loop: Header=BB18_79 Depth=3
	movq	%rcx, 216(%rsp)         # 8-byte Spill
	movq	184(%rsp), %rdi         # 8-byte Reload
	leaq	(%r14,%rdi,4), %r13
	cmpl	%esi, %ebp
	movl	%esi, %ecx
	movq	%rsi, 232(%rsp)         # 8-byte Spill
	cmovgel	%ebp, %ecx
	cmpl	$-3, %ecx
	movl	$-2, %eax
	cmovgl	%ecx, %eax
	subl	%ecx, %eax
	leal	1(%r10,%rcx), %ecx
	movslq	%ecx, %rcx
	leaq	(%rcx,%rax), %rsi
	leaq	(%r14,%rsi,4), %rsi
	cmpq	%rsi, %r13
	ja	.LBB18_210
# BB#209:                               # %vector.memcheck543
                                        #   in Loop: Header=BB18_79 Depth=3
	addq	%rdi, %rax
	leaq	(%r14,%rax,4), %rax
	leaq	(%r14,%rcx,4), %rcx
	cmpq	%rax, %rcx
	jbe	.LBB18_219
.LBB18_210:                             # %vector.body516.preheader
                                        #   in Loop: Header=BB18_79 Depth=3
	movq	%rdx, 208(%rsp)         # 8-byte Spill
	movq	232(%rsp), %rdx         # 8-byte Reload
	cmpl	%edx, %ebp
	movl	%edx, %eax
	cmovgel	%ebp, %eax
	cmpl	$-3, %eax
	movl	$-2, %ecx
	cmovgl	%eax, %ecx
	subl	%eax, %ecx
	incq	%rcx
	movabsq	$8589934588, %rax       # imm = 0x1FFFFFFFC
	andq	%rax, %rcx
	addq	$-4, %rcx
	movq	%rcx, %rax
	shrq	$2, %rax
	btq	$2, %rcx
	movl	$0, %r13d
	jb	.LBB18_212
# BB#211:                               # %vector.body516.prol
                                        #   in Loop: Header=BB18_79 Depth=3
	movq	184(%rsp), %rcx         # 8-byte Reload
	movdqu	(%r14,%rcx,4), %xmm0
	movdqu	(%r14,%r9,4), %xmm1
	movdqu	%xmm1, (%r14,%rcx,4)
	movdqu	%xmm0, (%r14,%r9,4)
	movl	$4, %r13d
.LBB18_212:                             # %vector.body516.preheader.split
                                        #   in Loop: Header=BB18_79 Depth=3
	testq	%rax, %rax
	je	.LBB18_217
# BB#213:                               # %vector.body516.preheader.split.split
                                        #   in Loop: Header=BB18_79 Depth=3
	cmpl	$0, "PinFlag-14.002"(%rip)
	jne	.LBB18_215
# BB#214:                               #   in Loop: Header=BB18_79 Depth=3
	movl	$.L__unnamed_35, %edi
	movl	$1, %esi
	movl	$1120, %edx             # imm = 0x460
	movl	$29, %ecx
	movq	%r8, 248(%rsp)          # 8-byte Spill
	movl	$1, %r8d
	movq	%r12, 240(%rsp)         # 8-byte Spill
	movq	%r10, 144(%rsp)         # 8-byte Spill
	movl	%r11d, %r12d
	movq	%r9, (%rsp)             # 8-byte Spill
	callq	Pin
	movq	232(%rsp), %rdx         # 8-byte Reload
	movq	(%rsp), %r9             # 8-byte Reload
	movl	%r12d, %r11d
	movq	144(%rsp), %r10         # 8-byte Reload
	movq	240(%rsp), %r12         # 8-byte Reload
	movq	248(%rsp), %r8          # 8-byte Reload
	movl	$1, "PinFlag-14.002"(%rip)
.LBB18_215:                             #   in Loop: Header=BB18_79 Depth=3
	cmpl	%edx, %ebp
	cmovgel	%ebp, %edx
	cmpl	$-3, %edx
	movl	$-2, %eax
	cmovgl	%edx, %eax
	subl	%edx, %eax
	incq	%rax
	movabsq	$8589934588, %rcx       # imm = 0x1FFFFFFFC
	andq	%rcx, %rax
	subq	%r13, %rax
	leal	1(%r10,%rdx), %ecx
	movslq	%ecx, %rcx
	addq	%r13, %rcx
	movq	24(%rsp), %rdx          # 8-byte Reload
	leaq	(%rdx,%rcx,4), %rcx
	addq	184(%rsp), %r13         # 8-byte Folded Reload
	leaq	(%rdx,%r13,4), %rdx
	.align	16, 0x90
.LBB18_216:                             # %vector.body516
                                        #   Parent Loop BB18_66 Depth=1
                                        #     Parent Loop BB18_70 Depth=2
                                        #       Parent Loop BB18_79 Depth=3
                                        # =>      This Inner Loop Header: Depth=4
	movups	-16(%rdx), %xmm0
	movups	-16(%rcx), %xmm1
	movups	%xmm1, -16(%rdx)
	movups	%xmm0, -16(%rcx)
	movdqu	(%rdx), %xmm0
	movdqu	(%rcx), %xmm1
	movdqu	%xmm1, (%rdx)
	movdqu	%xmm0, (%rcx)
	addq	$32, %rcx
	addq	$32, %rdx
	addq	$-8, %rax
	jne	.LBB18_216
.LBB18_217:                             # %middle.block517
                                        #   in Loop: Header=BB18_79 Depth=3
	movq	216(%rsp), %rax         # 8-byte Reload
	cmpq	%rax, 208(%rsp)         # 8-byte Folded Reload
	je	.LBB18_223
# BB#218:                               #   in Loop: Header=BB18_79 Depth=3
	addq	%rax, 184(%rsp)         # 8-byte Folded Spill
	addq	%rax, %r9
	subl	%eax, %ebx
.LBB18_219:                             # %while.body140.i.i.preheader
                                        #   in Loop: Header=BB18_79 Depth=3
	movl	%ebx, %eax
	notl	%eax
	cmpl	$-3, %eax
	movl	$-2, %ecx
	cmovlel	%ecx, %eax
	cmpl	$0, "PinFlag-14.003"(%rip)
	jne	.LBB18_221
# BB#220:                               #   in Loop: Header=BB18_79 Depth=3
	leal	1(%rbx,%rax), %eax
	movslq	%eax, %rsi
	movl	$.L__unnamed_36, %edi
	movl	$240, %edx
	movl	$14, %ecx
	movq	%r12, 240(%rsp)         # 8-byte Spill
	movq	%r8, 248(%rsp)          # 8-byte Spill
	movl	$1, %r8d
	movq	%r10, %rbp
	movl	%r11d, %r13d
	movq	%r9, %r12
	callq	Pin
	movq	%r12, %r9
	movl	%r13d, %r11d
	movq	%rbp, %r10
	movq	248(%rsp), %r8          # 8-byte Reload
	movq	240(%rsp), %r12         # 8-byte Reload
	movl	$1, "PinFlag-14.003"(%rip)
.LBB18_221:                             #   in Loop: Header=BB18_79 Depth=3
	movq	184(%rsp), %rax         # 8-byte Reload
	leaq	(%r14,%rax,4), %rax
	leaq	(%r14,%r9,4), %rcx
	incl	%ebx
	.align	16, 0x90
.LBB18_222:                             # %while.body140.i.i
                                        #   Parent Loop BB18_66 Depth=1
                                        #     Parent Loop BB18_70 Depth=2
                                        #       Parent Loop BB18_79 Depth=3
                                        # =>      This Inner Loop Header: Depth=4
	movl	(%rax), %edx
	movl	(%rcx), %esi
	movl	%esi, (%rax)
	movl	%edx, (%rcx)
	addq	$4, %rax
	addq	$4, %rcx
	decl	%ebx
	cmpl	$1, %ebx
	jg	.LBB18_222
.LBB18_223:                             # %while.end153.i.i
                                        #   in Loop: Header=BB18_79 Depth=3
	movq	224(%rsp), %rbx         # 8-byte Reload
	subl	%r8d, %ebx
	movl	%r8d, %edi
	subl	%r11d, %edi
	cmpl	%edi, %ebx
	cmovgl	%edi, %ebx
	testl	%ebx, %ebx
	jle	.LBB18_241
# BB#224:                               # %while.body172.preheader.i.i
                                        #   in Loop: Header=BB18_79 Depth=3
	movq	224(%rsp), %rax         # 8-byte Reload
	movl	%eax, %r9d
	subl	%ebx, %r9d
	movslq	%r10d, %rbp
	decl	%r11d
	subl	%r8d, %r11d
	decl	%r8d
	subl	%eax, %r8d
	cmpl	%r8d, %r11d
	movl	%r8d, %eax
	cmovgel	%r11d, %eax
	cmpl	$-3, %eax
	movl	$-2, %r13d
	cmovgl	%eax, %r13d
	subl	%eax, %r13d
	incq	%r13
	cmpq	$4, %r13
	jb	.LBB18_237
# BB#225:                               # %min.iters.checked475
                                        #   in Loop: Header=BB18_79 Depth=3
	movq	%r13, %rcx
	movabsq	$8589934588, %rax       # imm = 0x1FFFFFFFC
	andq	%rax, %rcx
	je	.LBB18_237
# BB#226:                               # %vector.memcheck492
                                        #   in Loop: Header=BB18_79 Depth=3
	movq	%rcx, 184(%rsp)         # 8-byte Spill
	leaq	(%r14,%rbp,4), %rdx
	cmpl	%r8d, %r11d
	movl	%r8d, %ecx
	cmovgel	%r11d, %ecx
	cmpl	$-3, %ecx
	movl	$-2, %eax
	cmovgl	%ecx, %eax
	subl	%ecx, %eax
	movq	224(%rsp), %rsi         # 8-byte Reload
	leal	2(%rsi,%rcx), %ecx
	movslq	%ecx, %rcx
	leaq	(%rcx,%rax), %rsi
	leaq	(%r14,%rsi,4), %rsi
	cmpq	%rsi, %rdx
	ja	.LBB18_228
# BB#227:                               # %vector.memcheck492
                                        #   in Loop: Header=BB18_79 Depth=3
	addq	%rbp, %rax
	leaq	(%r14,%rax,4), %rax
	leaq	(%r14,%rcx,4), %rcx
	cmpq	%rax, %rcx
	jbe	.LBB18_237
.LBB18_228:                             # %vector.body470.preheader
                                        #   in Loop: Header=BB18_79 Depth=3
	movq	%rbp, 232(%rsp)         # 8-byte Spill
	cmpl	%r8d, %r11d
	movl	%r8d, %eax
	cmovgel	%r11d, %eax
	cmpl	$-3, %eax
	movl	$-2, %ecx
	cmovgl	%eax, %ecx
	subl	%eax, %ecx
	incq	%rcx
	movabsq	$8589934588, %rax       # imm = 0x1FFFFFFFC
	andq	%rax, %rcx
	addq	$-4, %rcx
	movq	%rcx, %rax
	shrq	$2, %rax
	btq	$2, %rcx
	movl	$0, %ebp
	jb	.LBB18_230
# BB#229:                               # %vector.body470.prol
                                        #   in Loop: Header=BB18_79 Depth=3
	movq	232(%rsp), %rdx         # 8-byte Reload
	movdqu	(%r14,%rdx,4), %xmm0
	leal	1(%r9), %ecx
	movslq	%ecx, %rcx
	movdqu	(%r14,%rcx,4), %xmm1
	movdqu	%xmm1, (%r14,%rdx,4)
	movdqu	%xmm0, (%r14,%rcx,4)
	movl	$4, %ebp
.LBB18_230:                             # %vector.body470.preheader.split
                                        #   in Loop: Header=BB18_79 Depth=3
	testq	%rax, %rax
	je	.LBB18_235
# BB#231:                               # %vector.body470.preheader.split.split
                                        #   in Loop: Header=BB18_79 Depth=3
	cmpl	$0, "PinFlag-14.004"(%rip)
	jne	.LBB18_233
# BB#232:                               #   in Loop: Header=BB18_79 Depth=3
	movl	%edi, 208(%rsp)         # 4-byte Spill
	movl	$.L__unnamed_37, %edi
	movl	$1, %esi
	movl	$1120, %edx             # imm = 0x460
	movl	$35, %ecx
	movq	%r8, 248(%rsp)          # 8-byte Spill
	movl	$1, %r8d
	movq	%r12, 240(%rsp)         # 8-byte Spill
	movq	%r10, %r12
	movl	%r11d, 216(%rsp)        # 4-byte Spill
	movq	%r9, 144(%rsp)          # 8-byte Spill
	callq	Pin
	movq	144(%rsp), %r9          # 8-byte Reload
	movl	208(%rsp), %edi         # 4-byte Reload
	movl	216(%rsp), %r11d        # 4-byte Reload
	movq	%r12, %r10
	movq	240(%rsp), %r12         # 8-byte Reload
	movq	248(%rsp), %r8          # 8-byte Reload
	movl	$1, "PinFlag-14.004"(%rip)
.LBB18_233:                             #   in Loop: Header=BB18_79 Depth=3
	cmpl	%r8d, %r11d
	cmovgel	%r11d, %r8d
	cmpl	$-3, %r8d
	movl	$-2, %eax
	cmovgl	%r8d, %eax
	subl	%r8d, %eax
	incq	%rax
	movabsq	$8589934588, %rcx       # imm = 0x1FFFFFFFC
	andq	%rcx, %rax
	movq	224(%rsp), %rcx         # 8-byte Reload
	addl	%ecx, %r8d
	movslq	%r10d, %rcx
	movq	24(%rsp), %rdx          # 8-byte Reload
	leaq	(%rdx,%rcx,4), %rcx
	.align	16, 0x90
.LBB18_234:                             # %vector.body470
                                        #   Parent Loop BB18_66 Depth=1
                                        #     Parent Loop BB18_70 Depth=2
                                        #       Parent Loop BB18_79 Depth=3
                                        # =>      This Inner Loop Header: Depth=4
	movups	-16(%rcx,%rbp,4), %xmm0
	leal	2(%r8,%rbp), %edx
	movslq	%edx, %rdx
	movups	(%r14,%rdx,4), %xmm1
	movups	%xmm1, -16(%rcx,%rbp,4)
	movups	%xmm0, (%r14,%rdx,4)
	movdqu	(%rcx,%rbp,4), %xmm0
	leal	6(%r8,%rbp), %edx
	movslq	%edx, %rdx
	movdqu	(%r14,%rdx,4), %xmm1
	movdqu	%xmm1, (%rcx,%rbp,4)
	movdqu	%xmm0, (%r14,%rdx,4)
	addq	$8, %rbp
	cmpq	%rbp, %rax
	jne	.LBB18_234
.LBB18_235:                             # %middle.block471
                                        #   in Loop: Header=BB18_79 Depth=3
	movq	184(%rsp), %rax         # 8-byte Reload
	cmpq	%rax, %r13
	je	.LBB18_241
# BB#236:                               #   in Loop: Header=BB18_79 Depth=3
	movq	232(%rsp), %rbp         # 8-byte Reload
	addq	%rax, %rbp
	addl	%eax, %r9d
	subl	%eax, %ebx
.LBB18_237:                             # %while.body172.i.i.preheader
                                        #   in Loop: Header=BB18_79 Depth=3
	movl	%ebx, %eax
	notl	%eax
	cmpl	$-3, %eax
	movl	$-2, %ecx
	cmovlel	%ecx, %eax
	cmpl	$0, "PinFlag-14.005"(%rip)
	jne	.LBB18_239
# BB#238:                               #   in Loop: Header=BB18_79 Depth=3
	leal	1(%rbx,%rax), %eax
	movslq	%eax, %rsi
	movl	%edi, 208(%rsp)         # 4-byte Spill
	movl	$.L__unnamed_38, %edi
	movl	$240, %edx
	movl	$15, %ecx
	movl	$1, %r8d
	movq	%rbp, 232(%rsp)         # 8-byte Spill
	movq	%r10, %rbp
	movq	%r9, %r13
	callq	Pin
	movq	%r13, %r9
	movl	208(%rsp), %edi         # 4-byte Reload
	movq	%rbp, %r10
	movq	232(%rsp), %rbp         # 8-byte Reload
	movl	$1, "PinFlag-14.005"(%rip)
.LBB18_239:                             #   in Loop: Header=BB18_79 Depth=3
	leaq	(%r14,%rbp,4), %rax
	incl	%r9d
	movslq	%r9d, %rcx
	leaq	(%r14,%rcx,4), %rcx
	incl	%ebx
	.align	16, 0x90
.LBB18_240:                             # %while.body172.i.i
                                        #   Parent Loop BB18_66 Depth=1
                                        #     Parent Loop BB18_70 Depth=2
                                        #       Parent Loop BB18_79 Depth=3
                                        # =>      This Inner Loop Header: Depth=4
	movl	(%rax), %edx
	movl	(%rcx), %esi
	movl	%esi, (%rax)
	movl	%edx, (%rcx)
	addq	$4, %rax
	addq	$4, %rcx
	decl	%ebx
	cmpl	$1, %ebx
	jg	.LBB18_240
.LBB18_241:                             # %while.end185.i.i
                                        #   in Loop: Header=BB18_79 Depth=3
	movq	192(%rsp), %r11         # 8-byte Reload
	movl	%r11d, %eax
	subl	%r12d, %eax
	leal	(%rax,%r10), %esi
	leal	-1(%rax,%r10), %r9d
	movq	224(%rsp), %rax         # 8-byte Reload
	movl	%eax, %ebx
	subl	%edi, %ebx
	leal	1(%rbx), %edi
	leal	1(%r15), %r8d
	movl	%r9d, %edx
	subl	%r11d, %edx
	movl	%eax, %ebp
	subl	%edi, %ebp
	cmpl	%ebp, %edx
	movl	%edi, %edx
	cmovll	%r11d, %edx
	cmovll	%edi, %r11d
	movl	%eax, %ecx
	cmovll	%r9d, %ecx
	cmovll	%eax, %r9d
	movl	%ecx, %ebp
	subl	%edx, %ebp
	movl	%ebx, %eax
	subl	%esi, %eax
	cmpl	%eax, %ebp
	movl	%edx, %eax
	cmovll	%esi, %eax
	movl	%ebx, %r10d
	cmovll	%ecx, %r10d
	cmovll	%ebx, %ecx
	movl	%r15d, %ebx
	cmovll	%r8d, %ebx
	cmovll	%r15d, %r8d
	cmovgel	%esi, %edx
	movl	%r9d, %esi
	subl	%r11d, %esi
	movl	%ecx, %edi
	subl	%eax, %edi
	cmpl	%edi, %esi
	movl	%eax, %r12d
	cmovll	%r11d, %r12d
	cmovgel	%r11d, %eax
	movl	%ecx, %edi
	cmovll	%r9d, %edi
	cmovgel	%r9d, %ecx
	movl	%ebx, %ebp
	cmovll	%r15d, %ebp
	cmovgel	%r15d, %ebx
	movq	200(%rsp), %rsi         # 8-byte Reload
	movl	%eax, 4416(%rsp,%rsi,4)
	movl	%ecx, 4016(%rsp,%rsi,4)
	movl	%ebx, 3616(%rsp,%rsi,4)
	movq	136(%rsp), %rax         # 8-byte Reload
	movl	%r12d, 4416(%rsp,%rax,4)
	movl	%edi, 4016(%rsp,%rax,4)
	movl	%ebp, 3616(%rsp,%rax,4)
	movl	%edx, 4420(%rsp,%rax,4)
	movl	%r10d, 4020(%rsp,%rax,4)
	movl	%r8d, 3620(%rsp,%rax,4)
	movl	156(%rsp), %ebp         # 4-byte Reload
	addl	$2, %ebp
	movl	160(%rsp), %edx         # 4-byte Reload
	jmp	.LBB18_170
.LBB18_131:                             #   in Loop: Header=BB18_79 Depth=3
	movq	%rcx, %r12
	movslq	%ebx, %rsi
	movl	$.L__unnamed_39, %edi
	movl	$2, %edx
	movl	$6, %ecx
	movl	$1, %r8d
	callq	Pin
	movl	$1, "PinFlag-14.006"(%rip)
.LBB18_132:                             # %while.cond.i.i.i
                                        #   in Loop: Header=BB18_79 Depth=3
	movq	192(%rsp), %r15         # 8-byte Reload
	.align	16, 0x90
.LBB18_133:                             # %while.cond.i.i.i
                                        #   Parent Loop BB18_66 Depth=1
                                        #     Parent Loop BB18_70 Depth=2
                                        #       Parent Loop BB18_79 Depth=3
                                        # =>      This Inner Loop Header: Depth=4
	cmpl	%ebx, incs+4(,%rbp,4)
	leaq	1(%rbp), %rbp
	jle	.LBB18_133
# BB#134:                               # %for.cond.preheader.i.i.i
                                        #   in Loop: Header=BB18_79 Depth=3
	testl	%ebp, %ebp
	movq	%r12, %rcx
	jle	.LBB18_168
# BB#135:                               # %for.body.preheader.i.i.i
                                        #   in Loop: Header=BB18_79 Depth=3
	cmpl	$0, "PinFlag-14.007"(%rip)
	jne	.LBB18_137
# BB#136:                               #   in Loop: Header=BB18_79 Depth=3
	movl	$.L__unnamed_40, %edi
	movl	$1, %esi
	movl	$6, %edx
	movq	%rcx, %rbx
	movl	$15, %ecx
	xorl	%r8d, %r8d
	callq	Pin
	movq	%rbx, %rcx
	movl	$1, "PinFlag-14.007"(%rip)
.LBB18_137:                             #   in Loop: Header=BB18_79 Depth=3
	movslq	%ebp, %rax
	leal	1(%r15), %edx
	movl	%edx, 144(%rsp)         # 4-byte Spill
	leal	2(%r15), %edx
	movl	%edx, 136(%rsp)         # 4-byte Spill
.LBB18_139:                             # %for.body.i.i.i
                                        #   Parent Loop BB18_66 Depth=1
                                        #     Parent Loop BB18_70 Depth=2
                                        #       Parent Loop BB18_79 Depth=3
                                        # =>      This Loop Header: Depth=4
                                        #           Child Loop BB18_143 Depth 5
                                        #             Child Loop BB18_146 Depth 6
                                        #             Child Loop BB18_153 Depth 6
                                        #             Child Loop BB18_160 Depth 6
	movq	%rax, %rdx
	movq	%rdx, 160(%rsp)         # 8-byte Spill
	leaq	-1(%rdx), %rax
	movl	incs-4(,%rdx,4), %r12d
	leal	(%r12,%r15), %edx
	movl	%edx, 248(%rsp)         # 4-byte Spill
	movslq	%edx, %rbp
	cmpl	$0, "PinFlag-14.0070"(%rip)
	je	.LBB18_141
# BB#140:                               #   in Loop: Header=BB18_139 Depth=4
	movq	%rax, 184(%rsp)         # 8-byte Spill
	jmp	.LBB18_142
	.align	16, 0x90
.LBB18_141:                             #   in Loop: Header=BB18_139 Depth=4
	movq	%rax, 184(%rsp)         # 8-byte Spill
	movl	$.L__unnamed_41, %edi
	movl	$1, %esi
	movl	$5203, %edx             # imm = 0x1453
	movq	%rcx, %rbx
	movl	$58, %ecx
	xorl	%r8d, %r8d
	callq	Pin
	movq	%rbx, %rcx
	movl	$1, "PinFlag-14.0070"(%rip)
.LBB18_142:                             # %while.body7.i.i.i
                                        #   in Loop: Header=BB18_139 Depth=4
	movl	136(%rsp), %eax         # 4-byte Reload
	movl	%eax, 208(%rsp)         # 4-byte Spill
	movl	144(%rsp), %eax         # 4-byte Reload
	movl	%eax, 216(%rsp)         # 4-byte Spill
	movl	%r15d, %eax
	movl	%eax, 224(%rsp)         # 4-byte Spill
	.align	16, 0x90
.LBB18_143:                             # %while.body7.i.i.i
                                        #   Parent Loop BB18_66 Depth=1
                                        #     Parent Loop BB18_70 Depth=2
                                        #       Parent Loop BB18_79 Depth=3
                                        #         Parent Loop BB18_139 Depth=4
                                        # =>        This Loop Header: Depth=5
                                        #             Child Loop BB18_146 Depth 6
                                        #             Child Loop BB18_153 Depth 6
                                        #             Child Loop BB18_160 Depth 6
	cmpq	232(%rsp), %rbp         # 8-byte Folded Reload
	jg	.LBB18_138
# BB#144:                               # %if.end10.i.i.i
                                        #   in Loop: Header=BB18_143 Depth=5
	movl	(%r14,%rbp,4), %eax
	movq	%rax, 200(%rsp)         # 8-byte Spill
	movq	%rbp, 240(%rsp)         # 8-byte Spill
	leal	(%rax,%rcx), %ebp
	cmpl	$0, "PinFlag-14.00700"(%rip)
	movl	224(%rsp), %eax         # 4-byte Reload
	movq	%r14, %rbx
	jne	.LBB18_146
# BB#145:                               #   in Loop: Header=BB18_143 Depth=5
	movl	$.L__unnamed_42, %edi
	movl	$1, %esi
	movl	$378, %edx              # imm = 0x17A
	movq	%rcx, %r14
	movl	$15, %ecx
	movl	$1, %r8d
	callq	Pin
	movq	%r14, %rcx
	movl	$1, "PinFlag-14.00700"(%rip)
	movl	224(%rsp), %eax         # 4-byte Reload
	.align	16, 0x90
.LBB18_146:                             # %while.cond13.i.i.i
                                        #   Parent Loop BB18_66 Depth=1
                                        #     Parent Loop BB18_70 Depth=2
                                        #       Parent Loop BB18_79 Depth=3
                                        #         Parent Loop BB18_139 Depth=4
                                        #           Parent Loop BB18_143 Depth=5
                                        # =>          This Inner Loop Header: Depth=6
	leal	(%r12,%rax), %r15d
	movslq	%eax, %r14
	movl	(%rbx,%r14,4), %edi
	addl	%ecx, %edi
	movq	%rcx, %r13
	movl	%ebp, %esi
	movq	272(%rsp), %rdx         # 8-byte Reload
	movq	264(%rsp), %rcx         # 8-byte Reload
	movq	256(%rsp), %r8          # 8-byte Reload
	leaq	284(%rsp), %r9
	callq	mainGtU
	testb	%al, %al
	je	.LBB18_149
# BB#147:                               # %while.body19.i.i.i
                                        #   in Loop: Header=BB18_146 Depth=6
	movl	(%rbx,%r14,4), %eax
	movslq	%r15d, %rcx
	movl	%eax, (%rbx,%rcx,4)
	movl	%r14d, %eax
	subl	%r12d, %eax
	cmpl	248(%rsp), %r14d        # 4-byte Folded Reload
	movq	%r13, %rcx
	jge	.LBB18_146
# BB#148:                               # %while.end31.i.i.isplit
                                        #   in Loop: Header=BB18_143 Depth=5
	addl	%r12d, %eax
	movl	%eax, %r15d
	movq	%rbx, %r14
	jmp	.LBB18_150
	.align	16, 0x90
.LBB18_149:                             # %while.cond13.i.i.i.while.end31.i.i.i_crit_edge
                                        #   in Loop: Header=BB18_143 Depth=5
	movq	%rbx, %r14
	movq	%r13, %rcx
.LBB18_150:                             # %while.end31.i.i.i
                                        #   in Loop: Header=BB18_143 Depth=5
	movq	240(%rsp), %rdx         # 8-byte Reload
	movq	200(%rsp), %rsi         # 8-byte Reload
	movslq	%r15d, %rax
	movl	%esi, (%r14,%rax,4)
	cmpq	232(%rsp), %rdx         # 8-byte Folded Reload
	jge	.LBB18_138
# BB#151:                               # %if.end37.i.i.i
                                        #   in Loop: Header=BB18_143 Depth=5
	movl	4(%r14,%rdx,4), %eax
	movq	%rax, 200(%rsp)         # 8-byte Spill
	movq	%rdx, 240(%rsp)         # 8-byte Spill
	leal	(%rax,%rcx), %r15d
	cmpl	$0, "PinFlag-14.00701"(%rip)
	movl	216(%rsp), %eax         # 4-byte Reload
	jne	.LBB18_153
# BB#152:                               #   in Loop: Header=BB18_143 Depth=5
	movl	$.L__unnamed_43, %edi
	movl	$1, %esi
	movl	$378, %edx              # imm = 0x17A
	movq	%rcx, %rbx
	movl	$15, %ecx
	movl	$1, %r8d
	callq	Pin
	movq	%rbx, %rcx
	movl	$1, "PinFlag-14.00701"(%rip)
	movl	216(%rsp), %eax         # 4-byte Reload
	.align	16, 0x90
.LBB18_153:                             # %while.cond40.i.i.i
                                        #   Parent Loop BB18_66 Depth=1
                                        #     Parent Loop BB18_70 Depth=2
                                        #       Parent Loop BB18_79 Depth=3
                                        #         Parent Loop BB18_139 Depth=4
                                        #           Parent Loop BB18_143 Depth=5
                                        # =>          This Inner Loop Header: Depth=6
	leal	(%r12,%rax), %r13d
	movslq	%eax, %rbx
	movl	(%r14,%rbx,4), %edi
	addl	%ecx, %edi
	movq	%rcx, %rbp
	movl	%r15d, %esi
	movq	272(%rsp), %rdx         # 8-byte Reload
	movq	264(%rsp), %rcx         # 8-byte Reload
	movq	256(%rsp), %r8          # 8-byte Reload
	leaq	284(%rsp), %r9
	callq	mainGtU
	testb	%al, %al
	je	.LBB18_156
# BB#154:                               # %while.body48.i.i.i
                                        #   in Loop: Header=BB18_153 Depth=6
	movl	(%r14,%rbx,4), %eax
	movslq	%r13d, %rcx
	movl	%eax, (%r14,%rcx,4)
	movl	%ebx, %eax
	subl	%r12d, %eax
	cmpl	248(%rsp), %ebx         # 4-byte Folded Reload
	movq	%rbp, %rcx
	jge	.LBB18_153
# BB#155:                               # %while.end60.i.i.isplit
                                        #   in Loop: Header=BB18_143 Depth=5
	addl	%r12d, %eax
	movl	%eax, %r13d
	jmp	.LBB18_157
	.align	16, 0x90
.LBB18_156:                             # %while.cond40.i.i.i.while.end60.i.i.i_crit_edge
                                        #   in Loop: Header=BB18_143 Depth=5
	movq	%rbp, %rcx
.LBB18_157:                             # %while.end60.i.i.i
                                        #   in Loop: Header=BB18_143 Depth=5
	movq	240(%rsp), %rdx         # 8-byte Reload
	movq	200(%rsp), %rsi         # 8-byte Reload
	movslq	%r13d, %rax
	movl	%esi, (%r14,%rax,4)
	leaq	2(%rdx), %rax
	cmpq	232(%rsp), %rax         # 8-byte Folded Reload
	jg	.LBB18_138
# BB#158:                               # %if.end66.i.i.i
                                        #   in Loop: Header=BB18_143 Depth=5
	movl	8(%r14,%rdx,4), %eax
	movq	%rax, 200(%rsp)         # 8-byte Spill
	movq	%rdx, 240(%rsp)         # 8-byte Spill
	leal	(%rax,%rcx), %r13d
	cmpl	$0, "PinFlag-14.00702"(%rip)
	movl	208(%rsp), %eax         # 4-byte Reload
	jne	.LBB18_160
# BB#159:                               #   in Loop: Header=BB18_143 Depth=5
	movl	$.L__unnamed_44, %edi
	movl	$1, %esi
	movl	$378, %edx              # imm = 0x17A
	movq	%rcx, %rbx
	movl	$15, %ecx
	movl	$1, %r8d
	callq	Pin
	movq	%rbx, %rcx
	movl	$1, "PinFlag-14.00702"(%rip)
	movl	208(%rsp), %eax         # 4-byte Reload
	.align	16, 0x90
.LBB18_160:                             # %while.cond69.i.i.i
                                        #   Parent Loop BB18_66 Depth=1
                                        #     Parent Loop BB18_70 Depth=2
                                        #       Parent Loop BB18_79 Depth=3
                                        #         Parent Loop BB18_139 Depth=4
                                        #           Parent Loop BB18_143 Depth=5
                                        # =>          This Inner Loop Header: Depth=6
	leal	(%r12,%rax), %r15d
	movslq	%eax, %rbx
	movl	(%r14,%rbx,4), %edi
	addl	%ecx, %edi
	movq	%rcx, %rbp
	movl	%r13d, %esi
	movq	272(%rsp), %rdx         # 8-byte Reload
	movq	264(%rsp), %rcx         # 8-byte Reload
	movq	256(%rsp), %r8          # 8-byte Reload
	leaq	284(%rsp), %r9
	callq	mainGtU
	testb	%al, %al
	je	.LBB18_163
# BB#161:                               # %while.body77.i.i.i
                                        #   in Loop: Header=BB18_160 Depth=6
	movl	(%r14,%rbx,4), %eax
	movslq	%r15d, %rcx
	movl	%eax, (%r14,%rcx,4)
	movl	%ebx, %eax
	subl	%r12d, %eax
	cmpl	248(%rsp), %ebx         # 4-byte Folded Reload
	movq	%rbp, %rcx
	jge	.LBB18_160
# BB#162:                               # %while.end89.i.i.isplit
                                        #   in Loop: Header=BB18_143 Depth=5
	addl	%r12d, %eax
	movl	%eax, %r15d
	jmp	.LBB18_164
	.align	16, 0x90
.LBB18_163:                             # %while.cond69.i.i.i.while.end89.i.i.i_crit_edge
                                        #   in Loop: Header=BB18_143 Depth=5
	movq	%rbp, %rcx
.LBB18_164:                             # %while.end89.i.i.i
                                        #   in Loop: Header=BB18_143 Depth=5
	movslq	%r15d, %rax
	movq	200(%rsp), %rdx         # 8-byte Reload
	movl	%edx, (%r14,%rax,4)
	movl	284(%rsp), %edx
	movq	240(%rsp), %rbp         # 8-byte Reload
	addq	$3, %rbp
	addl	$3, 224(%rsp)           # 4-byte Folded Spill
	addl	$3, 216(%rsp)           # 4-byte Folded Spill
	addl	$3, 208(%rsp)           # 4-byte Folded Spill
	testl	%edx, %edx
	jns	.LBB18_143
	jmp	.LBB18_165
	.align	16, 0x90
.LBB18_138:                             # %for.cond.loopexit.i.i.i
                                        #   in Loop: Header=BB18_139 Depth=4
	cmpq	$2, 160(%rsp)           # 8-byte Folded Reload
	movq	192(%rsp), %r15         # 8-byte Reload
	movq	184(%rsp), %rax         # 8-byte Reload
	jge	.LBB18_139
# BB#167:                               # %mainSimpleSort.exit.i.i.loopexit
                                        #   in Loop: Header=BB18_79 Depth=3
	movl	284(%rsp), %eax
	movl	%eax, 160(%rsp)         # 4-byte Spill
	.align	16, 0x90
.LBB18_168:                             # %mainSimpleSort.exit.i.i
                                        #   in Loop: Header=BB18_79 Depth=3
	movl	160(%rsp), %edx         # 4-byte Reload
	testl	%edx, %edx
	js	.LBB18_165
# BB#169:                               #   in Loop: Header=BB18_79 Depth=3
	movl	156(%rsp), %ebp         # 4-byte Reload
	decl	%ebp
.LBB18_170:                             # %while.cond.outer.backedge.i.i
                                        #   in Loop: Header=BB18_79 Depth=3
	testl	%ebp, %ebp
	jg	.LBB18_79
.LBB18_165:                             # %mainQSort3.exit.i
                                        #   in Loop: Header=BB18_70 Depth=2
	testl	%edx, %edx
	js	.LBB18_166
# BB#242:                               # %mainQSort3.exit.if.end322_crit_edge.i
                                        #   in Loop: Header=BB18_70 Depth=2
	movl	%edx, 160(%rsp)         # 4-byte Spill
	movl	128(%rsp), %eax         # 4-byte Reload
	incl	%eax
	subl	108(%rsp), %eax         # 4-byte Folded Reload
	addl	132(%rsp), %eax         # 4-byte Folded Reload
	movl	%eax, 128(%rsp)         # 4-byte Spill
	movq	176(%rsp), %r10         # 8-byte Reload
	movq	112(%rsp), %r13         # 8-byte Reload
	movl	(%r10,%r13,4), %eax
	movl	$-2097153, %r15d        # imm = 0xFFFFFFFFFFDFFFFF
	movq	88(%rsp), %rsi          # 8-byte Reload
	movq	80(%rsp), %rdi          # 8-byte Reload
	movq	96(%rsp), %rbp          # 8-byte Reload
	movq	120(%rsp), %rbx         # 8-byte Reload
.LBB18_243:                             # %if.end322.i
                                        #   in Loop: Header=BB18_70 Depth=2
	orl	$2097152, %eax          # imm = 0x200000
	movl	%eax, (%r10,%r13,4)
.LBB18_244:                             # %for.inc327.i
                                        #   in Loop: Header=BB18_70 Depth=2
	incq	%rbx
	cmpq	$256, %rbx              # imm = 0x100
	jl	.LBB18_70
# BB#245:                               # %for.end329.i
                                        #   in Loop: Header=BB18_66 Depth=1
	cmpb	$0, 2336(%rsp,%rdi)
	je	.LBB18_247
# BB#246:                               # %if.then333.i
                                        #   in Loop: Header=BB18_66 Depth=1
	movq	%rdi, %r12
	movl	$1006, %edi             # imm = 0x3EE
	movq	%r10, %r13
	movq	%rsi, %rbx
	callq	BZ2_bz__AssertH__fail
	movq	%rbx, %rsi
	movq	%r12, %rdi
	movq	%r13, %r10
.LBB18_247:                             # %for.body338.i.preheader
                                        #   in Loop: Header=BB18_66 Depth=1
	cmpl	$0, "PinFlag-14.1"(%rip)
	jne	.LBB18_249
# BB#248:                               #   in Loop: Header=BB18_66 Depth=1
	movq	%rdi, %r12
	movl	$.L__unnamed_45, %edi
	movq	%rsi, %r13
	movl	$127, %esi
	movl	$36, %edx
	movl	$33, %ecx
	movl	$1, %r8d
	movq	%r10, %rbx
	callq	Pin
	movq	%r13, %rsi
	movq	%r12, %rdi
	movq	%rbx, %r10
	movl	$1, "PinFlag-14.1"(%rip)
.LBB18_249:                             #   in Loop: Header=BB18_66 Depth=1
	movq	48(%rsp), %rax          # 8-byte Reload
	leaq	(%rax,%rdi,4), %rax
	xorl	%ecx, %ecx
	.align	16, 0x90
.LBB18_250:                             # %for.body338.i
                                        #   Parent Loop BB18_66 Depth=1
                                        # =>  This Inner Loop Header: Depth=2
	movl	-1028(%rax), %edx
	andl	%r15d, %edx
	movl	%edx, 1312(%rsp,%rcx,4)
	movl	-1024(%rax), %edx
	andl	%r15d, %edx
	decl	%edx
	movl	%edx, 288(%rsp,%rcx,4)
	movl	-4(%rax), %edx
	andl	%r15d, %edx
	movl	%edx, 1316(%rsp,%rcx,4)
	movl	(%rax), %edx
	andl	%r15d, %edx
	decl	%edx
	movl	%edx, 292(%rsp,%rcx,4)
	addq	$2, %rcx
	addq	$2048, %rax             # imm = 0x800
	cmpq	$256, %rcx              # imm = 0x100
	jne	.LBB18_250
# BB#251:                               # %for.end357.i
                                        #   in Loop: Header=BB18_66 Depth=1
	movl	(%r10,%rsi,4), %eax
	andl	%r15d, %eax
	movl	1312(%rsp,%rdi,4), %r12d
	cmpl	%r12d, %eax
	movq	256(%rsp), %r9          # 8-byte Reload
	jge	.LBB18_252
# BB#253:                               # %for.body367.preheader.i
                                        #   in Loop: Header=BB18_66 Depth=1
	movq	%rbp, 96(%rsp)          # 8-byte Spill
	movq	%r9, %r13
	movslq	%eax, %rbx
	cmpl	$0, "PinFlag-14.2"(%rip)
	je	.LBB18_255
# BB#254:                               #   in Loop: Header=BB18_66 Depth=1
	movq	%rsi, 88(%rsp)          # 8-byte Spill
	jmp	.LBB18_256
	.align	16, 0x90
.LBB18_252:                             #   in Loop: Header=BB18_66 Depth=1
	movq	%rbp, 96(%rsp)          # 8-byte Spill
	movq	%rsi, 88(%rsp)          # 8-byte Spill
	movl	60(%rsp), %r8d          # 4-byte Reload
	jmp	.LBB18_260
.LBB18_255:                             #   in Loop: Header=BB18_66 Depth=1
	movq	%rsi, 88(%rsp)          # 8-byte Spill
	movq	%rdi, 80(%rsp)          # 8-byte Spill
	movl	$.L__unnamed_46, %edi
	movl	$1, %esi
	movl	$25, %edx
	movl	$30, %ecx
	movl	$1, %r8d
	movq	%r10, %rbp
	callq	Pin
	movq	80(%rsp), %rdi          # 8-byte Reload
	movq	%rbp, %r10
	movl	$1, "PinFlag-14.2"(%rip)
.LBB18_256:                             # %for.body367.i
                                        #   in Loop: Header=BB18_66 Depth=1
	movq	%r13, %r9
	movl	60(%rsp), %r8d          # 4-byte Reload
	.align	16, 0x90
.LBB18_257:                             # %for.body367.i
                                        #   Parent Loop BB18_66 Depth=1
                                        # =>  This Inner Loop Header: Depth=2
	movl	(%r14,%rbx,4), %eax
	leal	-1(%rax), %ecx
	sarl	$31, %ecx
	andl	%r9d, %ecx
	leal	-1(%rcx,%rax), %eax
	movslq	%eax, %rcx
	movq	272(%rsp), %rdx         # 8-byte Reload
	movzbl	(%rdx,%rcx), %ecx
	cmpb	$0, 2336(%rsp,%rcx)
	jne	.LBB18_259
# BB#258:                               # %if.then381.i
                                        #   in Loop: Header=BB18_257 Depth=2
	movslq	1312(%rsp,%rcx,4), %rdx
	leal	1(%rdx), %esi
	movl	%esi, 1312(%rsp,%rcx,4)
	movl	%eax, (%r14,%rdx,4)
	movl	1312(%rsp,%rdi,4), %r12d
.LBB18_259:                             # %for.inc388.i
                                        #   in Loop: Header=BB18_257 Depth=2
	incq	%rbx
	movslq	%r12d, %rax
	cmpq	%rax, %rbx
	jl	.LBB18_257
.LBB18_260:                             # %for.end390.i
                                        #   in Loop: Header=BB18_66 Depth=1
	addl	$256, %r8d              # imm = 0x100
	movslq	%r8d, %rbp
	movl	(%r10,%rbp,4), %ebx
	andl	%r15d, %ebx
	decl	%ebx
	movl	288(%rsp,%rdi,4), %r13d
	cmpl	%r13d, %ebx
	jle	.LBB18_265
# BB#261:                               # %for.body402.i.preheader
                                        #   in Loop: Header=BB18_66 Depth=1
	cmpl	$0, "PinFlag-14.3"(%rip)
	jne	.LBB18_263
# BB#262:                               #   in Loop: Header=BB18_66 Depth=1
	movq	%rdi, 80(%rsp)          # 8-byte Spill
	movl	$.L__unnamed_47, %edi
	movl	$1, %esi
	movl	$25, %edx
	movl	$30, %ecx
	movl	$1, %r8d
	movq	%r10, 176(%rsp)         # 8-byte Spill
	movq	%r9, %r15
	callq	Pin
	movq	80(%rsp), %rdi          # 8-byte Reload
	movq	%r15, %r9
	movl	$-2097153, %r15d        # imm = 0xFFFFFFFFFFDFFFFF
	movq	176(%rsp), %r10         # 8-byte Reload
	movl	$1, "PinFlag-14.3"(%rip)
	.align	16, 0x90
.LBB18_263:                             # %for.body402.i
                                        #   Parent Loop BB18_66 Depth=1
                                        # =>  This Inner Loop Header: Depth=2
	movslq	%ebx, %rax
	movl	(%r14,%rax,4), %eax
	leal	-1(%rax), %ecx
	sarl	$31, %ecx
	andl	%r9d, %ecx
	leal	-1(%rcx,%rax), %eax
	movslq	%eax, %rcx
	movq	272(%rsp), %rdx         # 8-byte Reload
	movzbl	(%rdx,%rcx), %ecx
	cmpb	$0, 2336(%rsp,%rcx)
	jne	.LBB18_264
# BB#310:                               # %if.then416.i
                                        #   in Loop: Header=BB18_263 Depth=2
	movslq	288(%rsp,%rcx,4), %rdx
	leal	-1(%rdx), %esi
	movl	%esi, 288(%rsp,%rcx,4)
	movl	%eax, (%r14,%rdx,4)
	movl	288(%rsp,%rdi,4), %r13d
.LBB18_264:                             # %for.cond397.backedge.i
                                        #   in Loop: Header=BB18_263 Depth=2
	decl	%ebx
	cmpl	%r13d, %ebx
	jg	.LBB18_263
.LBB18_265:                             # %for.end425.i
                                        #   in Loop: Header=BB18_66 Depth=1
	leal	-1(%r12), %eax
	cmpl	%r13d, %eax
	je	.LBB18_269
# BB#266:                               # %lor.lhs.false.i
                                        #   in Loop: Header=BB18_66 Depth=1
	testl	%r12d, %r12d
	jne	.LBB18_268
# BB#267:                               # %lor.lhs.false.i
                                        #   in Loop: Header=BB18_66 Depth=1
	cmpl	36(%rsp), %r13d         # 4-byte Folded Reload
	je	.LBB18_269
.LBB18_268:                             # %if.then442.i
                                        #   in Loop: Header=BB18_66 Depth=1
	movq	%rdi, %r13
	movl	$1007, %edi             # imm = 0x3EF
	movq	%r10, %r12
	movq	%r9, %rbx
	callq	BZ2_bz__AssertH__fail
	movq	%r13, %rdi
	movq	%rbx, %r9
	movq	%r12, %r10
.LBB18_269:                             # %for.body447.i.preheader
                                        #   in Loop: Header=BB18_66 Depth=1
	cmpl	$0, "PinFlag-14.4"(%rip)
	jne	.LBB18_271
# BB#270:                               #   in Loop: Header=BB18_66 Depth=1
	movq	%rdi, %r13
	movl	$.L__unnamed_48, %edi
	movl	$63, %esi
	movl	$168, %edx
	movl	$31, %ecx
	movl	$1, %r8d
	movq	%r10, %r12
	movq	%r9, %rbx
	callq	Pin
	movq	%r13, %rdi
	movq	%rbx, %r9
	movq	%r12, %r10
	movl	$1, "PinFlag-14.4"(%rip)
.LBB18_271:                             #   in Loop: Header=BB18_66 Depth=1
	movq	%r9, 256(%rsp)          # 8-byte Spill
	movq	96(%rsp), %rax          # 8-byte Reload
	cltq
	movq	40(%rsp), %rcx          # 8-byte Reload
	leaq	(%rcx,%rax,4), %rax
	xorl	%ecx, %ecx
	.align	16, 0x90
.LBB18_272:                             # %for.body447.i
                                        #   Parent Loop BB18_66 Depth=1
                                        # =>  This Inner Loop Header: Depth=2
	orb	$32, -3070(%rax,%rcx)
	orb	$32, -2046(%rax,%rcx)
	orb	$32, -1022(%rax,%rcx)
	orb	$32, 2(%rax,%rcx)
	addq	$4096, %rcx             # imm = 0x1000
	cmpq	$262144, %rcx           # imm = 0x40000
	jne	.LBB18_272
# BB#273:                               # %for.end455.i
                                        #   in Loop: Header=BB18_66 Depth=1
	movb	$1, 2336(%rsp,%rdi)
	movq	64(%rsp), %rax          # 8-byte Reload
	cmpq	$254, %rax
	jg	.LBB18_288
# BB#274:                               # %if.then460.i
                                        #   in Loop: Header=BB18_66 Depth=1
	movq	88(%rsp), %rax          # 8-byte Reload
	movl	(%r10,%rax,4), %eax
	andl	%r15d, %eax
	movl	$-2097153, %ecx         # imm = 0xFFFFFFFFFFDFFFFF
	movl	(%r10,%rbp,4), %r13d
	andl	%ecx, %r13d
	movl	%r13d, %ebx
	subl	%eax, %ebx
	movl	$-1, %r15d
	cmpl	$0, "PinFlag-14.5"(%rip)
	je	.LBB18_276
# BB#275:                               #   in Loop: Header=BB18_66 Depth=1
	movq	%r10, 176(%rsp)         # 8-byte Spill
	jmp	.LBB18_277
.LBB18_276:                             #   in Loop: Header=BB18_66 Depth=1
	movq	%r10, 176(%rsp)         # 8-byte Spill
	movl	$.L__unnamed_49, %edi
	movl	$65534, %esi            # imm = 0xFFFE
	xorl	%edx, %edx
	movl	$5, %ecx
	movl	$1, %r8d
	callq	Pin
	movl	$1, "PinFlag-14.5"(%rip)
.LBB18_277:                             # %while.cond471.i
                                        #   in Loop: Header=BB18_66 Depth=1
	movq	256(%rsp), %r9          # 8-byte Reload
	.align	16, 0x90
.LBB18_278:                             # %while.cond471.i
                                        #   Parent Loop BB18_66 Depth=1
                                        # =>  This Inner Loop Header: Depth=2
	incl	%r15d
	movl	%ebx, %eax
	movb	%r15b, %cl
	sarl	%cl, %eax
	cmpl	$65534, %eax            # imm = 0xFFFE
	jg	.LBB18_278
# BB#279:                               # %while.end477.i
                                        #   in Loop: Header=BB18_66 Depth=1
	leal	-1(%rbx), %r12d
	testl	%ebx, %ebx
	movq	176(%rsp), %r10         # 8-byte Reload
	jle	.LBB18_286
# BB#280:                               # %for.body482.preheader.i
                                        #   in Loop: Header=BB18_66 Depth=1
	movslq	%ebx, %rbx
	movq	%rbx, %rax
	notq	%rax
	cmpq	$-3, %rax
	movq	$-2, %rcx
	cmovleq	%rcx, %rax
	cmpl	$0, "PinFlag-14.6"(%rip)
	jne	.LBB18_282
# BB#281:                               #   in Loop: Header=BB18_66 Depth=1
	leaq	1(%rax,%rbx), %rsi
	movl	$.L__unnamed_50, %edi
	movl	$6, %edx
	movl	$23, %ecx
	movl	$1, %r8d
	movq	%r9, %rbp
	callq	Pin
	movq	%rbp, %r9
	movq	176(%rsp), %r10         # 8-byte Reload
	movl	$1, "PinFlag-14.6"(%rip)
.LBB18_282:                             #   in Loop: Header=BB18_66 Depth=1
	incq	%rbx
	decl	%r13d
	movslq	%r13d, %rax
	leaq	(%r14,%rax,4), %rax
	movl	%r12d, %edx
	.align	16, 0x90
.LBB18_283:                             # %for.body482.i
                                        #   Parent Loop BB18_66 Depth=1
                                        # =>  This Inner Loop Header: Depth=2
	movslq	(%rax), %rsi
	movl	%edx, %edi
	movb	%r15b, %cl
	sarl	%cl, %edi
	cmpq	$33, %rsi
	movq	264(%rsp), %rbp         # 8-byte Reload
	movw	%di, (%rbp,%rsi,2)
	jg	.LBB18_285
# BB#284:                               # %if.then492.i
                                        #   in Loop: Header=BB18_283 Depth=2
	leal	(%r9,%rsi), %ecx
	movslq	%ecx, %rcx
	movw	%di, (%rbp,%rcx,2)
.LBB18_285:                             # %if.end496.i
                                        #   in Loop: Header=BB18_283 Depth=2
	decl	%edx
	decq	%rbx
	addq	$-4, %rax
	cmpq	$1, %rbx
	jg	.LBB18_283
.LBB18_286:                             # %for.end499.i
                                        #   in Loop: Header=BB18_66 Depth=1
	movq	%r9, 256(%rsp)          # 8-byte Spill
	movb	%r15b, %cl
	sarl	%cl, %r12d
	cmpl	$65536, %r12d           # imm = 0x10000
	movl	$-2097153, %r15d        # imm = 0xFFFFFFFFFFDFFFFF
	movq	64(%rsp), %rax          # 8-byte Reload
	jl	.LBB18_288
# BB#287:                               # %if.then504.i
                                        #   in Loop: Header=BB18_66 Depth=1
	movl	$1002, %edi             # imm = 0x3EA
	movq	%r10, %rbp
	movq	%rax, %rbx
	callq	BZ2_bz__AssertH__fail
	movq	%rbx, %rax
	movq	%rbp, %r10
.LBB18_288:                             # %for.inc507.i
                                        #   in Loop: Header=BB18_66 Depth=1
	incq	%rax
	cmpq	$256, %rax              # imm = 0x100
	jl	.LBB18_66
# BB#289:                               # %for.end509.i
	cmpl	$4, 76(%rsp)            # 4-byte Folded Reload
	jge	.LBB18_290
.LBB18_291:                             # %mainSort.exit
	movq	8(%rsp), %rax           # 8-byte Reload
	movl	160(%rsp), %edx         # 4-byte Reload
	jmp	.LBB18_292
.LBB18_166:
	movq	8(%rsp), %rax           # 8-byte Reload
	movq	176(%rsp), %r10         # 8-byte Reload
.LBB18_292:                             # %mainSort.exit
	cmpl	$3, 76(%rsp)            # 4-byte Folded Reload
	jge	.LBB18_293
.LBB18_297:                             # %if.end21
	testl	%edx, %edx
	movq	256(%rsp), %rbp         # 8-byte Reload
	jns	.LBB18_302
# BB#298:                               # %if.then24
	movl	76(%rsp), %ebx          # 4-byte Reload
	cmpl	$2, %ebx
	jge	.LBB18_299
.LBB18_300:                             # %if.end29
	movq	24(%rax), %rdi
	movq	32(%rax), %rsi
	movq	%r10, %rdx
	movl	%ebp, %ecx
	movl	%ebx, %r8d
.LBB18_301:                             # %if.end33
	movq	%rax, %rbx
	callq	fallbackSort
	movq	%rbx, %rax
.LBB18_302:                             # %if.end33
	movl	$-1, 48(%rax)
	movq	%rax, %rcx
	movslq	108(%rcx), %rax
	movq	%rcx, %rdx
	testq	%rax, %rax
	jle	.LBB18_307
# BB#303:                               # %for.body.preheader
	xorl	%ecx, %ecx
	.align	16, 0x90
.LBB18_304:                             # %for.body
                                        # =>This Inner Loop Header: Depth=1
	cmpl	$0, (%r14,%rcx,4)
	je	.LBB18_306
# BB#305:                               # %for.inc
                                        #   in Loop: Header=BB18_304 Depth=1
	incq	%rcx
	cmpq	%rax, %rcx
	jl	.LBB18_304
	jmp	.LBB18_307
.LBB18_306:                             # %for.end
	movl	%ecx, 48(%rdx)
	cmpl	$-1, %ecx
	jne	.LBB18_308
.LBB18_307:                             # %if.then48
	movl	$1003, %edi             # imm = 0x3EB
	callq	BZ2_bz__AssertH__fail
.LBB18_308:                             # %if.end49
	addq	$4824, %rsp             # imm = 0x12D8
	popq	%rbx
	popq	%r12
	popq	%r13
	popq	%r14
	popq	%r15
	popq	%rbp
	retq
.LBB18_3:                               # %if.then.i
	movq	stderr(%rip), %rcx
	movl	$.L.str.6.3, %edi
	movl	$33, %esi
	movl	$1, %edx
	callq	fwrite
	jmp	.LBB18_4
.LBB18_30:                              # %if.then96.i
	movq	stderr(%rip), %rcx
	movl	$.L.str.2, %edi
	movl	$27, %esi
	movl	$1, %edx
	movq	%r10, %rbx
	movq	%r11, %rbp
	callq	fwrite
	movq	%rbp, %r11
	movq	%rbx, %r10
	jmp	.LBB18_31
.LBB18_293:                             # %if.then13
	movq	stderr(%rip), %rdi
	movq	16(%rsp), %rcx          # 8-byte Reload
	subl	%edx, %ecx
	movl	%edx, %r15d
	cvtsi2ssl	%ecx, %xmm0
	movq	%rcx, %rdx
	movq	256(%rsp), %rcx         # 8-byte Reload
	movq	%r10, %rbp
	movq	%rax, %rbx
	testl	%ecx, %ecx
	je	.LBB18_294
# BB#295:                               # %if.then13
	cvtsi2ssl	%ecx, %xmm1
	jmp	.LBB18_296
.LBB18_294:
	movss	.LCPI18_2(%rip), %xmm1  # xmm1 = mem[0],zero,zero,zero
.LBB18_296:                             # %if.then13
	divss	%xmm1, %xmm0
	cvtss2sd	%xmm0, %xmm0
	movl	$.L.str, %esi
	movb	$1, %al
	callq	fprintf
	movq	%rbx, %rax
	movq	%rbp, %r10
	movl	%r15d, %edx
	jmp	.LBB18_297
.LBB18_299:                             # %if.then27
	movq	stderr(%rip), %rcx
	movl	$.L.str.1, %edi
	movl	$53, %esi
	movl	$1, %edx
	movq	%rax, %r15
	movq	%r10, %r12
	callq	fwrite
	movq	%r12, %r10
	movq	%r15, %rax
	jmp	.LBB18_300
.LBB18_290:                             # %if.then512.i
	movq	stderr(%rip), %rdi
	movq	256(%rsp), %rdx         # 8-byte Reload
	movl	%edx, %r8d
	movl	128(%rsp), %ecx         # 4-byte Reload
	subl	%ecx, %r8d
	movl	$.L.str.8.5, %esi
	xorl	%eax, %eax
	movq	%r10, %rbx
	callq	fprintf
	movq	%rbx, %r10
	jmp	.LBB18_291
.Lfunc_end18:
	.size	BZ2_blockSort, .Lfunc_end18-BZ2_blockSort
	.cfi_endproc

	.align	16, 0x90
	.type	fallbackSort,@function
fallbackSort:                           # @fallbackSort
	.cfi_startproc
# BB#0:                                 # %entry
	pushq	%rbp
.Ltmp106:
	.cfi_def_cfa_offset 16
	pushq	%r15
.Ltmp107:
	.cfi_def_cfa_offset 24
	pushq	%r14
.Ltmp108:
	.cfi_def_cfa_offset 32
	pushq	%r13
.Ltmp109:
	.cfi_def_cfa_offset 40
	pushq	%r12
.Ltmp110:
	.cfi_def_cfa_offset 48
	pushq	%rbx
.Ltmp111:
	.cfi_def_cfa_offset 56
	subq	$3096, %rsp             # imm = 0xC18
.Ltmp112:
	.cfi_def_cfa_offset 3152
.Ltmp113:
	.cfi_offset %rbx, -56
.Ltmp114:
	.cfi_offset %r12, -48
.Ltmp115:
	.cfi_offset %r13, -40
.Ltmp116:
	.cfi_offset %r14, -32
.Ltmp117:
	.cfi_offset %r15, -24
.Ltmp118:
	.cfi_offset %rbp, -16
	movl	%r8d, 108(%rsp)         # 4-byte Spill
	movl	%ecx, %ebx
	movq	%rbx, 40(%rsp)          # 8-byte Spill
	movq	%rdx, 48(%rsp)          # 8-byte Spill
	movq	%rsi, %r12
	movq	%rdi, 192(%rsp)         # 8-byte Spill
	cmpl	$3, %r8d
	movl	%ebx, %r14d
	movq	%r14, 72(%rsp)          # 8-byte Spill
	jg	.LBB19_224
.LBB19_1:                               # %for.body.preheader
	leaq	1248(%rsp), %rdi
	xorl	%ebp, %ebp
	xorl	%esi, %esi
	movl	$1028, %edx             # imm = 0x404
	callq	memset
	testl	%ebx, %ebx
	movq	%rbx, %r9
	jle	.LBB19_13
# BB#2:                                 # %for.body4.preheader
	movq	%r14, %r13
	leal	-1(%r9), %r14d
	xorl	%ebx, %ebx
	testb	$3, %r9b
	je	.LBB19_7
# BB#3:                                 # %for.body4.prol.preheader
	movl	%r9d, %ebp
	andl	$3, %ebp
	cmpl	$0, "PinFlag-32."(%rip)
	jne	.LBB19_5
# BB#4:
	leal	-1(%rbp), %eax
	movslq	%eax, %rsi
	movl	$.L__unnamed_51, %edi
	movl	$3, %edx
	movl	$13, %ecx
	movl	$1, %r8d
	movq	%r9, %rbx
	callq	Pin
	movq	%rbx, %r9
	movl	$1, "PinFlag-32."(%rip)
.LBB19_5:
	xorl	%ebx, %ebx
	.align	16, 0x90
.LBB19_6:                               # %for.body4.prol
                                        # =>This Inner Loop Header: Depth=1
	movzbl	(%r12,%rbx), %eax
	incl	1248(%rsp,%rax,4)
	incq	%rbx
	cmpl	%ebx, %ebp
	jne	.LBB19_6
.LBB19_7:                               # %for.body4.preheader.split
	cmpl	$3, %r14d
	jb	.LBB19_12
# BB#8:                                 # %for.body4.preheader.split.split
	cmpl	$0, "PinFlag-31."(%rip)
	jne	.LBB19_10
# BB#9:
	movl	$.L__unnamed_52, %edi
	movl	$1, %esi
	movl	$36, %edx
	movl	$36, %ecx
	movl	$1, %r8d
	movq	%r9, %rbp
	callq	Pin
	movq	%rbp, %r9
	movl	$1, "PinFlag-31."(%rip)
.LBB19_10:
	movl	%r9d, %eax
	subl	%ebx, %eax
	leaq	3(%rbx,%r12), %rcx
	.align	16, 0x90
.LBB19_11:                              # %for.body4
                                        # =>This Inner Loop Header: Depth=1
	movzbl	-3(%rcx), %edx
	incl	1248(%rsp,%rdx,4)
	movzbl	-2(%rcx), %edx
	incl	1248(%rsp,%rdx,4)
	movzbl	-1(%rcx), %edx
	incl	1248(%rsp,%rdx,4)
	movzbl	(%rcx), %edx
	incl	1248(%rsp,%rdx,4)
	addq	$4, %rcx
	addl	$-4, %eax
	jne	.LBB19_11
.LBB19_12:                              # %for.body15.preheader.loopexit
	movl	1248(%rsp), %ebp
	movq	%r13, %r14
.LBB19_13:                              # %for.body15.preheader
	movq	%r9, %rbx
	leaq	224(%rsp), %rdi
	leaq	1248(%rsp), %rsi
	movl	$1024, %edx             # imm = 0x400
	callq	memcpy
	cmpl	$0, "PinFlag-30."(%rip)
	jne	.LBB19_15
# BB#14:
	movl	$.L__unnamed_53, %edi
	movl	$63, %esi
	movl	$4, %edx
	movl	$24, %ecx
	movl	$1, %r8d
	callq	Pin
	movl	$1, "PinFlag-30."(%rip)
.LBB19_15:
	xorl	%eax, %eax
	movq	%r12, %rsi
	movq	%rsi, 184(%rsp)         # 8-byte Spill
	movq	%rbx, %r9
	.align	16, 0x90
.LBB19_16:                              # %for.body25
                                        # =>This Inner Loop Header: Depth=1
	addl	1252(%rsp,%rax,4), %ebp
	movl	%ebp, 1252(%rsp,%rax,4)
	addl	1256(%rsp,%rax,4), %ebp
	movl	%ebp, 1256(%rsp,%rax,4)
	addl	1260(%rsp,%rax,4), %ebp
	movl	%ebp, 1260(%rsp,%rax,4)
	addl	1264(%rsp,%rax,4), %ebp
	movl	%ebp, 1264(%rsp,%rax,4)
	addq	$4, %rax
	cmpq	$256, %rax              # imm = 0x100
	jne	.LBB19_16
# BB#17:                                # %for.cond33.preheader
	testl	%r9d, %r9d
	movq	192(%rsp), %rdi         # 8-byte Reload
	movq	48(%rsp), %r12          # 8-byte Reload
	jle	.LBB19_24
# BB#18:                                # %for.body35.preheader
	xorl	%ebp, %ebp
	testb	$1, %r9b
	je	.LBB19_20
# BB#19:                                # %for.body35.prol
	movzbl	(%rsi), %eax
	movslq	1248(%rsp,%rax,4), %rcx
	leaq	-1(%rcx), %rdx
	movl	%edx, 1248(%rsp,%rax,4)
	movl	$0, -4(%rdi,%rcx,4)
	movl	$1, %ebp
.LBB19_20:                              # %for.body35.preheader.split
	cmpl	$1, %r9d
	je	.LBB19_24
# BB#21:                                # %for.body35.preheader.split.split
	cmpl	$0, "PinFlag-29."(%rip)
	jne	.LBB19_23
# BB#22:
	movq	%r14, %r13
	movq	%rdi, %r14
	movl	$.L__unnamed_54, %edi
	movq	%rsi, %r15
	movl	$1, %esi
	movl	$13, %edx
	movl	$28, %ecx
	movl	$1, %r8d
	movq	%r9, %rbx
	callq	Pin
	movq	%rbx, %r9
	movq	%r14, %rdi
	movq	%r13, %r14
	movq	%r15, %rsi
	movl	$1, "PinFlag-29."(%rip)
	.align	16, 0x90
.LBB19_23:                              # %for.body35
                                        # =>This Inner Loop Header: Depth=1
	movzbl	(%rsi,%rbp), %eax
	movslq	1248(%rsp,%rax,4), %rcx
	leaq	-1(%rcx), %rdx
	movl	%edx, 1248(%rsp,%rax,4)
	movl	%ebp, -4(%rdi,%rcx,4)
	movzbl	1(%rsi,%rbp), %eax
	movslq	1248(%rsp,%rax,4), %rcx
	leaq	-1(%rcx), %rdx
	movl	%edx, 1248(%rsp,%rax,4)
	leal	1(%rbp), %eax
	movl	%eax, -4(%rdi,%rcx,4)
	addq	$2, %rbp
	cmpl	%r9d, %ebp
	jne	.LBB19_23
.LBB19_24:                              # %for.end47
	cmpl	$-63, %r9d
	jl	.LBB19_26
# BB#25:                                # %for.body52.preheader
	movl	%r9d, %eax
	sarl	$31, %eax
	shrl	$27, %eax
	addl	%r9d, %eax
	sarl	$5, %eax
	xorl	%ecx, %ecx
	incl	%eax
	cmovsl	%ecx, %eax
	movl	%eax, %eax
	leaq	4(,%rax,4), %rdx
	movq	%rsi, %r15
	xorl	%esi, %esi
	movq	%rdi, %rbp
	movq	%r12, %rdi
	movq	%r9, %rbx
	callq	memset
	movq	%rbx, %r9
	movq	%rbp, %rdi
	movq	%r15, %rsi
.LBB19_26:                              # %for.body61.preheader
	cmpl	$0, "PinFlag-28."(%rip)
	jne	.LBB19_28
# BB#27:
	movq	%rdi, %r15
	movl	$.L__unnamed_55, %edi
	movq	%rsi, %rbx
	movl	$127, %esi
	movl	$10, %edx
	movl	$25, %ecx
	movl	$1, %r8d
	movq	%r9, %rbp
	callq	Pin
	movq	%rbp, %r9
	movq	%r15, %rdi
	movq	%rbx, %rsi
	movl	$1, "PinFlag-28."(%rip)
.LBB19_28:
	xorl	%eax, %eax
	.align	16, 0x90
.LBB19_29:                              # %for.body61
                                        # =>This Inner Loop Header: Depth=1
	movl	1248(%rsp,%rax,4), %ecx
	movl	$1, %edx
	shll	%cl, %edx
	sarl	$5, %ecx
	movslq	%ecx, %rcx
	orl	%edx, (%r12,%rcx,4)
	movl	1252(%rsp,%rax,4), %ecx
	movl	$1, %edx
	shll	%cl, %edx
	sarl	$5, %ecx
	movslq	%ecx, %rcx
	orl	%edx, (%r12,%rcx,4)
	addq	$2, %rax
	cmpq	$256, %rax              # imm = 0x100
	jne	.LBB19_29
# BB#30:                                # %for.body74.preheader
	xorl	%ebp, %ebp
	cmpl	$0, "PinFlag-27."(%rip)
	jne	.LBB19_32
# BB#31:
	movq	%r14, %r13
	movq	%rdi, %r14
	movl	$.L__unnamed_56, %edi
	movq	%rsi, %r15
	movl	$31, %esi
	movl	$10, %edx
	movl	$24, %ecx
	movl	$1, %r8d
	movq	%r9, %rbx
	callq	Pin
	movq	%rbx, %r9
	movq	%r14, %rdi
	movq	%r13, %r14
	movq	%r15, %rsi
	movl	$1, "PinFlag-27."(%rip)
	.align	16, 0x90
.LBB19_32:                              # %for.body74
                                        # =>This Inner Loop Header: Depth=1
	leal	(%r9,%rbp), %ecx
	movl	$1, %eax
	shll	%cl, %eax
	sarl	$5, %ecx
	movslq	%ecx, %rcx
	orl	%eax, (%r12,%rcx,4)
	leal	1(%r9,%rbp), %ecx
	movl	$-2, %eax
	roll	%cl, %eax
	sarl	$5, %ecx
	movslq	%ecx, %rcx
	andl	%eax, (%r12,%rcx,4)
	addl	$2, %ebp
	cmpl	$64, %ebp
	jne	.LBB19_32
# BB#33:                                # %while.body.preheader
	leal	-1(%r9), %ebx
	cmpl	$0, "PinFlag-26."(%rip)
	jne	.LBB19_35
# BB#34:
	movq	%r14, %r13
	movq	%rdi, %r14
	movl	$.L__unnamed_57, %edi
	movq	%rsi, %r15
	movl	$1, %esi
	xorl	%edx, %edx
	movl	$32, %ecx
	xorl	%r8d, %r8d
	movq	%r9, %rbp
	callq	Pin
	movq	%rbp, %r9
	movq	%r14, %rdi
	movq	%r13, %r14
	movq	%r15, %rsi
	movl	$1, "PinFlag-26."(%rip)
.LBB19_35:
	leaq	16(%rdi), %rax
	movq	%rax, (%rsp)            # 8-byte Spill
	movl	$1, %r13d
	movslq	%ebx, %rax
	movq	%rax, 32(%rsp)          # 8-byte Spill
	jmp	.LBB19_36
.LBB19_37:                              # %if.then101
                                        #   in Loop: Header=BB19_36 Depth=1
	movq	%rdi, %r15
	movq	stderr(%rip), %rdi
	movq	%rsi, %rbx
	movl	$.L.str.3.1, %esi
	xorl	%eax, %eax
	movl	%r13d, %edx
	movq	%r9, %rbp
	callq	fprintf
	movq	%rbp, %r9
	movq	%r15, %rdi
	movq	%rbx, %rsi
	jmp	.LBB19_38
.LBB19_198:                             # %if.then258
                                        #   in Loop: Header=BB19_36 Depth=1
	movq	%rdi, %r14
	movq	stderr(%rip), %rdi
	movq	%rsi, %rbx
	movl	$.L.str.4, %esi
	xorl	%eax, %eax
	movq	128(%rsp), %rdx         # 8-byte Reload
	movq	%r9, %rbp
	callq	fprintf
	movq	%rbp, %r9
	movq	%r14, %rdi
	movq	%rbx, %rsi
	jmp	.LBB19_199
	.align	16, 0x90
.LBB19_36:                              # %while.body
                                        # =>This Loop Header: Depth=1
                                        #     Child Loop BB19_41 Depth 2
                                        #     Child Loop BB19_45 Depth 2
                                        #       Child Loop BB19_48 Depth 3
                                        #         Child Loop BB19_54 Depth 4
                                        #         Child Loop BB19_58 Depth 4
                                        #         Child Loop BB19_62 Depth 4
                                        #         Child Loop BB19_67 Depth 4
                                        #         Child Loop BB19_71 Depth 4
                                        #       Child Loop BB19_78 Depth 3
                                        #         Child Loop BB19_81 Depth 4
                                        #           Child Loop BB19_101 Depth 5
                                        #             Child Loop BB19_106 Depth 6
                                        #           Child Loop BB19_90 Depth 5
                                        #             Child Loop BB19_93 Depth 6
                                        #         Child Loop BB19_116 Depth 4
                                        #           Child Loop BB19_121 Depth 5
                                        #             Child Loop BB19_124 Depth 6
                                        #           Child Loop BB19_136 Depth 5
                                        #             Child Loop BB19_134 Depth 6
                                        #         Child Loop BB19_166 Depth 4
                                        #         Child Loop BB19_172 Depth 4
                                        #         Child Loop BB19_186 Depth 4
                                        #         Child Loop BB19_192 Depth 4
                                        #       Child Loop BB19_148 Depth 3
	movl	%r13d, 148(%rsp)        # 4-byte Spill
	cmpl	$4, 108(%rsp)           # 4-byte Folded Reload
	jge	.LBB19_37
.LBB19_38:                              # %for.cond104.preheader
                                        #   in Loop: Header=BB19_36 Depth=1
	testl	%r9d, %r9d
	jle	.LBB19_42
# BB#39:                                # %for.body107.preheader
                                        #   in Loop: Header=BB19_36 Depth=1
	xorl	%ebx, %ebx
	cmpl	$0, "PinFlag-26.0"(%rip)
	movl	$0, %eax
	jne	.LBB19_41
# BB#40:                                #   in Loop: Header=BB19_36 Depth=1
	xorl	%ebx, %ebx
	movl	%r13d, 148(%rsp)        # 4-byte Spill
	movq	%r14, %r13
	movq	%rdi, %r14
	movl	$.L__unnamed_58, %edi
	xorl	%edx, %edx
	movl	$25, %ecx
	movl	$1, %r8d
	movq	%rsi, %r15
	movq	32(%rsp), %rsi          # 8-byte Reload
	movq	%r9, %rbp
	callq	Pin
	movq	%rbp, %r9
	movq	%r14, %rdi
	movq	%r13, %r14
	movl	148(%rsp), %r13d        # 4-byte Reload
	movq	%r15, %rsi
	movl	$1, "PinFlag-26.0"(%rip)
	xorl	%eax, %eax
	.align	16, 0x90
.LBB19_41:                              # %for.body107
                                        #   Parent Loop BB19_36 Depth=1
                                        # =>  This Inner Loop Header: Depth=2
	movl	%ebx, %ecx
	sarl	$5, %ecx
	movslq	%ecx, %rcx
	movl	(%r12,%rcx,4), %ecx
	btl	%ebx, %ecx
	cmovbl	%ebx, %eax
	movl	(%rdi,%rbx,4), %ecx
	subl	%r13d, %ecx
	movl	%ecx, %edx
	sarl	$31, %edx
	andl	%r14d, %edx
	addl	%ecx, %edx
	movslq	%edx, %rcx
	movl	%eax, (%rsi,%rcx,4)
	incq	%rbx
	cmpl	%ebx, %r14d
	jne	.LBB19_41
.LBB19_42:                              # %while.body130.outer.preheader
                                        #   in Loop: Header=BB19_36 Depth=1
	movl	$-1, %ebx
	cmpl	$0, "PinFlag-26.1"(%rip)
	je	.LBB19_44
# BB#43:                                #   in Loop: Header=BB19_36 Depth=1
	xorl	%eax, %eax
	movq	%rax, 128(%rsp)         # 8-byte Spill
	jmp	.LBB19_45
	.align	16, 0x90
.LBB19_44:                              #   in Loop: Header=BB19_36 Depth=1
	xorl	%eax, %eax
	movq	%rax, 128(%rsp)         # 8-byte Spill
	movq	%rdi, %r14
	movl	$.L__unnamed_59, %edi
	movq	%rsi, %r15
	movl	$1, %esi
	movl	$56, %edx
	movl	$48, %ecx
	xorl	%r8d, %r8d
	movq	%r9, %rbp
	callq	Pin
	movq	%rbp, %r9
	movq	%r14, %rdi
	movq	%r15, %rsi
	movl	$1, "PinFlag-26.1"(%rip)
	jmp	.LBB19_45
.LBB19_151:                             #   in Loop: Header=BB19_45 Depth=2
	movq	%r15, %r9
	movq	%r13, %r12
	movl	148(%rsp), %r13d        # 4-byte Reload
	movq	88(%rsp), %rbx          # 8-byte Reload
	.align	16, 0x90
.LBB19_45:                              # %while.body130.outer
                                        #   Parent Loop BB19_36 Depth=1
                                        # =>  This Loop Header: Depth=2
                                        #       Child Loop BB19_48 Depth 3
                                        #         Child Loop BB19_54 Depth 4
                                        #         Child Loop BB19_58 Depth 4
                                        #         Child Loop BB19_62 Depth 4
                                        #         Child Loop BB19_67 Depth 4
                                        #         Child Loop BB19_71 Depth 4
                                        #       Child Loop BB19_78 Depth 3
                                        #         Child Loop BB19_81 Depth 4
                                        #           Child Loop BB19_101 Depth 5
                                        #             Child Loop BB19_106 Depth 6
                                        #           Child Loop BB19_90 Depth 5
                                        #             Child Loop BB19_93 Depth 6
                                        #         Child Loop BB19_116 Depth 4
                                        #           Child Loop BB19_121 Depth 5
                                        #             Child Loop BB19_124 Depth 6
                                        #           Child Loop BB19_136 Depth 5
                                        #             Child Loop BB19_134 Depth 6
                                        #         Child Loop BB19_166 Depth 4
                                        #         Child Loop BB19_172 Depth 4
                                        #         Child Loop BB19_186 Depth 4
                                        #         Child Loop BB19_192 Depth 4
                                        #       Child Loop BB19_148 Depth 3
	cmpl	$0, "PinFlag-26.10"(%rip)
	je	.LBB19_47
# BB#46:                                #   in Loop: Header=BB19_45 Depth=2
	movq	%rdi, %r15
	jmp	.LBB19_48
	.align	16, 0x90
.LBB19_47:                              #   in Loop: Header=BB19_45 Depth=2
	movq	%rdi, %r15
	movl	$.L__unnamed_60, %edi
	movq	%rsi, %r14
	movl	$1, %esi
	movl	$110, %edx
	movl	$70, %ecx
	xorl	%r8d, %r8d
	movq	%r9, %rbp
	callq	Pin
	movq	%rbp, %r9
	movq	%r14, %rsi
	movl	$1, "PinFlag-26.10"(%rip)
	.align	16, 0x90
.LBB19_48:                              # %while.cond132
                                        #   Parent Loop BB19_36 Depth=1
                                        #     Parent Loop BB19_45 Depth=2
                                        # =>    This Loop Header: Depth=3
                                        #         Child Loop BB19_54 Depth 4
                                        #         Child Loop BB19_58 Depth 4
                                        #         Child Loop BB19_62 Depth 4
                                        #         Child Loop BB19_67 Depth 4
                                        #         Child Loop BB19_71 Depth 4
	movl	%ebx, %ebp
	leal	1(%rbp), %r8d
	movl	%r8d, %eax
	sarl	$5, %eax
	movslq	%eax, %rdx
	movl	%r8d, %ecx
	andl	$31, %ecx
	movl	$1, %eax
	shll	%cl, %eax
	andl	(%r12,%rdx,4), %eax
	setne	%cl
	movl	%r8d, %edx
	andl	$31, %edx
	je	.LBB19_50
# BB#49:                                # %while.cond132
                                        #   in Loop: Header=BB19_48 Depth=3
	testb	%cl, %cl
	movl	%r8d, %ebx
	jne	.LBB19_48
.LBB19_50:                              # %while.end
                                        #   in Loop: Header=BB19_48 Depth=3
	testl	%eax, %eax
	movq	%r15, %rdi
	je	.LBB19_59
# BB#51:                                # %while.cond152.preheader
                                        #   in Loop: Header=BB19_48 Depth=3
	cmpl	$0, "PinFlag-26.100"(%rip)
	jne	.LBB19_53
# BB#52:                                #   in Loop: Header=BB19_48 Depth=3
	movq	%rdi, %r14
	movl	$.L__unnamed_61, %edi
	movq	%rsi, %r15
	movl	$1, %esi
	xorl	%edx, %edx
	movl	$8, %ecx
	movl	$1, %r8d
	movq	%r9, %rbx
	callq	Pin
	movq	%rbx, %r9
	movq	%r14, %rdi
	movq	%r15, %rsi
	movl	$1, "PinFlag-26.100"(%rip)
.LBB19_53:                              #   in Loop: Header=BB19_48 Depth=3
	addl	$-31, %ebp
	.align	16, 0x90
.LBB19_54:                              # %while.cond152
                                        #   Parent Loop BB19_36 Depth=1
                                        #     Parent Loop BB19_45 Depth=2
                                        #       Parent Loop BB19_48 Depth=3
                                        # =>      This Inner Loop Header: Depth=4
	addl	$32, %ebp
	movl	%ebp, %eax
	sarl	$5, %eax
	cltq
	cmpl	$-1, (%r12,%rax,4)
	je	.LBB19_54
# BB#55:                                # %while.cond161.preheader
                                        #   in Loop: Header=BB19_48 Depth=3
	movq	%rdi, %rbx
	cmpl	$0, "PinFlag-26.101"(%rip)
	jne	.LBB19_57
# BB#56:                                #   in Loop: Header=BB19_48 Depth=3
	movl	$.L__unnamed_62, %edi
	movq	%rsi, %r14
	movl	$1, %esi
	xorl	%edx, %edx
	movl	$11, %ecx
	movl	$1, %r8d
	movq	%r9, %r15
	callq	Pin
	movq	%r15, %r9
	movq	%r14, %rsi
	movl	$1, "PinFlag-26.101"(%rip)
.LBB19_57:                              # %while.cond161
                                        #   in Loop: Header=BB19_48 Depth=3
	movq	%rbx, %rdi
	.align	16, 0x90
.LBB19_58:                              # %while.cond161
                                        #   Parent Loop BB19_36 Depth=1
                                        #     Parent Loop BB19_45 Depth=2
                                        #       Parent Loop BB19_48 Depth=3
                                        # =>      This Inner Loop Header: Depth=4
	movl	%ebp, %eax
	sarl	$5, %eax
	cltq
	movl	(%r12,%rax,4), %eax
	movl	%ebp, %r8d
	btl	%ebp, %eax
	leal	1(%rbp), %eax
	movl	%eax, %ebp
	jb	.LBB19_58
.LBB19_59:                              # %if.end172
                                        #   in Loop: Header=BB19_48 Depth=3
	movq	%r8, 216(%rsp)          # 8-byte Spill
	cmpl	%r9d, %r8d
	jg	.LBB19_197
# BB#60:                                # %while.cond178.preheader
                                        #   in Loop: Header=BB19_48 Depth=3
	cmpl	$0, "PinFlag-26.102"(%rip)
	movl	%r8d, %ecx
	jne	.LBB19_62
# BB#61:                                #   in Loop: Header=BB19_48 Depth=3
	movq	%rdi, %r14
	movl	$.L__unnamed_63, %edi
	movq	%rsi, %r15
	movl	$1, %esi
	xorl	%edx, %edx
	movl	$13, %ecx
	movq	%r8, %rbp
	movl	$1, %r8d
	movq	%r9, %rbx
	callq	Pin
	movq	%rbx, %r9
	movq	%rbp, %r8
	movq	%r14, %rdi
	movq	%r15, %rsi
	movl	$1, "PinFlag-26.102"(%rip)
	movl	%r8d, %ecx
	.align	16, 0x90
.LBB19_62:                              # %while.cond178
                                        #   Parent Loop BB19_36 Depth=1
                                        #     Parent Loop BB19_45 Depth=2
                                        #       Parent Loop BB19_48 Depth=3
                                        # =>      This Inner Loop Header: Depth=4
	movl	%ecx, %r14d
	movl	%r14d, %eax
	sarl	$5, %eax
	movslq	%eax, %rdx
	andl	$31, %ecx
	movl	$1, %eax
	shll	%cl, %eax
	andl	(%r12,%rdx,4), %eax
	movl	%r14d, %ecx
	andl	$31, %ecx
	je	.LBB19_64
# BB#63:                                # %while.cond178
                                        #   in Loop: Header=BB19_62 Depth=4
	leal	1(%r14), %ecx
	testl	%eax, %eax
	je	.LBB19_62
.LBB19_64:                              # %while.end192
                                        #   in Loop: Header=BB19_48 Depth=3
	testl	%eax, %eax
	jne	.LBB19_72
# BB#65:                                # %while.cond201.preheader
                                        #   in Loop: Header=BB19_48 Depth=3
	cmpl	$0, "PinFlag-26.103"(%rip)
	jne	.LBB19_67
# BB#66:                                #   in Loop: Header=BB19_48 Depth=3
	movl	$.L__unnamed_64, %edi
	movl	%r13d, %r15d
	movq	%rsi, %r13
	movl	$1, %esi
	xorl	%edx, %edx
	movl	$8, %ecx
	movq	%r8, %rbp
	movl	$1, %r8d
	movq	%r9, %rbx
	callq	Pin
	movq	%rbx, %r9
	movq	%rbp, %r8
	movq	192(%rsp), %rdi         # 8-byte Reload
	movq	%r13, %rsi
	movl	%r15d, %r13d
	movl	$1, "PinFlag-26.103"(%rip)
	.align	16, 0x90
.LBB19_67:                              # %while.cond201
                                        #   Parent Loop BB19_36 Depth=1
                                        #     Parent Loop BB19_45 Depth=2
                                        #       Parent Loop BB19_48 Depth=3
                                        # =>      This Inner Loop Header: Depth=4
	movl	%r14d, %ebx
	movl	%ebx, %eax
	sarl	$5, %eax
	cltq
	leal	32(%rbx), %r14d
	cmpl	$0, (%r12,%rax,4)
	je	.LBB19_67
# BB#68:                                # %while.cond210.preheader
                                        #   in Loop: Header=BB19_48 Depth=3
	movq	%r8, %r15
	cmpl	$0, "PinFlag-26.104"(%rip)
	jne	.LBB19_70
# BB#69:                                #   in Loop: Header=BB19_48 Depth=3
	movl	$.L__unnamed_65, %edi
	movq	%rsi, %rbp
	movl	$1, %esi
	xorl	%edx, %edx
	movl	$11, %ecx
	movl	$1, %r8d
	movl	%r13d, %r14d
	movq	%r9, %r13
	callq	Pin
	movq	%r13, %r9
	movl	%r14d, %r13d
	movq	192(%rsp), %rdi         # 8-byte Reload
	movq	%rbp, %rsi
	movl	$1, "PinFlag-26.104"(%rip)
.LBB19_70:                              # %while.cond210
                                        #   in Loop: Header=BB19_48 Depth=3
	movq	%r15, %r8
	.align	16, 0x90
.LBB19_71:                              # %while.cond210
                                        #   Parent Loop BB19_36 Depth=1
                                        #     Parent Loop BB19_45 Depth=2
                                        #       Parent Loop BB19_48 Depth=3
                                        # =>      This Inner Loop Header: Depth=4
	movl	%ebx, %eax
	sarl	$5, %eax
	cltq
	movl	(%r12,%rax,4), %eax
	btl	%ebx, %eax
	movl	%ebx, %r14d
	leal	1(%rbx), %eax
	movl	%eax, %ebx
	jae	.LBB19_71
.LBB19_72:                              # %if.end221
                                        #   in Loop: Header=BB19_48 Depth=3
	cmpl	%r9d, %r14d
	jg	.LBB19_197
# BB#73:                                # %if.end226
                                        #   in Loop: Header=BB19_48 Depth=3
	movq	%rdi, %r15
	leal	-1(%r14), %ebx
	cmpl	%r8d, %r14d
	jle	.LBB19_48
# BB#74:                                # %if.then229
                                        #   in Loop: Header=BB19_45 Depth=2
	leal	-1(%r8), %edx
	movl	$1, %ebp
	movl	$1, %eax
	subl	%r8d, %eax
	movq	128(%rsp), %rcx         # 8-byte Reload
	addl	%eax, %ecx
	movq	%rcx, %rax
	leal	1(%rbx,%rax), %eax
	movl	%edx, 2688(%rsp)
	movl	%ebx, 2288(%rsp)
	cmpl	$0, "PinFlag-26.11"(%rip)
	je	.LBB19_76
# BB#75:                                #   in Loop: Header=BB19_45 Depth=2
	xorl	%ecx, %ecx
	movq	%rcx, 96(%rsp)          # 8-byte Spill
	movl	%edx, 68(%rsp)          # 4-byte Spill
	movq	%rbx, 88(%rsp)          # 8-byte Spill
	movq	%rax, 128(%rsp)         # 8-byte Spill
	jmp	.LBB19_77
.LBB19_76:                              #   in Loop: Header=BB19_45 Depth=2
	movl	%edx, 68(%rsp)          # 4-byte Spill
	movq	%rbx, 88(%rsp)          # 8-byte Spill
	movq	%rax, 128(%rsp)         # 8-byte Spill
	xorl	%eax, %eax
	movq	%rax, 96(%rsp)          # 8-byte Spill
	movl	$.L__unnamed_66, %edi
	movq	%rsi, %r12
	movl	$1, %esi
	movl	$9744, %edx             # imm = 0x2610
	movl	$346, %ecx              # imm = 0x15A
	movq	%r8, %rbx
	xorl	%r8d, %r8d
	callq	Pin
	movq	%rbx, %r8
	movq	%r12, %rsi
	movl	$1, "PinFlag-26.11"(%rip)
.LBB19_77:                              # %while.body.lr.ph.i
                                        #   in Loop: Header=BB19_45 Depth=2
	movq	%r15, %rdi
	jmp	.LBB19_78
.LBB19_180:                             # %vector.body.preheader
                                        #   in Loop: Header=BB19_78 Depth=3
	movq	%rdx, 112(%rsp)         # 8-byte Spill
	movl	124(%rsp), %edx         # 4-byte Reload
	cmpl	%ebx, %edx
	movl	%ebx, %eax
	cmovgel	%edx, %eax
	cmpl	$-3, %eax
	movl	$-2, %ecx
	cmovgl	%eax, %ecx
	subl	%eax, %ecx
	incq	%rcx
	movabsq	$8589934588, %rax       # imm = 0x1FFFFFFFC
	andq	%rax, %rcx
	addq	$-4, %rcx
	movq	%rcx, %rax
	shrq	$2, %rax
	btq	$2, %rcx
	movl	$0, %ebp
	movq	208(%rsp), %rsi         # 8-byte Reload
	jb	.LBB19_182
# BB#181:                               # %vector.body.prol
                                        #   in Loop: Header=BB19_78 Depth=3
	movq	112(%rsp), %rbp         # 8-byte Reload
	movups	(%rdi,%rbp,4), %xmm0
	leal	1(%rsi), %ecx
	movslq	%ecx, %rcx
	movups	(%rdi,%rcx,4), %xmm1
	movups	%xmm1, (%rdi,%rbp,4)
	movups	%xmm0, (%rdi,%rcx,4)
	movl	$4, %ebp
.LBB19_182:                             # %vector.body.preheader.split
                                        #   in Loop: Header=BB19_78 Depth=3
	testq	%rax, %rax
	je	.LBB19_187
# BB#183:                               # %vector.body.preheader.split.split
                                        #   in Loop: Header=BB19_78 Depth=3
	cmpl	$0, "PinFlag-26.114"(%rip)
	jne	.LBB19_185
# BB#184:                               #   in Loop: Header=BB19_78 Depth=3
	movl	$.L__unnamed_67, %edi
	movl	$1, %esi
	movl	$1120, %edx             # imm = 0x460
	movl	$35, %ecx
	movq	%r8, 216(%rsp)          # 8-byte Spill
	movl	$1, %r8d
	movq	%r9, 200(%rsp)          # 8-byte Spill
	movq	%r11, 80(%rsp)          # 8-byte Spill
	movq	%rbx, 160(%rsp)         # 8-byte Spill
	movl	%r10d, %ebx
	callq	Pin
	movq	208(%rsp), %rsi         # 8-byte Reload
	movl	%ebx, %r10d
	movl	124(%rsp), %edx         # 4-byte Reload
	movq	160(%rsp), %rbx         # 8-byte Reload
	movq	80(%rsp), %r11          # 8-byte Reload
	movq	200(%rsp), %r9          # 8-byte Reload
	movq	216(%rsp), %r8          # 8-byte Reload
	movq	192(%rsp), %rdi         # 8-byte Reload
	movl	$1, "PinFlag-26.114"(%rip)
.LBB19_185:                             #   in Loop: Header=BB19_78 Depth=3
	cmpl	%ebx, %edx
	cmovgel	%edx, %ebx
	cmpl	$-3, %ebx
	movl	$-2, %eax
	cmovgl	%ebx, %eax
	subl	%ebx, %eax
	incq	%rax
	movabsq	$8589934588, %rcx       # imm = 0x1FFFFFFFC
	andq	%rcx, %rax
	addl	%r9d, %ebx
	movq	136(%rsp), %rcx         # 8-byte Reload
	movslq	%ecx, %rcx
	movq	(%rsp), %rdx            # 8-byte Reload
	leaq	(%rdx,%rcx,4), %rcx
	.align	16, 0x90
.LBB19_186:                             # %vector.body
                                        #   Parent Loop BB19_36 Depth=1
                                        #     Parent Loop BB19_45 Depth=2
                                        #       Parent Loop BB19_78 Depth=3
                                        # =>      This Inner Loop Header: Depth=4
	movups	-16(%rcx,%rbp,4), %xmm0
	leal	2(%rbx,%rbp), %edx
	movslq	%edx, %rdx
	movups	(%rdi,%rdx,4), %xmm1
	movups	%xmm1, -16(%rcx,%rbp,4)
	movups	%xmm0, (%rdi,%rdx,4)
	movups	(%rcx,%rbp,4), %xmm0
	leal	6(%rbx,%rbp), %edx
	movslq	%edx, %rdx
	movups	(%rdi,%rdx,4), %xmm1
	movups	%xmm1, (%rcx,%rbp,4)
	movups	%xmm0, (%rdi,%rdx,4)
	addq	$8, %rbp
	cmpq	%rbp, %rax
	jne	.LBB19_186
.LBB19_187:                             # %middle.block
                                        #   in Loop: Header=BB19_78 Depth=3
	movq	%r12, %rax
	cmpq	%rax, %r15
	movq	176(%rsp), %r12         # 8-byte Reload
	movq	168(%rsp), %rbp         # 8-byte Reload
	movq	152(%rsp), %r15         # 8-byte Reload
	je	.LBB19_193
# BB#188:                               #   in Loop: Header=BB19_78 Depth=3
	movq	112(%rsp), %rdx         # 8-byte Reload
	addq	%rax, %rdx
	addl	%eax, %esi
	subl	%eax, %ebp
	jmp	.LBB19_189
	.align	16, 0x90
.LBB19_78:                              # %while.body.lr.ph.i
                                        #   Parent Loop BB19_36 Depth=1
                                        #     Parent Loop BB19_45 Depth=2
                                        # =>    This Loop Header: Depth=3
                                        #         Child Loop BB19_81 Depth 4
                                        #           Child Loop BB19_101 Depth 5
                                        #             Child Loop BB19_106 Depth 6
                                        #           Child Loop BB19_90 Depth 5
                                        #             Child Loop BB19_93 Depth 6
                                        #         Child Loop BB19_116 Depth 4
                                        #           Child Loop BB19_121 Depth 5
                                        #             Child Loop BB19_124 Depth 6
                                        #           Child Loop BB19_136 Depth 5
                                        #             Child Loop BB19_134 Depth 6
                                        #         Child Loop BB19_166 Depth 4
                                        #         Child Loop BB19_172 Depth 4
                                        #         Child Loop BB19_186 Depth 4
                                        #         Child Loop BB19_192 Depth 4
	movq	%rdi, %r15
	movslq	%ebp, %rbx
	cmpl	$0, "PinFlag-26.110"(%rip)
	jne	.LBB19_80
# BB#79:                                #   in Loop: Header=BB19_78 Depth=3
	movl	$.L__unnamed_68, %edi
	movq	%rsi, %rbp
	movl	$1, %esi
	movl	$12, %edx
	movl	$61, %ecx
	movq	%r8, %r12
	xorl	%r8d, %r8d
	callq	Pin
	movq	%r12, %r8
	movq	%rbp, %rsi
	movl	$1, "PinFlag-26.110"(%rip)
.LBB19_80:                              # %while.body.i
                                        #   in Loop: Header=BB19_78 Depth=3
	movq	%r15, %rdi
	.align	16, 0x90
.LBB19_81:                              # %while.body.i
                                        #   Parent Loop BB19_36 Depth=1
                                        #     Parent Loop BB19_45 Depth=2
                                        #       Parent Loop BB19_78 Depth=3
                                        # =>      This Loop Header: Depth=4
                                        #           Child Loop BB19_101 Depth 5
                                        #             Child Loop BB19_106 Depth 6
                                        #           Child Loop BB19_90 Depth 5
                                        #             Child Loop BB19_93 Depth 6
	cmpq	$100, %rbx
	jl	.LBB19_83
# BB#82:                                # %if.then.i
                                        #   in Loop: Header=BB19_81 Depth=4
	movq	%rdi, %r15
	movl	$1004, %edi             # imm = 0x3EC
	movq	%rsi, %r12
	movq	%r8, %rbp
	callq	BZ2_bz__AssertH__fail
	movq	%rbp, %r8
	movq	%r15, %rdi
	movq	%r12, %rsi
.LBB19_83:                              # %if.end.i
                                        #   in Loop: Header=BB19_81 Depth=4
	leaq	-1(%rbx), %rax
	movq	%rax, 168(%rsp)         # 8-byte Spill
	movq	%rbx, 176(%rsp)         # 8-byte Spill
	movslq	%eax, %rbp
	movl	2688(%rsp,%rbp,4), %ebx
	movslq	%ebx, %r10
	movq	%r10, 208(%rsp)         # 8-byte Spill
	movl	2288(%rsp,%rbp,4), %r9d
	movq	%r9, 200(%rsp)          # 8-byte Spill
	movslq	%r9d, %r12
	movl	%r12d, %eax
	subl	%r10d, %eax
	cmpl	$9, %eax
	jg	.LBB19_109
# BB#84:                                # %if.then9.i
                                        #   in Loop: Header=BB19_81 Depth=4
	cmpl	%ebx, %r9d
	je	.LBB19_85
# BB#86:                                # %if.end.i.i
                                        #   in Loop: Header=BB19_81 Depth=4
	movq	%rbx, 152(%rsp)         # 8-byte Spill
	cmpl	$3, %eax
	jle	.LBB19_87
# BB#97:                                # %if.then3.i.i
                                        #   in Loop: Header=BB19_81 Depth=4
	leal	-4(%r9), %eax
	movq	152(%rsp), %rcx         # 8-byte Reload
	cmpl	%ecx, %eax
	jl	.LBB19_87
# BB#98:                                # %for.body.preheader.i.i
                                        #   in Loop: Header=BB19_81 Depth=4
	movq	%rdi, %r13
	movq	%rsi, %rbx
	movslq	%eax, %r15
	movq	%r10, %rdx
	notq	%rdx
	cltq
	movq	%rax, %rcx
	notq	%rcx
	cmpq	%rcx, %rdx
	cmovgeq	%rdx, %rcx
	cmpl	$0, "PinFlag-26.1100"(%rip)
	jne	.LBB19_100
# BB#99:                                #   in Loop: Header=BB19_81 Depth=4
	leaq	1(%rcx,%rax), %rsi
	movl	$.L__unnamed_69, %edi
	movl	$458, %edx              # imm = 0x1CA
	movl	$30, %ecx
	xorl	%r8d, %r8d
	movq	%r9, %rbp
	movq	%r10, 208(%rsp)         # 8-byte Spill
	callq	Pin
	movq	208(%rsp), %r10         # 8-byte Reload
	movq	%rbp, %r9
	movq	216(%rsp), %r8          # 8-byte Reload
	movl	$1, "PinFlag-26.1100"(%rip)
.LBB19_100:                             # %for.body.i.i
                                        #   in Loop: Header=BB19_81 Depth=4
	movl	%r9d, %ebp
	movq	%rbx, %rsi
	movq	%r13, %rdi
	.align	16, 0x90
.LBB19_101:                             # %for.body.i.i
                                        #   Parent Loop BB19_36 Depth=1
                                        #     Parent Loop BB19_45 Depth=2
                                        #       Parent Loop BB19_78 Depth=3
                                        #         Parent Loop BB19_81 Depth=4
                                        # =>        This Loop Header: Depth=5
                                        #             Child Loop BB19_106 Depth 6
	movslq	(%rdi,%r15,4), %r11
	leaq	4(%r15), %rax
	cmpq	%r12, %rax
	jle	.LBB19_103
# BB#102:                               #   in Loop: Header=BB19_101 Depth=5
	movl	%r15d, %eax
	jmp	.LBB19_108
	.align	16, 0x90
.LBB19_103:                             # %land.rhs.preheader.i.i
                                        #   in Loop: Header=BB19_101 Depth=5
	movslq	%ebp, %rax
	leaq	(%rdi,%rax,4), %rbx
	movl	(%rsi,%r11,4), %r13d
	cmpl	$0, "PinFlag-26.11000"(%rip)
	jne	.LBB19_105
# BB#104:                               #   in Loop: Header=BB19_101 Depth=5
	movl	$.L__unnamed_70, %edi
	movl	$1, %esi
	movl	$126, %edx
	movl	$18, %ecx
	movq	%r8, 216(%rsp)          # 8-byte Spill
	movl	$1, %r8d
	movq	%r9, 200(%rsp)          # 8-byte Spill
	movq	%r10, 208(%rsp)         # 8-byte Spill
	movq	%r11, 160(%rsp)         # 8-byte Spill
	callq	Pin
	movq	160(%rsp), %r11         # 8-byte Reload
	movq	208(%rsp), %r10         # 8-byte Reload
	movq	200(%rsp), %r9          # 8-byte Reload
	movq	216(%rsp), %r8          # 8-byte Reload
	movq	192(%rsp), %rdi         # 8-byte Reload
	movq	184(%rsp), %rsi         # 8-byte Reload
	movl	$1, "PinFlag-26.11000"(%rip)
.LBB19_105:                             # %land.rhs.i.i
                                        #   in Loop: Header=BB19_101 Depth=5
	movl	%r15d, %eax
	.align	16, 0x90
.LBB19_106:                             # %land.rhs.i.i
                                        #   Parent Loop BB19_36 Depth=1
                                        #     Parent Loop BB19_45 Depth=2
                                        #       Parent Loop BB19_78 Depth=3
                                        #         Parent Loop BB19_81 Depth=4
                                        #           Parent Loop BB19_101 Depth=5
                                        # =>          This Inner Loop Header: Depth=6
	movl	(%rbx), %ecx
	cmpl	(%rsi,%rcx,4), %r13d
	jbe	.LBB19_108
# BB#107:                               # %for.body15.i.i
                                        #   in Loop: Header=BB19_106 Depth=6
	movslq	%eax, %rdx
	movl	%ecx, (%rdi,%rdx,4)
	leal	4(%rdx), %eax
	addq	$16, %rbx
	addl	$8, %edx
	cmpl	%r9d, %edx
	jle	.LBB19_106
.LBB19_108:                             # %for.end.i.i
                                        #   in Loop: Header=BB19_101 Depth=5
	cltq
	movl	%r11d, (%rdi,%rax,4)
	decl	%ebp
	cmpq	%r10, %r15
	leaq	-1(%r15), %r15
	jg	.LBB19_101
.LBB19_87:                              # %for.cond29.preheader.i.i
                                        #   in Loop: Header=BB19_81 Depth=4
	movq	152(%rsp), %rax         # 8-byte Reload
	cmpl	%eax, %r9d
	jle	.LBB19_85
# BB#88:                                # %for.body31.preheader.i.i
                                        #   in Loop: Header=BB19_81 Depth=4
	cmpl	$0, "PinFlag-26.1101"(%rip)
	movq	%r12, %rbp
	jne	.LBB19_90
# BB#89:                                #   in Loop: Header=BB19_81 Depth=4
	leaq	-1(%r12), %rsi
	subq	%r10, %rsi
	movq	%rdi, %r13
	movl	$.L__unnamed_71, %edi
	movl	$458, %edx              # imm = 0x1CA
	movl	$27, %ecx
	movq	%r8, %rbx
	xorl	%r8d, %r8d
	movq	%r9, %rbp
	movq	%r10, %r15
	callq	Pin
	movq	%r15, %r10
	movq	%rbp, %r9
	movq	%rbx, %r8
	movq	%r13, %rdi
	movq	184(%rsp), %rsi         # 8-byte Reload
	movl	$1, "PinFlag-26.1101"(%rip)
	movq	%r12, %rbp
	.align	16, 0x90
.LBB19_90:                              # %for.body31.i.i
                                        #   Parent Loop BB19_36 Depth=1
                                        #     Parent Loop BB19_45 Depth=2
                                        #       Parent Loop BB19_78 Depth=3
                                        #         Parent Loop BB19_81 Depth=4
                                        # =>        This Loop Header: Depth=5
                                        #             Child Loop BB19_93 Depth 6
	leaq	-1(%rbp), %r13
	movslq	-4(%rdi,%rbp,4), %r15
	cmpl	%r9d, %ebp
	jg	.LBB19_96
# BB#91:                                # %land.rhs39.i.i.preheader
                                        #   in Loop: Header=BB19_90 Depth=5
	movl	(%rsi,%r15,4), %ebx
	cmpl	$0, "PinFlag-26.11010"(%rip)
	jne	.LBB19_93
# BB#92:                                #   in Loop: Header=BB19_90 Depth=5
	movl	$.L__unnamed_72, %edi
	movl	$1, %esi
	movl	$126, %edx
	movl	$17, %ecx
	movl	$1, %r8d
	callq	Pin
	movq	208(%rsp), %r10         # 8-byte Reload
	movq	200(%rsp), %r9          # 8-byte Reload
	movq	216(%rsp), %r8          # 8-byte Reload
	movq	192(%rsp), %rdi         # 8-byte Reload
	movq	184(%rsp), %rsi         # 8-byte Reload
	movl	$1, "PinFlag-26.11010"(%rip)
	.align	16, 0x90
.LBB19_93:                              # %land.rhs39.i.i
                                        #   Parent Loop BB19_36 Depth=1
                                        #     Parent Loop BB19_45 Depth=2
                                        #       Parent Loop BB19_78 Depth=3
                                        #         Parent Loop BB19_81 Depth=4
                                        #           Parent Loop BB19_90 Depth=5
                                        # =>          This Inner Loop Header: Depth=6
	movl	(%rdi,%rbp,4), %eax
	cmpl	(%rsi,%rax,4), %ebx
	jbe	.LBB19_96
# BB#94:                                # %for.body46.i.i
                                        #   in Loop: Header=BB19_93 Depth=6
	movl	%eax, -4(%rdi,%rbp,4)
	leaq	1(%rbp), %rax
	cmpq	%r12, %rbp
	movq	%rax, %rbp
	jl	.LBB19_93
# BB#95:                                # %for.end53.i.i.loopexitsplit
                                        #   in Loop: Header=BB19_90 Depth=5
	movl	%eax, %ebp
.LBB19_96:                              # %for.end53.i.i
                                        #   in Loop: Header=BB19_90 Depth=5
	movslq	%ebp, %rax
	movl	%r15d, -4(%rdi,%rax,4)
	cmpq	%r10, %r13
	movq	%r13, %rbp
	jg	.LBB19_90
.LBB19_85:                              # %while.cond.backedge.i
                                        #   in Loop: Header=BB19_81 Depth=4
	cmpq	$1, 176(%rsp)           # 8-byte Folded Reload
	movq	168(%rsp), %rbx         # 8-byte Reload
	movl	148(%rsp), %r13d        # 4-byte Reload
	jg	.LBB19_81
	jmp	.LBB19_144
	.align	16, 0x90
.LBB19_109:                             # %if.end10.i
                                        #   in Loop: Header=BB19_78 Depth=3
	movq	96(%rsp), %rdx          # 8-byte Reload
	imull	$7621, %edx, %edx       # imm = 0x1DC5
	incl	%edx
	andl	$32767, %edx            # imm = 0x7FFF
	movq	%rdx, %rax
	movl	$2863311531, %ecx       # imm = 0xAAAAAAAB
	imulq	%rcx, %rax
	shrq	$33, %rax
	leal	(%rax,%rax,2), %ecx
	movl	%edx, %eax
	subl	%ecx, %eax
	cmpl	$1, %eax
	je	.LBB19_112
# BB#110:                               # %if.end10.i
                                        #   in Loop: Header=BB19_78 Depth=3
	testl	%eax, %eax
	jne	.LBB19_113
# BB#111:                               # %if.then13.i
                                        #   in Loop: Header=BB19_78 Depth=3
	movq	%rbp, 56(%rsp)          # 8-byte Spill
	movq	%rdx, 96(%rsp)          # 8-byte Spill
	movl	(%rdi,%r10,4), %eax
	jmp	.LBB19_114
.LBB19_112:                             # %if.then19.i
                                        #   in Loop: Header=BB19_78 Depth=3
	movq	%rbp, 56(%rsp)          # 8-byte Spill
	movq	%rdx, 96(%rsp)          # 8-byte Spill
	leal	(%r9,%rbx), %eax
	sarl	%eax
	cltq
	movl	(%rdi,%rax,4), %eax
	jmp	.LBB19_114
.LBB19_113:                             # %if.else25.i
                                        #   in Loop: Header=BB19_78 Depth=3
	movq	%rbp, 56(%rsp)          # 8-byte Spill
	movq	%rdx, 96(%rsp)          # 8-byte Spill
	movl	(%rdi,%r12,4), %eax
.LBB19_114:                             # %if.end31.i
                                        #   in Loop: Header=BB19_78 Depth=3
	leaq	(%rsi,%rax,4), %rax
	movq	176(%rsp), %r12         # 8-byte Reload
	movl	(%rax), %eax
	movl	%eax, 112(%rsp)         # 4-byte Spill
	cmpl	$0, "PinFlag-26.111"(%rip)
	movl	%r9d, %eax
	movq	%rax, 160(%rsp)         # 8-byte Spill
	movl	%ebx, %r11d
	movl	%r9d, %edx
	movl	%ebx, %eax
	jne	.LBB19_116
# BB#115:                               #   in Loop: Header=BB19_78 Depth=3
	movl	$.L__unnamed_73, %edi
	movl	$1, %esi
	movl	$1092, %edx             # imm = 0x444
	movl	$48, %ecx
	movq	%r8, 216(%rsp)          # 8-byte Spill
	xorl	%r8d, %r8d
	movq	%r9, %r15
	movq	%r10, %rbp
	callq	Pin
	movq	%rbp, %r10
	movq	%r15, %r9
	movq	216(%rsp), %r8          # 8-byte Reload
	movq	192(%rsp), %rdi         # 8-byte Reload
	movq	184(%rsp), %rsi         # 8-byte Reload
	movl	$1, "PinFlag-26.111"(%rip)
	movl	%r9d, %eax
	movq	%rax, 160(%rsp)         # 8-byte Spill
	movl	%ebx, %r11d
	movl	%r9d, %edx
	movl	%ebx, %eax
	jmp	.LBB19_116
	.align	16, 0x90
.LBB19_225:                             # %if.end92.i
                                        #   in Loop: Header=BB19_116 Depth=4
	movl	(%rdi,%r15,4), %edx
	movl	%ecx, (%rdi,%r15,4)
	movl	%edx, (%rax)
	movq	136(%rsp), %rax         # 8-byte Reload
	incl	%eax
	decl	%ebp
	movl	%ebp, %edx
	movq	152(%rsp), %rbx         # 8-byte Reload
.LBB19_116:                             # %while.body35.outer.i
                                        #   Parent Loop BB19_36 Depth=1
                                        #     Parent Loop BB19_45 Depth=2
                                        #       Parent Loop BB19_78 Depth=3
                                        # =>      This Loop Header: Depth=4
                                        #           Child Loop BB19_121 Depth 5
                                        #             Child Loop BB19_124 Depth 6
                                        #           Child Loop BB19_136 Depth 5
                                        #             Child Loop BB19_134 Depth 6
	cmpl	%edx, %eax
	jle	.LBB19_118
# BB#117:                               #   in Loop: Header=BB19_116 Depth=4
	movq	%rbx, 152(%rsp)         # 8-byte Spill
	jmp	.LBB19_127
	.align	16, 0x90
.LBB19_118:                             # %if.end38.lr.ph.preheader.i
                                        #   in Loop: Header=BB19_116 Depth=4
	movq	%rbx, 152(%rsp)         # 8-byte Spill
	movq	%r12, %rbp
	movq	%r8, %r12
	movslq	%edx, %r15
	movslq	%r11d, %r11
	cmpl	$0, "PinFlag-26.1110"(%rip)
	jne	.LBB19_120
# BB#119:                               #   in Loop: Header=BB19_116 Depth=4
	movl	$.L__unnamed_74, %edi
	movl	$1, %esi
	movl	%edx, 124(%rsp)         # 4-byte Spill
	movl	$458, %edx              # imm = 0x1CA
	movq	%rax, 136(%rsp)         # 8-byte Spill
	movl	$24, %ecx
	xorl	%r8d, %r8d
	movq	%r9, 200(%rsp)          # 8-byte Spill
	movq	%r10, %rbx
	movq	%r11, 80(%rsp)          # 8-byte Spill
	callq	Pin
	movl	124(%rsp), %edx         # 4-byte Reload
	movq	136(%rsp), %rax         # 8-byte Reload
	movq	80(%rsp), %r11          # 8-byte Reload
	movq	%rbx, %r10
	movq	200(%rsp), %r9          # 8-byte Reload
	movq	192(%rsp), %rdi         # 8-byte Reload
	movq	184(%rsp), %rsi         # 8-byte Reload
	movl	$1, "PinFlag-26.1110"(%rip)
.LBB19_120:                             # %if.end38.lr.ph.i
                                        #   in Loop: Header=BB19_116 Depth=4
	movq	%r12, %r8
	movq	%rbp, %r12
.LBB19_121:                             # %if.end38.lr.ph.i
                                        #   Parent Loop BB19_36 Depth=1
                                        #     Parent Loop BB19_45 Depth=2
                                        #       Parent Loop BB19_78 Depth=3
                                        #         Parent Loop BB19_116 Depth=4
                                        # =>        This Loop Header: Depth=5
                                        #             Child Loop BB19_124 Depth 6
	movl	%edx, 124(%rsp)         # 4-byte Spill
	movslq	%eax, %rbp
	cmpl	$0, "PinFlag-26.11100"(%rip)
	jne	.LBB19_123
# BB#122:                               #   in Loop: Header=BB19_121 Depth=5
	movl	%r13d, 148(%rsp)        # 4-byte Spill
	movl	$.L__unnamed_75, %edi
	movl	$1, %esi
	xorl	%edx, %edx
	movl	$16, %ecx
	movq	%r8, 216(%rsp)          # 8-byte Spill
	movl	$1, %r8d
	movq	%r9, %r12
	movq	%r10, %rbx
	movq	%r11, %r13
	callq	Pin
	movq	%r13, %r11
	movq	%rbx, %r10
	movq	%r12, %r9
	movq	216(%rsp), %r8          # 8-byte Reload
	movq	192(%rsp), %rdi         # 8-byte Reload
	movq	176(%rsp), %r12         # 8-byte Reload
	movl	148(%rsp), %r13d        # 4-byte Reload
	movq	184(%rsp), %rsi         # 8-byte Reload
	movl	$1, "PinFlag-26.11100"(%rip)
.LBB19_123:                             #   in Loop: Header=BB19_121 Depth=5
	leaq	(%rdi,%rbp,4), %rax
	movl	112(%rsp), %edx         # 4-byte Reload
	.align	16, 0x90
.LBB19_124:                             # %if.end38.i
                                        #   Parent Loop BB19_36 Depth=1
                                        #     Parent Loop BB19_45 Depth=2
                                        #       Parent Loop BB19_78 Depth=3
                                        #         Parent Loop BB19_116 Depth=4
                                        #           Parent Loop BB19_121 Depth=5
                                        # =>          This Inner Loop Header: Depth=6
	movl	(%rax), %ecx
	cmpl	%edx, (%rsi,%rcx,4)
	je	.LBB19_125
# BB#132:                               # %if.end56.i
                                        #   in Loop: Header=BB19_124 Depth=6
	jg	.LBB19_126
# BB#133:                               # %if.end59.i
                                        #   in Loop: Header=BB19_124 Depth=6
	addq	$4, %rax
	cmpq	%r15, %rbp
	leaq	1(%rbp), %rbp
	jl	.LBB19_124
	jmp	.LBB19_126
	.align	16, 0x90
.LBB19_125:                             # %if.then45.i
                                        #   in Loop: Header=BB19_121 Depth=5
	movl	(%rdi,%r11,4), %edx
	movl	%edx, (%rax)
	movl	%ecx, (%rdi,%r11,4)
	incq	%r11
	leal	1(%rbp), %eax
	movl	124(%rsp), %edx         # 4-byte Reload
	cmpl	%edx, %ebp
	jl	.LBB19_121
	jmp	.LBB19_127
	.align	16, 0x90
.LBB19_126:                             # %if.end56.i.while.body62.preheader.loopexit.i_crit_edge
                                        #   in Loop: Header=BB19_116 Depth=4
	movl	%ebp, %eax
	movl	124(%rsp), %edx         # 4-byte Reload
.LBB19_127:                             # %while.body62.preheader.i
                                        #   in Loop: Header=BB19_116 Depth=4
	cmpl	%edx, %eax
	jg	.LBB19_128
# BB#129:                               # %if.end65.lr.ph.preheader.i
                                        #   in Loop: Header=BB19_116 Depth=4
	movq	%r8, %rbp
	movslq	%eax, %r15
	movq	160(%rsp), %rcx         # 8-byte Reload
	movslq	%ecx, %rcx
	movq	%rcx, 160(%rsp)         # 8-byte Spill
	cmpl	$0, "PinFlag-26.1111"(%rip)
	je	.LBB19_131
# BB#130:                               #   in Loop: Header=BB19_116 Depth=4
	movq	%rax, 136(%rsp)         # 8-byte Spill
	movq	%rbp, %r8
	jmp	.LBB19_136
	.align	16, 0x90
.LBB19_131:                             #   in Loop: Header=BB19_116 Depth=4
	movq	%rax, 136(%rsp)         # 8-byte Spill
	movl	$.L__unnamed_76, %edi
	movl	$1, %esi
	movl	%edx, 124(%rsp)         # 4-byte Spill
	movl	$458, %edx              # imm = 0x1CA
	movl	$24, %ecx
	xorl	%r8d, %r8d
	movq	%r9, 200(%rsp)          # 8-byte Spill
	movq	%r10, %rbx
	movq	%r11, 80(%rsp)          # 8-byte Spill
	callq	Pin
	movl	124(%rsp), %edx         # 4-byte Reload
	movq	80(%rsp), %r11          # 8-byte Reload
	movq	%rbx, %r10
	movq	200(%rsp), %r9          # 8-byte Reload
	movq	192(%rsp), %rdi         # 8-byte Reload
	movq	184(%rsp), %rsi         # 8-byte Reload
	movl	$1, "PinFlag-26.1111"(%rip)
	movq	%rbp, %r8
.LBB19_136:                             # %if.end65.lr.ph.i
                                        #   Parent Loop BB19_36 Depth=1
                                        #     Parent Loop BB19_45 Depth=2
